;
; Definition file of libde265.dll
; Automatic generated by gendef
; written by Kai Tietz 2008
;
LIBRARY "libde265.dll"
EXPORTS
D DATA
_Z10MD5_UpdateP7MD5_CTXPvm
_Z10drawTBgridPK11de265_imagePhiiijiii
_Z10encode_ctbP15encoder_contextP13CABAC_encoderP6enc_cbii
_Z10encode_mvdP15encoder_contextP13CABAC_encoderPKs
_Z11process_seiPK11sei_messageP11de265_image
_Z12encode_imageP15encoder_contextPK11de265_imageR11EncoderCore
_Z12get_NAL_nameh
_Z13add_sao_tasksP10image_uniti
_Z13copy_subimagePhiPKhiii
_Z13draw_PB_blockPK11de265_imagePhiiiii8DrawModeji
_Z13fwd_transformP22acceleration_functionsPsiiiPKsi
_Z13get_bits_fastP9bitreaderi
_Z13inv_transformP22acceleration_functionsPhiPsii
_Z13sei_type_name16sei_payload_type
_Z14advanceCtbAddrP14thread_context
_Z14bitreader_initP9bitreaderPhi
_Z14draw_tree_gridPK11de265_imagePhiji8DrawMode
_Z14get_scan_orderii
_Z14get_split_typePK17seq_parameter_setiii
_Z14part_mode_name8PartMode
_Z14skip_bits_fastP9bitreaderi
_Z15cross_comp_predPK14thread_contextPii
_Z15de265_cond_initP12win32_cond_t
_Z15de265_cond_waitP12win32_cond_tPPv
_Z15decode_CABAC_TUP13CABAC_decoderiP13context_model
_Z15encode_cbf_lumaP13CABAC_encoderbi
_Z15encode_quadtreeP15encoder_contextP13CABAC_encoderPK6enc_cbiiiib
_Z15encode_residualP15encoder_contextP13CABAC_encoderPK6enc_tbPK6enc_cbiiii
_Z15isReferenceNALUh
_Z15read_mvd_codingP14thread_contextiii
_Z15residual_codingP14thread_contextiiii
_Z16bitreader_refillP9bitreader
_Z16compute_residualIhEvP15encoder_contextP6enc_tbPK11de265_imagei
_Z16de265_mutex_initPPv
_Z16de265_mutex_lockPPv
_Z16debug_show_imagePK11de265_imagei
_Z16decode_CABAC_bitP13CABAC_decoderP13context_model
_Z16decode_substreamP14thread_contextbb
_Z16derive_edgeFlagsP11de265_image
_Z16encode_merge_idxP15encoder_contextP13CABAC_encoderi
_Z16encode_part_modeP15encoder_contextP13CABAC_encoder8PredMode8PartModei
_Z16estim_TB_bitratePK15encoder_contextPK11de265_imagePK6enc_tb20TBBitrateEstimMethod
_Z16init_scan_ordersv
_Z16logdebug_enabled9LogModule
_Z16rdpcm_h_fallbackPiPKsiii
_Z16rdpcm_v_fallbackPiPKsiii
_Z16read_coding_unitP14thread_contextiiii
_Z16setCtbAddrFromTSP14thread_context
_Z16statistics_printv
_Z16stop_thread_poolP11thread_pool
_Z17de265_cond_signalP12win32_cond_t
_Z17de265_thread_joinPv
_Z17encode_cbf_chromaP13CABAC_encoderii
_Z17get_scan_positioniiii
_Z17prepare_for_CABACP9bitreader
_Z17put_qpel_fallbackIhEvPsxPKT_xiiS0_iii
_Z17put_qpel_fallbackItEvPsxPKT_xiiS0_iii
_Z17read_scaling_listP9bitreaderPK17seq_parameter_setP17scaling_list_datab
_Z17start_thread_poolP11thread_pooli
_Z18apply_sao_internalIhEvP11de265_imageiiPK20slice_segment_headeriiiPKT_iPS5_i
_Z18apply_sao_internalItEvP11de265_imageiiPK20slice_segment_headeriiiPKT_iPS5_i
_Z18de265_cond_destroyP12win32_cond_t
_Z18de265_mutex_unlockPPv
_Z18draw_QuantPY_blockPK11de265_imagePhiiiiii
_Z18encode_coding_unitP15encoder_contextP13CABAC_encoderPK6enc_cbiiib
_Z18get_intra_scan_idxi13IntraPredModeiPK17seq_parameter_set
_Z18init_CABAC_decoderP13CABAC_decoderPhi
_Z18quant_coefficientsPsPKsiib
_Z18scale_coefficientsP14thread_contextiiiiiibbi
_Z18transform_idct_addIhEvPT_xiPKsi
_Z18transform_idct_addItEvPT_xiPKsi
_Z18write_scaling_listR13CABAC_encoderPK17seq_parameter_setP17scaling_list_datab
_Z19check_CTB_availablePK11de265_imageiiii
_Z19de265_mutex_destroyPPv
_Z19de265_thread_createPPvPFmS_ES_
_Z19decode_CABAC_bypassP13CABAC_decoder
_Z19draw_block_boundaryPK11de265_imagePhiiiiiji
_Z19edge_filtering_lumaP11de265_imagebiiii
_Z19en265_print_loggingPK15encoder_contextPKcS3_
_Z19encode_cu_skip_flagP15encoder_contextP13CABAC_encoderPK6enc_cbb
_Z19fdct_4x4_8_fallbackPsPKsx
_Z19fdct_8x8_8_fallbackPsPKsx
_Z19fdst_4x4_8_fallbackPsPKsx
_Z19fill_border_samplesIhEvP11de265_imageiiiiPT_
_Z19fill_border_samplesItEvP11de265_imageiiiiPT_
_Z19fill_scaling_factorPhPKhi
_Z19intra_prediction_DCIhEvPT_iiiS1_
_Z19intra_prediction_DCItEvPT_iiiS1_
_Z19print_cb_tree_ratesPK6enc_cbi
_Z19print_tb_tree_ratesPK6enc_tbi
_Z19put_epel_8_fallbackPsxPKhxiiiiS_
_Z19read_transform_treeP14thread_contextiiiiiiiiiii8PredModehh
_Z19read_transform_unitP14thread_contextiiiiiiiiiiii
_Z20add_deblocking_tasksP10image_unit
_Z20de265_cond_broadcastP12win32_cond_tPPv
_Z20de265_thread_destroyPPv
_Z20dequant_coefficientsPsPKsii
_Z20draw_intra_pred_modePK11de265_imagePhiiii13IntraPredModeji
_Z20encode_split_cu_flagP15encoder_contextP13CABAC_encoderiiii
_Z20find_intra_pred_mode13IntraPredModePS_
_Z20hadamard_transform_8PsiPKsx
_Z20init_CABAC_decoder_2P13CABAC_decoder
_Z20map_chroma_pred_modeii
_Z20put_epel_16_fallbackPsxPKtxiiiiS_i
_Z20put_epel_hv_fallbackIhEvPsxPKT_xiiiiS0_i
_Z20put_epel_hv_fallbackItEvPsxPKT_xiiiiS0_i
_Z20read_coding_quadtreeP14thread_contextiiii
_Z20read_prediction_unitP14thread_contextiiiiiiiii
_Z21add_residual_fallbackIhEvPT_xPKiii
_Z21add_residual_fallbackItEvPT_xPKiii
_Z21decode_CABAC_term_bitP13CABAC_decoder
_Z21edge_filtering_chromaP11de265_imagebiiii
_Z21encode_transform_treeP15encoder_contextP13CABAC_encoderPK6enc_tbPK6enc_cbiiiiiiiiib
_Z21encode_transform_unitP15encoder_contextP13CABAC_encoderPK6enc_tbPK6enc_cbiiiiiii
_Z21fdct_16x16_8_fallbackPsPKsx
_Z21fdct_32x32_8_fallbackPsPKsx
_Z21find_chroma_pred_mode13IntraPredModeS_
_Z21get_video_format_name11VideoFormat
_Z21put_qpel_0_0_fallbackPsxPKhxiiS_
_Z21put_qpel_0_1_fallbackPsxPKhxiiS_
_Z21put_qpel_0_2_fallbackPsxPKhxiiS_
_Z21put_qpel_0_3_fallbackPsxPKhxiiS_
_Z21put_qpel_1_0_fallbackPsxPKhxiiS_
_Z21put_qpel_1_1_fallbackPsxPKhxiiS_
_Z21put_qpel_1_2_fallbackPsxPKhxiiS_
_Z21put_qpel_1_3_fallbackPsxPKhxiiS_
_Z21put_qpel_2_0_fallbackPsxPKhxiiS_
_Z21put_qpel_2_1_fallbackPsxPKhxiiS_
_Z21put_qpel_2_2_fallbackPsxPKhxiiS_
_Z21put_qpel_2_3_fallbackPsxPKhxiiS_
_Z21put_qpel_3_0_fallbackPsxPKhxiiS_
_Z21put_qpel_3_1_fallbackPsxPKhxiiS_
_Z21put_qpel_3_2_fallbackPsxPKhxiiS_
_Z21put_qpel_3_3_fallbackPsxPKhxiiS_
_Z21read_coding_tree_unitP14thread_context
_Z21skip_to_byte_boundaryP9bitreader
_Z21write_picture_to_filePK11de265_imagePKc
_Z22compute_distortion_ssdPK11de265_imageS1_iiii
_Z22debug_set_image_outputPFvPK11de265_imageiE
_Z22decode_CABAC_FL_bypassP13CABAC_decoderi
_Z22decode_CABAC_TR_bypassP13CABAC_decoderii
_Z22decode_CABAC_TU_bypassP13CABAC_decoderi
_Z22decode_prediction_unitP12base_contextPK20slice_segment_headerP11de265_imageRK14PBMotionCodingiiiiiiii
_Z22encode_prediction_unitP15encoder_contextP13CABAC_encoderPK6enc_cbiiiii
_Z22isSublayerNonReferenceh
_Z22read_pred_weight_tableP9bitreaderP20slice_segment_headerP15decoder_context
_Z22transform_coefficientsIhEvP22acceleration_functionsPsiiiPT_ii
_Z22transform_coefficientsItEvP22acceleration_functionsPsiiiPT_ii
_Z23apply_deblocking_filterP11de265_image
_Z23decode_CABAC_EGk_bypassP13CABAC_decoderi
_Z23decode_intra_predictionIhEvP11de265_imageii13IntraPredModePT_ii
_Z23decode_intra_predictionItEvP11de265_imageii13IntraPredModePT_ii
_Z23decode_intra_predictionP11de265_imageii13IntraPredModeii
_Z23derive_boundaryStrengthP11de265_imagebiiii
_Z23derive_edgeFlags_CTBRowP11de265_imagei
_Z23edge_filtering_luma_CTBP11de265_imagebii
_Z23get_intra_scan_idx_lumai13IntraPredMode
_Z23hadamard_4x4_8_fallbackPsPKsx
_Z23hadamard_8x8_8_fallbackPsPKsx
_Z23initialize_CABAC_modelsP13context_modelii
_Z23initialize_CABAC_modelsP14thread_context
_Z23intra_prediction_planarIhEvPT_iiiS1_
_Z23intra_prediction_planarItEvPT_iiiS1_
_Z23read_slice_segment_dataP14thread_context
_Z23transform_idct_fallbackPiiPKsii
_Z24check_rbsp_trailing_bitsP9bitreader
_Z24compute_residual_channelIhEvP15encoder_contextP6enc_tbPK11de265_imageiiii
_Z24compute_transform_coeffsP15encoder_contextP6enc_tbPK11de265_imageiiiPK6enc_cbi
_Z24findLastSignificantCoeffPK8positionS1_PKsiPiS4_S4_S4_
_Z24get_intra_pred_mode_bitsPK13IntraPredModeS_S_R19context_model_tableb
_Z24get_merge_candidate_listP12base_contextPK20slice_segment_headerP11de265_imageiiiiiiiiP8PBMotion
_Z24intra_prediction_angularIhEvPT_iibii13IntraPredModeiiS1_
_Z24intra_prediction_angularItEvPT_iibii13IntraPredModeiiS1_
_Z24put_qpel_0_0_fallback_16PsxPKtxiiS_i
_Z24put_qpel_0_1_fallback_16PsxPKtxiiS_i
_Z24put_qpel_0_2_fallback_16PsxPKtxiiS_i
_Z24put_qpel_0_3_fallback_16PsxPKtxiiS_i
_Z24put_qpel_1_0_fallback_16PsxPKtxiiS_i
_Z24put_qpel_1_1_fallback_16PsxPKtxiiS_i
_Z24put_qpel_1_2_fallback_16PsxPKtxiiS_i
_Z24put_qpel_1_3_fallback_16PsxPKtxiiS_i
_Z24put_qpel_2_0_fallback_16PsxPKtxiiS_i
_Z24put_qpel_2_1_fallback_16PsxPKtxiiS_i
_Z24put_qpel_2_2_fallback_16PsxPKtxiiS_i
_Z24put_qpel_2_3_fallback_16PsxPKtxiiS_i
_Z24put_qpel_3_0_fallback_16PsxPKtxiiS_i
_Z24put_qpel_3_1_fallback_16PsxPKtxiiS_i
_Z24put_qpel_3_2_fallback_16PsxPKtxiiS_i
_Z24put_qpel_3_3_fallback_16PsxPKtxiiS_i
_Z24recursive_cbfChroma_rateP19CABAC_encoder_estimP6enc_tbii
_Z25edge_filtering_chroma_CTBP11de265_imagebii
_Z25get_intra_scan_idx_chromai13IntraPredMode
_Z25hadamard_16x16_8_fallbackPsPKsx
_Z25hadamard_32x32_8_fallbackPsPKsx
_Z25read_pcm_samples_internalIhEvP14thread_contextiiiiR9bitreader
_Z25read_pcm_samples_internalItEvP14thread_contextiiiiR9bitreader
_Z25read_prediction_unit_SKIPP14thread_contextiiii
_Z25set_default_scaling_listsP17scaling_list_data
_Z25transform_bypass_fallbackPiPKsi
_Z25transform_skip_8_fallbackPhPKsx
_Z26markTransformBlockBoundaryP11de265_imageiiiiii
_Z26transform_skip_16_fallbackPtPKsxi
_Z27derive_boundaryStrength_CTBP11de265_imagebii
_Z27dump_short_term_ref_pic_setPK11ref_pic_setP6_iobuf
_Z27encode_split_transform_flagP15encoder_contextP13CABAC_encoderii
_Z27fillIntraPredModeCandidatesP13IntraPredModeS_S_
_Z27fillIntraPredModeCandidatesP13IntraPredModeiibbRK13CTBTreeMatrixPK17seq_parameter_set
_Z27fillIntraPredModeCandidatesP13IntraPredModeiiibbPK11de265_image
_Z27list_chroma_pred_candidatesP13IntraPredModeS_
_Z27markPredictionBlockBoundaryP11de265_imageiiiii
_Z27read_short_term_ref_pic_setP11error_queuePK17seq_parameter_setP9bitreaderP11ref_pic_setiRKSt6vectorIS6_SaIS6_EEb
_Z27scale_coefficients_internalIhEvP14thread_contextiiiiiibbi
_Z27scale_coefficients_internalItEvP14thread_contextiiiiiibbi
_Z27transform_bypass_8_fallbackPhPKsix
_Z27transform_idct_4x4_fallbackPiPKsii
_Z27transform_idct_8x8_fallbackPiPKsii
_Z27transform_idst_4x4_fallbackPiPKsii
_Z28apply_sample_adaptive_offsetP11de265_image
_Z28edge_filtering_luma_internalIhEvP11de265_imagebiiii
_Z28edge_filtering_luma_internalItEvP11de265_imagebiiii
_Z28ff_hevc_transform_skip_8_ssePhPKsx
_Z28put_weighted_pred_8_fallbackPhxPKsxiiiii
_Z28rotate_coefficients_fallbackPsi
_Z28transform_4x4_add_8_fallbackPhPKsx
_Z28transform_8x8_add_8_fallbackPhPKsx
_Z28transform_bypass_16_fallbackPtPKsixi
_Z28write_short_term_ref_pic_setP11error_queuePK17seq_parameter_setR13CABAC_encoderPK11ref_pic_setiRKSt6vectorIS6_SaIS6_EEb
_Z29derive_luma_motion_merge_modeP12base_contextPK20slice_segment_headerP11de265_imageiiiiiiiiiP8PBMotion
_Z29ff_hevc_put_hevc_epel_h_8_ssePsxPKhxiiiiS_i
_Z29ff_hevc_put_hevc_epel_v_8_ssePsxPKhxiiiiS_i
_Z29fill_border_samples_from_treeIhEvPK11de265_imagePK6enc_tbRK13CTBTreeMatrixiPT_
_Z29luma_motion_vector_predictionP12base_contextPK20slice_segment_headerP11de265_imageRK14PBMotionCodingiiiiiiiiii
_Z29put_weighted_pred_16_fallbackPtxPKsxiiiiii
_Z29transform_4x4_add_16_fallbackPtPKsxi
_Z29transform_8x8_add_16_fallbackPtPKsxi
_Z29transform_idct_16x16_fallbackPiPKsii
_Z29transform_idct_32x32_fallbackPiPKsii
_Z2TUii
_Z30decode_quantization_parametersP14thread_contextiiii
_Z30edge_filtering_chroma_internalIhEvP11de265_imagebiiii
_Z30edge_filtering_chroma_internalItEvP11de265_imagebiiii
_Z30ff_hevc_put_hevc_epel_h_10_ssePsxPKhxiiiiS_
_Z30ff_hevc_put_hevc_epel_hv_8_ssePsxPKhxiiiiS_i
_Z30ff_hevc_put_hevc_epel_v_10_ssePsxPKhxiiiiS_
_Z30lumaPredMode_to_chromaPredMode13IntraPredMode19IntraChromaPredMode
_Z30motion_vectors_and_ref_indicesP12base_contextPK20slice_segment_headerP11de265_imageRK14PBMotionCodingiiiiiiiiP8PBMotion
_Z30put_unweighted_pred_8_fallbackPhxPKsxii
_Z30put_weighted_bipred_8_fallbackPhxPKsS1_xiiiiiii
_Z30transform_16x16_add_8_fallbackPhPKsx
_Z30transform_32x32_add_8_fallbackPhPKsx
_Z31decode_CABAC_FL_bypass_parallelP13CABAC_decoderi
_Z31ff_hevc_put_hevc_epel_hv_10_ssePsxPKhxiiiiS_
_Z31ff_hevc_put_hevc_qpel_h_1_8_ssePsxPKhxiiS_
_Z31ff_hevc_put_hevc_qpel_h_2_8_ssePsxPKhxiiS_
_Z31ff_hevc_put_hevc_qpel_h_3_8_ssePsxPKhxiiS_
_Z31ff_hevc_put_hevc_qpel_v_1_8_ssePsxPKhxiiS_
_Z31ff_hevc_put_hevc_qpel_v_2_8_ssePsxPKhxiiS_
_Z31ff_hevc_put_hevc_qpel_v_3_8_ssePsxPKhxiiS_
_Z31ff_hevc_put_unweighted_pred_ssePhxPKsxii
_Z31init_acceleration_functions_sseP22acceleration_functions
_Z31put_unweighted_pred_16_fallbackPtxPKsxiii
_Z31put_weighted_bipred_16_fallbackPtxPKsS1_xiiiiiiii
_Z31split_last_significant_positioniPiS_S_
_Z31transform_16x16_add_16_fallbackPtPKsxi
_Z31transform_32x32_add_16_fallbackPtPKsxi
_Z31transform_coefficients_explicitIhEvP14thread_contextPsiiiPT_iii
_Z31transform_coefficients_explicitItEvP14thread_contextPsiiiPT_iii
_Z32decode_intra_prediction_internalIhEvP11de265_imageii13IntraPredModePT_iii
_Z32decode_intra_prediction_internalItEvP11de265_imageii13IntraPredModePT_iii
_Z32derive_collocated_motion_vectorsP12base_contextP11de265_imagePK20slice_segment_headeriiiiiiiP12MotionVectorPh
_Z32ff_hevc_put_hevc_qpel_h_1_10_ssePsxPKhxiiS_
_Z32ff_hevc_transform_4x4_add_8_sse4PhPKsx
_Z32ff_hevc_transform_8x8_add_8_sse4PhPKsx
_Z32ff_hevc_weighted_pred_avg_8_sse4hssssPhxPKsS1_xii
_Z32put_weighted_pred_avg_8_fallbackPhxPKsS1_xii
_Z32subblock_has_nonzero_coefficientPKsiRK8position
_Z32transform_skip_residual_fallbackPiPKsiii
_Z33decode_intra_prediction_from_treePK11de265_imagePK6enc_tbRK13CTBTreeMatrixRK17seq_parameter_seti
_Z33derive_spatial_merging_candidatesI11de265_imageEi18MotionVectorAccessIT_EPKS0_iiiiihiiiP8PBMotioni
_Z33derive_spatial_merging_candidatesI15encoder_contextEi18MotionVectorAccessIT_EPK11de265_imageiiiiihiiiP8PBMotioni
_Z33ff_hevc_put_hevc_qpel_h_1_v_1_ssePsxPKhxiiS_
_Z33ff_hevc_put_hevc_qpel_h_1_v_2_ssePsxPKhxiiS_
_Z33ff_hevc_put_hevc_qpel_h_1_v_3_ssePsxPKhxiiS_
_Z33ff_hevc_put_hevc_qpel_h_2_v_1_ssePsxPKhxiiS_
_Z33ff_hevc_put_hevc_qpel_h_2_v_2_ssePsxPKhxiiS_
_Z33ff_hevc_put_hevc_qpel_h_2_v_3_ssePsxPKhxiiS_
_Z33ff_hevc_put_hevc_qpel_h_3_v_1_ssePsxPKhxiiS_
_Z33ff_hevc_put_hevc_qpel_h_3_v_2_ssePsxPKhxiiS_
_Z33ff_hevc_put_hevc_qpel_h_3_v_3_ssePsxPKhxiiS_
_Z33ff_hevc_put_unweighted_pred_8_ssePhxPKsxii
_Z33ff_hevc_put_weighted_pred_avg_ssePhxPKsS1_xii
_Z33generate_inter_prediction_samplesP12base_contextPK20slice_segment_headerP11de265_imageiiiiiiiPK8PBMotion
_Z33intra_prediction_sample_filteringIhEvRK17seq_parameter_setPT_ii13IntraPredMode
_Z33intra_prediction_sample_filteringItEvRK17seq_parameter_setPT_ii13IntraPredMode
_Z33put_weighted_pred_avg_16_fallbackPtxPKsS1_xiii
_Z33transform_4x4_luma_add_8_fallbackPhPKsx
_Z33transform_bypass_rdpcm_h_fallbackPiPKsi
_Z33transform_bypass_rdpcm_v_fallbackPiPKsi
_Z33transform_skip_rdpcm_h_8_fallbackPhPKsix
_Z33transform_skip_rdpcm_v_8_fallbackPhPKsix
_Z34ff_hevc_put_hevc_epel_pixels_8_ssePsxPKhxiiiiS_
_Z34ff_hevc_put_hevc_qpel_pixels_8_ssePsxPKhxiiS_
_Z34ff_hevc_transform_16x16_add_8_sse4PhPKsx
_Z34ff_hevc_transform_32x32_add_8_sse4PhPKsx
_Z34fill_luma_motion_vector_predictorsP12base_contextPK20slice_segment_headerP11de265_imageiiiiiiiiiiP12MotionVector
_Z34get_merge_candidate_list_from_treeP15encoder_contextPK20slice_segment_headeriiiiiiiiP8PBMotion
_Z34transform_4x4_luma_add_16_fallbackPtPKsxi
_Z35dump_compact_short_term_ref_pic_setPK11ref_pic_setiP6_iobuf
_Z35ff_hevc_put_hevc_epel_pixels_10_ssePsxPKhxiiiiS_
_Z35ff_hevc_put_hevc_qpel_pixels_10_ssePsxPKhxiiS_
_Z35ff_hevc_put_weighted_pred_avg_8_ssePhxPKsS1_xii
_Z35transform_bypass_rdpcm_h_8_fallbackPhPKsix
_Z35transform_bypass_rdpcm_v_8_fallbackPhPKsix
_Z35write_short_term_ref_pic_set_nopredP11error_queuePK17seq_parameter_setR13CABAC_encoderPK11ref_pic_setiRKSt6vectorIS6_SaIS6_EEb
_Z36derive_zero_motion_vector_candidatesPK20slice_segment_headerP8PBMotionPii
_Z36encode_last_signficiant_coeff_prefixP15encoder_contextP13CABAC_encoderiiii
_Z36init_acceleration_functions_fallbackP22acceleration_functions
_Z37derive_spatial_luma_vector_predictionP12base_contextP11de265_imagePK20slice_segment_headeriiiiiiiiiiPhP12MotionVector
_Z37ff_hevc_transform_4x4_luma_add_8_sse4PhPKsx
_Z38derive_temporal_luma_vector_predictionP12base_contextP11de265_imagePK20slice_segment_headeriiiiiiP12MotionVectorPh
_Z39apply_sample_adaptive_offset_sequentialP11de265_image
_Z39get_merge_candidate_list_without_step_9I11de265_imageEvP12base_contextPK20slice_segment_header18MotionVectorAccessIT_EPS0_iiiiiiiiiP8PBMotion
_Z39get_merge_candidate_list_without_step_9I15encoder_contextEvP12base_contextPK20slice_segment_header18MotionVectorAccessIT_EP11de265_imageiiiiiiiiiP8PBMotion
_Z39initialize_CABAC_at_slice_segment_startP14thread_context
_Z3MSEPKhiS0_iii
_Z3SADPKhiS0_iii
_Z3SSDPKhiS0_iii
_Z3binii
_Z3sadPKhiS0_iii
_Z41free_significant_coeff_ctxIdx_lookupTablev
_Z42decode_intra_prediction_from_tree_internalIhEvPK11de265_imagePK6enc_tbRK13CTBTreeMatrixRK17seq_parameter_seti
_Z47derive_combined_bipredictive_merging_candidatesPK12base_contextPK20slice_segment_headerP8PBMotionPii
_Z4ExpGii
_Z4PSNRd
_Z51alloc_and_init_significant_coeff_ctxIdx_lookupTablev
_Z55alloc_and_init_significant_coeff_ctxIdx_lookupTable_OLDv
_Z5isBLAh
_Z5isCRAh
_Z5isIDRh
_Z5isRAPh
_Z6isIRAPh
_Z6isRADLh
_Z6isRASLh
_Z6log2fhP6_iobufPKcz
_Z7blamainv
_Z7fprintfP6_iobufPKcz
_Z7mc_lumaIhEvPK12base_contextPK17seq_parameter_setiiiiPsiPKT_iiii
_Z7mc_lumaItEvPK12base_contextPK17seq_parameter_setiiiiPsiPKT_iiii
_Z8MD5_InitP7MD5_CTX
_Z8add_taskP11thread_poolP11thread_task
_Z8diff_blkIhEvPsiPKT_iS3_ii
_Z8diff_blkPsiPKhiS1_ii
_Z8dump_seiPK11sei_messagePK17seq_parameter_set
_Z8get_bitsP9bitreaderi
_Z8get_svlcP9bitreader
_Z8get_uvlcP9bitreader
_Z8isIdrPich
_Z8isRapPich
_Z8print128PKcDv2_x
_Z8printBlkPKcPKhiiRKNSt7__cxx1112basic_stringIcSt11char_traitsIcESaIcEEE
_Z8printBlkPKcPKiiiRKNSt7__cxx1112basic_stringIcSt11char_traitsIcESaIcEEE
_Z8printBlkPKcPKsiiRKNSt7__cxx1112basic_stringIcSt11char_traitsIcESaIcEEE
_Z8printm32PKcPh
_Z8read_saoP14thread_contextiii
_Z8read_seiP9bitreaderP11sei_messagebPK17seq_parameter_set
_Z8scale_mvP12MotionVectorS_ii
_Z9MD5_FinalPhP7MD5_CTX
_Z9apply_saoIhEvP11de265_imageiiPK20slice_segment_headeriiiPKT_iPS5_i
_Z9draw_linePhijiiiiiii
_Z9fill_rectPhiiiiiji
_Z9mc_chromaIhEvPK12base_contextPK17seq_parameter_setiiiiPsiPKT_iiii
_Z9mc_chromaItEvPK12base_contextPK17seq_parameter_setiiiiPsiPKT_iiii
_Z9peek_bitsP9bitreaderi
_Z9pop_frontIP10image_unitEvRSt6vectorIT_SaIS3_EE
_Z9set_pixelPhiiiji
_Z9skip_bitsP9bitreaderi
_Z9tint_rectPhiiiiiji
_ZN10Algo_PB_MV12setChildAlgoEP13Algo_TB_Split
_ZN10Algo_PB_MVC2Ev
_ZN10Algo_PB_MVD2Ev
_ZN10NAL_Parser10flush_dataEv
_ZN10NAL_Parser13free_NAL_unitEP8NAL_unit
_ZN10NAL_Parser14alloc_NAL_unitEi
_ZN10NAL_Parser17mark_end_of_frameEv
_ZN10NAL_Parser17push_to_NAL_queueEP8NAL_unit
_ZN10NAL_Parser18mark_end_of_streamEv
_ZN10NAL_Parser18pop_from_NAL_queueEv
_ZN10NAL_Parser25remove_pending_input_dataEv
_ZN10NAL_Parser8push_NALEPKhixPv
_ZN10NAL_Parser9push_dataEPKhixPv
_ZN10NAL_ParserC1Ev
_ZN10NAL_ParserC2Ev
_ZN10NAL_ParserD1Ev
_ZN10NAL_ParserD2Ev
_ZN10PacketSinkC2Ev
_ZN10PacketSinkD2Ev
_ZN10alloc_pool10delete_objEPv
_ZN10alloc_pool16add_memory_blockEv
_ZN10alloc_pool7new_objEy
_ZN10alloc_poolC1Eyib
_ZN10alloc_poolC2Eyib
_ZN10alloc_poolD1Ev
_ZN10alloc_poolD2Ev
_ZN10image_data12set_NAL_typeEh
_ZN10image_data14set_referencesEiRKSt6vectorIiSaIiEES4_S4_S4_
_ZN10image_data17set_skip_priorityEi
_ZN10image_data19set_NAL_temporal_idEi
_ZN10image_data9set_intraEv
_ZN10image_dataC1Ev
_ZN10image_dataC2Ev
_ZN10image_dataD1Ev
_ZN10image_dataD2Ev
_ZN10image_unitC1Ev
_ZN10image_unitC2Ev
_ZN10image_unitD1Ev
_ZN10image_unitD2Ev
_ZN10nal_header3setEiii
_ZN10nal_header4readEP9bitreader
_ZN10nal_headerC1Ev
_ZN10option_int11set_defaultEi
_ZN10option_int11set_minimumEi
_ZN10option_int16set_valid_valuesERKSt6vectorIiSaIiEE
_ZN10option_int23processCmdLineArgumentsEPPcPii
_ZN10option_int3setEi
_ZN10option_int9set_rangeEii
_ZN10option_intC1Ev
_ZN10option_intD0Ev
_ZN10option_intD1Ev
_ZN10option_intaSERKS_
_ZN10slice_unit18get_thread_contextEi
_ZN10slice_unit24allocate_thread_contextsEi
_ZN10slice_unitC1EP15decoder_context
_ZN10slice_unitC2EP15decoder_context
_ZN10slice_unitD1Ev
_ZN10slice_unitD2Ev
_ZN11EncoderCoreC2Ev
_ZN11EncoderCoreD2Ev
_ZN11ImageSourceC1Ev
_ZN11ImageSourceC2Ev
_ZN11ImageSourceD2Ev
_ZN11de265_image10copy_imageEPKS_
_ZN11de265_image10fill_imageEiii
_ZN11de265_image10thread_runEPK11thread_task
_ZN11de265_image11alloc_imageEii12de265_chromaSt10shared_ptrIK17seq_parameter_setEbP15decoder_contextP15encoder_contextxPvb
_ZN11de265_image11set_ctDepthEiiii
_ZN11de265_image11set_headersESt10shared_ptrI19video_parameter_setES0_I17seq_parameter_setES0_I17pic_parameter_setE
_ZN11de265_image11set_mv_infoEiiiiRK8PBMotion
_ZN11de265_image12set_PartModeEii8PartMode
_ZN11de265_image12set_deblk_bSEiih
_ZN11de265_image12set_pcm_flagEiiih
_ZN11de265_image12set_sao_infoEiiPK8sao_info
_ZN11de265_image12thread_startEi
_ZN11de265_image13set_pred_modeEiii8PredMode
_ZN11de265_image13thread_blocksEv
_ZN11de265_image14clear_metadataEv
_ZN11de265_image14fill_pred_modeE8PredMode
_ZN11de265_image14get_shared_spsEv
_ZN11de265_image14set_log2CbSizeEiiib
_ZN11de265_image15copy_lines_fromEPKS_ii
_ZN11de265_image15get_SliceHeaderEii
_ZN11de265_image15get_image_planeEi
_ZN11de265_image15s_next_image_IDE DATA
_ZN11de265_image15set_SliceAddrRSEiii
_ZN11de265_image15set_deblk_flagsEiih
_ZN11de265_image15set_image_planeEiPhiPv
_ZN11de265_image15thread_finishesEPK11thread_task
_ZN11de265_image15thread_unblocksEv
_ZN11de265_image17set_IntraPredModeEii13IntraPredMode
_ZN11de265_image17wait_for_progressEP11thread_taskii
_ZN11de265_image17wait_for_progressEP11thread_taskiii
_ZN11de265_image18get_SliceHeaderCtbEii
_ZN11de265_image18set_CtbDeblockFlagEiib
_ZN11de265_image18set_IntraPredModeCEiii13IntraPredModeb
_ZN11de265_image19wait_for_completionEv
_ZN11de265_image20set_SliceHeaderIndexEiii
_ZN11de265_image21mark_all_CTB_progressEi
_ZN11de265_image22get_image_plane_at_posEiii
_ZN11de265_image23set_nonzero_coefficientEiii
_ZN11de265_image24add_slice_segment_headerEP20slice_segment_header
_ZN11de265_image24default_image_allocationE DATA
_ZN11de265_image24exchange_pixel_data_withERS_
_ZN11de265_image24set_cu_transquant_bypassEiiih
_ZN11de265_image24set_split_transform_flagEiii
_ZN11de265_image26get_image_plane_at_pos_NEWIhEEPT_iii
_ZN11de265_image26get_image_plane_at_pos_NEWItEEPT_iii
_ZN11de265_image27clear_split_transform_flagsEiii
_ZN11de265_image32get_image_plane_at_pos_any_depthEiii
_ZN11de265_image7releaseEv
_ZN11de265_image7set_QPYEiiii
_ZN11de265_imageC1Ev
_ZN11de265_imageC2Ev
_ZN11de265_imageD1Ev
_ZN11de265_imageD2Ev
_ZN11error_queue11add_warningE11de265_errorb
_ZN11error_queue11get_warningEv
_ZN11error_queueC1Ev
_ZN11error_queueC2Ev
_ZN11option_base20set_cmd_line_optionsEPKcc
_ZN11option_base23processCmdLineArgumentsEPPcPii
_ZN11option_base6set_IDEPKc
_ZN11option_baseC2Ev
_ZN11option_baseD2Ev
_ZN11option_baseaSERKS_
_ZN11option_bool3setEb
_ZN11ref_pic_set22compute_derived_valuesEv
_ZN11ref_pic_set5resetEv
_ZN11sop_creator19set_encoder_contextEP15encoder_context
_ZN11sop_creator20insert_end_of_streamEv
_ZN11sop_creator26set_encoder_picture_bufferEP22encoder_picture_buffer
_ZN11sop_creatorC2Ev
_ZN11sop_creatorD2Ev
_ZN11thread_poolC1Ev
_ZN11thread_poolD1Ev
_ZN11thread_taskC2Ev
_ZN11thread_taskD2Ev
_ZN12Algo_CB_Skip11setSkipAlgoEP18Algo_CB_MergeIndex
_ZN12Algo_CB_Skip14setNonSkipAlgoEP7Algo_CB
_ZN12Algo_CB_SkipC2Ev
_ZN12Algo_CB_SkipD2Ev
_ZN12CodingOptionI6enc_cbE11get_contextEv
_ZN12CodingOptionI6enc_cbE12set_rdo_costEf
_ZN12CodingOptionI6enc_cbE3endEv
_ZN12CodingOptionI6enc_cbE5beginEv
_ZN12CodingOptionI6enc_cbE8get_nodeEv
_ZN12CodingOptionI6enc_cbE8set_nodeEPS0_
_ZN12CodingOptionI6enc_cbE9get_cabacEv
_ZN12CodingOptionI6enc_cbEC1EP13CodingOptionsIS0_Ei
_ZN12CodingOptionI6enc_cbEC1Ev
_ZN12CodingOptionI6enc_cbEC2EP13CodingOptionsIS0_Ei
_ZN12CodingOptionI6enc_cbEC2Ev
_ZN12CodingOptionI6enc_tbE11get_contextEv
_ZN12CodingOptionI6enc_tbE12set_rdo_costEf
_ZN12CodingOptionI6enc_tbE3endEv
_ZN12CodingOptionI6enc_tbE5beginEv
_ZN12CodingOptionI6enc_tbE8get_nodeEv
_ZN12CodingOptionI6enc_tbE8set_nodeEPS0_
_ZN12CodingOptionI6enc_tbE9get_cabacEv
_ZN12CodingOptionI6enc_tbEC1EP13CodingOptionsIS0_Ei
_ZN12CodingOptionI6enc_tbEC1Ev
_ZN12CodingOptionI6enc_tbEC2EP13CodingOptionsIS0_Ei
_ZN12CodingOptionI6enc_tbEC2Ev
_ZN12base_context26set_acceleration_functionsE18de265_acceleration
_ZN12base_contextC1Ev
_ZN12base_contextC2Ev
_ZN12base_contextD2Ev
_ZN12profile_data12set_defaultsE11profile_idcii
_ZN12profile_data4readEP9bitreader
_ZN13Algo_CB_Split12setChildAlgoEP7Algo_CB
_ZN13Algo_CB_Split15encode_cb_splitEP15encoder_contextR19context_model_tableP6enc_cb
_ZN13Algo_CB_SplitC2Ev
_ZN13Algo_CB_SplitD2Ev
_ZN13Algo_TB_Split19setAlgo_TB_ResidualEP16Algo_TB_Residual
_ZN13Algo_TB_Split24setAlgo_TB_IntraPredModeEP21Algo_TB_IntraPredMode
_ZN13Algo_TB_Split27encode_transform_tree_splitEP15encoder_contextR19context_model_tablePK11de265_imageP6enc_tbP6enc_cbiii
_ZN13Algo_TB_SplitC2Ev
_ZN13Algo_TB_SplitD2Ev
_ZN13CABAC_encoder10init_CABACEv
_ZN13CABAC_encoder10write_svlcEi
_ZN13CABAC_encoder10write_uvlcEi
_ZN13CABAC_encoder11flush_CABACEv
_ZN13CABAC_encoder15write_CABAC_EGkEii
_ZN13CABAC_encoder17add_trailing_bitsEv
_ZN13CABAC_encoder18set_context_modelsEP19context_model_table
_ZN13CABAC_encoder20RDBits_for_CABAC_binEii
_ZN13CABAC_encoder21write_CABAC_FL_bypassEii
_ZN13CABAC_encoder21write_CABAC_TU_bypassEii
_ZN13CABAC_encoder9flush_VLCEv
_ZN13CABAC_encoder9write_bitEi
_ZN13CABAC_encoderC2Ev
_ZN13CABAC_encoderD2Ev
_ZN13CTBTreeMatrix17getCTBRootPointerEii
_ZN13CTBTreeMatrix4freeEv
_ZN13CTBTreeMatrix5allocEiii
_ZN13CTBTreeMatrix5clearEv
_ZN13CTBTreeMatrixC1Ev
_ZN13CTBTreeMatrixD1Ev
_ZN13CodingOptionsI6enc_cbE10new_optionEb
_ZN13CodingOptionsI6enc_cbE16CodingOptionDataC1EOS2_
_ZN13CodingOptionsI6enc_cbE16CodingOptionDataC1ERKS2_
_ZN13CodingOptionsI6enc_cbE16CodingOptionDataC1Ev
_ZN13CodingOptionsI6enc_cbE16CodingOptionDataD1Ev
_ZN13CodingOptionsI6enc_cbE17compute_rdo_costsEv
_ZN13CodingOptionsI6enc_cbE19find_best_rdo_indexEv
_ZN13CodingOptionsI6enc_cbE20return_best_rdo_nodeEv
_ZN13CodingOptionsI6enc_cbE5startENS1_20RateEstimationMethodE
_ZN13CodingOptionsI6enc_cbEC1EP15encoder_contextPS0_R19context_model_table
_ZN13CodingOptionsI6enc_cbEC2EP15encoder_contextPS0_R19context_model_table
_ZN13CodingOptionsI6enc_cbED1Ev
_ZN13CodingOptionsI6enc_cbED2Ev
_ZN13CodingOptionsI6enc_tbE10new_optionEb
_ZN13CodingOptionsI6enc_tbE16CodingOptionDataC1EOS2_
_ZN13CodingOptionsI6enc_tbE16CodingOptionDataC1ERKS2_
_ZN13CodingOptionsI6enc_tbE16CodingOptionDataC1Ev
_ZN13CodingOptionsI6enc_tbE16CodingOptionDataD1Ev
_ZN13CodingOptionsI6enc_tbE17compute_rdo_costsEv
_ZN13CodingOptionsI6enc_tbE19find_best_rdo_indexEv
_ZN13CodingOptionsI6enc_tbE20return_best_rdo_nodeEv
_ZN13CodingOptionsI6enc_tbE5startENS1_20RateEstimationMethodE
_ZN13CodingOptionsI6enc_tbEC1EP15encoder_contextPS0_R19context_model_table
_ZN13CodingOptionsI6enc_tbEC2EP15encoder_contextPS0_R19context_model_table
_ZN13CodingOptionsI6enc_tbED1Ev
_ZN13CodingOptionsI6enc_tbED2Ev
_ZN13ImageSink_YUV10send_imageEPK11de265_image
_ZN13ImageSink_YUV12set_filenameEPKc
_ZN13ImageSink_YUVD0Ev
_ZN13ImageSink_YUVD1Ev
_ZN13ImageSink_YUVD2Ev
_ZN13MetaDataArrayI11CB_ref_infoE3getEii
_ZN13MetaDataArrayI11CB_ref_infoE5allocEiii
_ZN13MetaDataArrayI11CB_ref_infoE5clearEv
_ZN13MetaDataArrayI11CB_ref_infoEC1Ev
_ZN13MetaDataArrayI11CB_ref_infoED1Ev
_ZN13MetaDataArrayI11CB_ref_infoEixEi
_ZN13MetaDataArrayI8CTB_infoE3getEii
_ZN13MetaDataArrayI8CTB_infoE5allocEiii
_ZN13MetaDataArrayI8CTB_infoE5clearEv
_ZN13MetaDataArrayI8CTB_infoEC1Ev
_ZN13MetaDataArrayI8CTB_infoED1Ev
_ZN13MetaDataArrayI8CTB_infoEixEi
_ZN13MetaDataArrayI8PBMotionE5allocEiii
_ZN13MetaDataArrayI8PBMotionEC1Ev
_ZN13MetaDataArrayI8PBMotionED1Ev
_ZN13MetaDataArrayI8PBMotionEixEi
_ZN13MetaDataArrayIhE3getEii
_ZN13MetaDataArrayIhE5allocEiii
_ZN13MetaDataArrayIhE5clearEv
_ZN13MetaDataArrayIhEC1Ev
_ZN13MetaDataArrayIhED1Ev
_ZN13MetaDataArrayIhEixEi
_ZN13PixelAccessor13copyFromImageEPK11de265_imagei
_ZN13PixelAccessor7invalidEv
_ZN13PixelAccessorC1ER18small_image_bufferii
_ZN13PixelAccessorC1Ev
_ZN13choice_optionI10MVTestModeE10add_choiceERKNSt7__cxx1112basic_stringIcSt11char_traitsIcESaIcEEES0_b
_ZN13choice_optionI10MVTestModeE9set_valueERKNSt7__cxx1112basic_stringIcSt11char_traitsIcESaIcEEE
_ZN13choice_optionI10MVTestModeEC2Ev
_ZN13choice_optionI10MVTestModeED0Ev
_ZN13choice_optionI10MVTestModeED1Ev
_ZN13choice_optionI10MVTestModeED2Ev
_ZN13choice_optionI12MVSearchAlgoE10add_choiceERKNSt7__cxx1112basic_stringIcSt11char_traitsIcESaIcEEES0_b
_ZN13choice_optionI12MVSearchAlgoE9set_valueERKNSt7__cxx1112basic_stringIcSt11char_traitsIcESaIcEEE
_ZN13choice_optionI12MVSearchAlgoEC2Ev
_ZN13choice_optionI12MVSearchAlgoED0Ev
_ZN13choice_optionI12MVSearchAlgoED1Ev
_ZN13choice_optionI12MVSearchAlgoED2Ev
_ZN13choice_optionI13SOP_StructureE10add_choiceERKNSt7__cxx1112basic_stringIcSt11char_traitsIcESaIcEEES0_b
_ZN13choice_optionI13SOP_StructureE9set_valueERKNSt7__cxx1112basic_stringIcSt11char_traitsIcESaIcEEE
_ZN13choice_optionI13SOP_StructureEC2Ev
_ZN13choice_optionI13SOP_StructureED0Ev
_ZN13choice_optionI13SOP_StructureED1Ev
_ZN13choice_optionI13SOP_StructureED2Ev
_ZN13choice_optionI20TBBitrateEstimMethodE10add_choiceERKNSt7__cxx1112basic_stringIcSt11char_traitsIcESaIcEEES0_b
_ZN13choice_optionI20TBBitrateEstimMethodE9set_valueERKNSt7__cxx1112basic_stringIcSt11char_traitsIcESaIcEEE
_ZN13choice_optionI20TBBitrateEstimMethodEC2Ev
_ZN13choice_optionI20TBBitrateEstimMethodED0Ev
_ZN13choice_optionI20TBBitrateEstimMethodED1Ev
_ZN13choice_optionI20TBBitrateEstimMethodED2Ev
_ZN13choice_optionI21ALGO_CB_IntraPartModeE10add_choiceERKNSt7__cxx1112basic_stringIcSt11char_traitsIcESaIcEEES0_b
_ZN13choice_optionI21ALGO_CB_IntraPartModeE9set_valueERKNSt7__cxx1112basic_stringIcSt11char_traitsIcESaIcEEE
_ZN13choice_optionI21ALGO_CB_IntraPartModeEC2Ev
_ZN13choice_optionI21ALGO_CB_IntraPartModeED0Ev
_ZN13choice_optionI21ALGO_CB_IntraPartModeED1Ev
_ZN13choice_optionI21ALGO_CB_IntraPartModeED2Ev
_ZN13choice_optionI21ALGO_TB_IntraPredModeE10add_choiceERKNSt7__cxx1112basic_stringIcSt11char_traitsIcESaIcEEES0_b
_ZN13choice_optionI21ALGO_TB_IntraPredModeE9set_valueERKNSt7__cxx1112basic_stringIcSt11char_traitsIcESaIcEEE
_ZN13choice_optionI21ALGO_TB_IntraPredModeEC2Ev
_ZN13choice_optionI21ALGO_TB_IntraPredModeED0Ev
_ZN13choice_optionI21ALGO_TB_IntraPredModeED1Ev
_ZN13choice_optionI21ALGO_TB_IntraPredModeED2Ev
_ZN13choice_optionI22ALGO_TB_RateEstimationE10add_choiceERKNSt7__cxx1112basic_stringIcSt11char_traitsIcESaIcEEES0_b
_ZN13choice_optionI22ALGO_TB_RateEstimationE9set_valueERKNSt7__cxx1112basic_stringIcSt11char_traitsIcESaIcEEE
_ZN13choice_optionI22ALGO_TB_RateEstimationEC2Ev
_ZN13choice_optionI22ALGO_TB_RateEstimationED0Ev
_ZN13choice_optionI22ALGO_TB_RateEstimationED1Ev
_ZN13choice_optionI22ALGO_TB_RateEstimationED2Ev
_ZN13choice_optionI28ALGO_TB_IntraPredMode_SubsetE10add_choiceERKNSt7__cxx1112basic_stringIcSt11char_traitsIcESaIcEEES0_b
_ZN13choice_optionI28ALGO_TB_IntraPredMode_SubsetE9set_valueERKNSt7__cxx1112basic_stringIcSt11char_traitsIcESaIcEEE
_ZN13choice_optionI28ALGO_TB_IntraPredMode_SubsetEC2Ev
_ZN13choice_optionI28ALGO_TB_IntraPredMode_SubsetED0Ev
_ZN13choice_optionI28ALGO_TB_IntraPredMode_SubsetED1Ev
_ZN13choice_optionI28ALGO_TB_IntraPredMode_SubsetED2Ev
_ZN13choice_optionI39ALGO_TB_Split_BruteForce_ZeroBlockPruneE10add_choiceERKNSt7__cxx1112basic_stringIcSt11char_traitsIcESaIcEEES0_b
_ZN13choice_optionI39ALGO_TB_Split_BruteForce_ZeroBlockPruneE9set_valueERKNSt7__cxx1112basic_stringIcSt11char_traitsIcESaIcEEE
_ZN13choice_optionI39ALGO_TB_Split_BruteForce_ZeroBlockPruneEC2Ev
_ZN13choice_optionI39ALGO_TB_Split_BruteForce_ZeroBlockPruneED0Ev
_ZN13choice_optionI39ALGO_TB_Split_BruteForce_ZeroBlockPruneED1Ev
_ZN13choice_optionI39ALGO_TB_Split_BruteForce_ZeroBlockPruneED2Ev
_ZN13choice_optionI6MEModeE10add_choiceERKNSt7__cxx1112basic_stringIcSt11char_traitsIcESaIcEEES0_b
_ZN13choice_optionI6MEModeE9set_valueERKNSt7__cxx1112basic_stringIcSt11char_traitsIcESaIcEEE
_ZN13choice_optionI6MEModeEC2Ev
_ZN13choice_optionI6MEModeED0Ev
_ZN13choice_optionI6MEModeED1Ev
_ZN13choice_optionI6MEModeED2Ev
_ZN13choice_optionI8PartModeE10add_choiceERKNSt7__cxx1112basic_stringIcSt11char_traitsIcESaIcEEES0_b
_ZN13choice_optionI8PartModeE9set_valueERKNSt7__cxx1112basic_stringIcSt11char_traitsIcESaIcEEE
_ZN13choice_optionI8PartModeEC2Ev
_ZN13choice_optionI8PartModeED0Ev
_ZN13choice_optionI8PartModeED1Ev
_ZN13choice_optionI8PartModeED2Ev
_ZN13option_MEModeC1Ev
_ZN13option_MEModeD0Ev
_ZN13option_MEModeD1Ev
_ZN13option_string23processCmdLineArgumentsEPPcPii
_ZN13option_string3setENSt7__cxx1112basic_stringIcSt11char_traitsIcESaIcEEE
_ZN13option_stringD0Ev
_ZN13option_stringD1Ev
_ZN13raw_hash_data12prepare_8bitEPKhi
_ZN13raw_hash_data13prepare_16bitEPKhi
_ZN13raw_hash_dataC1Eii
_ZN13raw_hash_dataC2Eii
_ZN13raw_hash_dataD1Ev
_ZN13raw_hash_dataD2Ev
_ZN14encoder_params14registerParamsER17config_parameters
_ZN14encoder_paramsC1Ev
_ZN14encoder_paramsC2Ev
_ZN14encoder_paramsD1Ev
_ZN14thread_contextC1Ev
_ZN14thread_contextC2Ev
_ZN14thread_contextD1Ev
_ZN15Algo_CTB_QScale12setChildAlgoEP13Algo_CB_Split
_ZN15Algo_CTB_QScaleC2Ev
_ZN15Algo_CTB_QScaleD2Ev
_ZN15Algo_PB_MV_Test14registerParamsER17config_parameters
_ZN15Algo_PB_MV_Test6paramsC1Ev
_ZN15Algo_PB_MV_Test6paramsD1Ev
_ZN15Algo_PB_MV_Test7analyzeEP15encoder_contextR19context_model_tableP6enc_cbiiiii
_ZN15Algo_PB_MV_TestC1Ev
_ZN15Algo_PB_MV_TestD0Ev
_ZN15Algo_PB_MV_TestD1Ev
_ZN15ImageSource_YUV11skip_framesEi
_ZN15ImageSource_YUV14set_input_fileEPKcii
_ZN15ImageSource_YUV15read_next_imageEv
_ZN15ImageSource_YUV9get_imageEb
_ZN15ImageSource_YUVC1Ev
_ZN15ImageSource_YUVC2Ev
_ZN15ImageSource_YUVD0Ev
_ZN15ImageSource_YUVD1Ev
_ZN15ImageSource_YUVD2Ev
_ZN15PacketSink_File11send_packetEPKhi
_ZN15PacketSink_File12set_filenameEPKc
_ZN15PacketSink_FileC1Ev
_ZN15PacketSink_FileC2Ev
_ZN15PacketSink_FileD0Ev
_ZN15PacketSink_FileD1Ev
_ZN15PacketSink_FileD2Ev
_ZN15decoder_context10decode_NALEP8NAL_unit
_ZN15decoder_context11decode_someEPb
_ZN15decoder_context12read_eos_NALER9bitreader
_ZN15decoder_context12read_pps_NALER9bitreader
_ZN15decoder_context12read_sei_NALER9bitreaderb
_ZN15decoder_context12read_sps_NALER9bitreader
_ZN15decoder_context12read_vps_NALER9bitreader
_ZN15decoder_context13set_limit_TIDEi
_ZN15decoder_context14read_slice_NALER9bitreaderP8NAL_unitR10nal_header
_ZN15decoder_context15process_nal_hdrEP10nal_header
_ZN15decoder_context16change_framerateEi
_ZN15decoder_context16stop_thread_poolEv
_ZN15decoder_context17start_thread_poolEi
_ZN15decoder_context19init_thread_contextEP14thread_context
_ZN15decoder_context19set_framerate_ratioEi
_ZN15decoder_context21decode_slice_unit_WPPEP10image_unitP10slice_unit
_ZN15decoder_context22remove_images_from_dpbERKSt6vectorIiSaIiEE
_ZN15decoder_context23add_task_decode_CTB_rowEP14thread_contextbi
_ZN15decoder_context23compute_framedrop_tableEv
_ZN15decoder_context23decode_slice_unit_tilesEP10image_unitP10slice_unit
_ZN15decoder_context26decode_slice_unit_parallelEP10image_unitP10slice_unit
_ZN15decoder_context27process_picture_order_countEP20slice_segment_header
_ZN15decoder_context28calc_tid_and_framerate_ratioEv
_ZN15decoder_context28decode_slice_unit_sequentialEP10image_unitP10slice_unit
_ZN15decoder_context28process_slice_segment_headerEP20slice_segment_headerP11de265_errorxP10nal_headerPv
_ZN15decoder_context28push_picture_to_output_queueEP10image_unit
_ZN15decoder_context29add_task_decode_slice_segmentEP14thread_contextbii
_ZN15decoder_context29mark_whole_slice_as_processedEP10image_unitP10slice_uniti
_ZN15decoder_context29process_reference_picture_setEP20slice_segment_header
_ZN15decoder_context30set_image_allocation_functionsEP22de265_image_allocationPv
_ZN15decoder_context32get_next_picture_in_output_queueEv
_ZN15decoder_context32pop_next_picture_in_output_queueEv
_ZN15decoder_context33construct_reference_picture_listsEP20slice_segment_header
_ZN15decoder_context35run_postprocessing_filters_parallelEP10image_unit
_ZN15decoder_context37run_postprocessing_filters_sequentialEP11de265_image
_ZN15decoder_context38generate_unavailable_reference_pictureEPK17seq_parameter_setib
_ZN15decoder_context5resetEv
_ZN15decoder_context6decodeEPi
_ZN15decoder_context7get_ppsEi
_ZN15decoder_context7get_spsEi
_ZN15decoder_contextC1Ev
_ZN15decoder_contextC2Ev
_ZN15decoder_contextD0Ev
_ZN15decoder_contextD1Ev
_ZN15decoder_contextD2Ev
_ZN15encoder_context13create_packetE25en265_packet_content_type
_ZN15encoder_context13start_encoderEv
_ZN15encoder_context14encode_headersEv
_ZN15encoder_context14get_shared_ppsEv
_ZN15encoder_context14get_shared_spsEv
_ZN15encoder_context14get_shared_vpsEv
_ZN15encoder_context19release_input_imageEi
_ZN15encoder_context23mark_image_is_outputtedEi
_ZN15encoder_context32encode_picture_from_input_bufferEv
_ZN15encoder_context7get_ppsEv
_ZN15encoder_context7get_spsEv
_ZN15encoder_contextC1Ev
_ZN15encoder_contextC2Ev
_ZN15encoder_contextD0Ev
_ZN15encoder_contextD1Ev
_ZN15encoder_contextD2Ev
_ZN15option_PartModeC1Ev
_ZN15option_PartModeD0Ev
_ZN15option_PartModeD1Ev
_ZN15thread_task_sao4workEv
_ZN15thread_task_saoC1Ev
_ZN15thread_task_saoD0Ev
_ZN15thread_task_saoD1Ev
_ZN16Algo_TB_ResidualC2Ev
_ZN16Algo_TB_ResidualD2Ev
_ZN16Logging_TB_Split5printEPK15encoder_contextPKc
_ZN16Logging_TB_SplitC1Ev
_ZN16Logging_TB_SplitD0Ev
_ZN16Logging_TB_SplitD1Ev
_ZN17Algo_PB_MV_Search14registerParamsER17config_parameters
_ZN17Algo_PB_MV_Search6paramsC1Ev
_ZN17Algo_PB_MV_Search6paramsD1Ev
_ZN17Algo_PB_MV_Search7analyzeEP15encoder_contextR19context_model_tableP6enc_cbiiiii
_ZN17Algo_PB_MV_SearchC1Ev
_ZN17Algo_PB_MV_SearchD0Ev
_ZN17Algo_PB_MV_SearchD1Ev
_ZN17Algo_TB_Transform25setAlgo_TB_RateEstimationEP22Algo_TB_RateEstimation
_ZN17Algo_TB_Transform7analyzeEP15encoder_contextR19context_model_tablePK11de265_imageP6enc_tbiii
_ZN17Algo_TB_TransformC1Ev
_ZN17Algo_TB_TransformD0Ev
_ZN17Algo_TB_TransformD1Ev
_ZN17config_parameters10add_optionEP11option_base
_ZN17config_parameters10set_choiceEPKcS1_
_ZN17config_parameters10set_stringEPKcS1_
_ZN17config_parameters25parse_command_line_paramsEPiPPcS0_b
_ZN17config_parameters7set_intEPKci
_ZN17config_parameters8set_boolEPKcb
_ZN17config_parametersC1Ev
_ZN17config_parametersD1Ev
_ZN17option_MVTestModeC1Ev
_ZN17option_MVTestModeD0Ev
_ZN17option_MVTestModeD1Ev
_ZN17pic_order_counter13advance_frameEi
_ZN17pic_order_counter9reset_pocEv
_ZN17pic_order_counterC2Ev
_ZN17pic_parameter_set12set_defaultsE9PresetSet
_ZN17pic_parameter_set18set_derived_valuesEPK17seq_parameter_set
_ZN17pic_parameter_set4readEP9bitreaderP15decoder_context
_ZN17pic_parameter_set5resetEv
_ZN17pic_parameter_set5writeEP11error_queueR13CABAC_encoderPK17seq_parameter_set
_ZN17pic_parameter_setC1Ev
_ZN17pic_parameter_setC2Ev
_ZN17pic_parameter_setD1Ev
_ZN17pic_parameter_setD2Ev
_ZN17seq_parameter_set12set_defaultsE9PresetSet
_ZN17seq_parameter_set14set_resolutionEii
_ZN17seq_parameter_set21set_CB_log2size_rangeEii
_ZN17seq_parameter_set21set_TB_log2size_rangeEii
_ZN17seq_parameter_set22compute_derived_valuesEb
_ZN17seq_parameter_set4readEP11error_queueP9bitreader
_ZN17seq_parameter_set5writeEP11error_queueR13CABAC_encoder
_ZN17seq_parameter_setC1Ev
_ZN17seq_parameter_setC2Ev
_ZN17seq_parameter_setD1Ev
_ZN17seq_parameter_setD2Ev
_ZN18Algo_CB_IntraInter17setInterChildAlgoEP7Algo_CB
_ZN18Algo_CB_IntraInter17setIntraChildAlgoEP7Algo_CB
_ZN18Algo_CB_IntraInterC2Ev
_ZN18Algo_CB_IntraInterD2Ev
_ZN18Algo_CB_MergeIndex12setChildAlgoEP13Algo_TB_Split
_ZN18Algo_CB_MergeIndex17set_code_residualEb
_ZN18Algo_CB_MergeIndexC2Ev
_ZN18Algo_CB_MergeIndexD2Ev
_ZN18EncoderCore_Custom14registerParamsER17config_parameters
_ZN18EncoderCore_Custom16getAlgoCTBQScaleEv
_ZN18EncoderCore_Custom9setParamsER14encoder_params
_ZN18EncoderCore_CustomC1Ev
_ZN18EncoderCore_CustomD0Ev
_ZN18EncoderCore_CustomD1Ev
_ZN18MotionVectorAccessI11de265_imageE11get_mv_infoEii
_ZN18MotionVectorAccessI11de265_imageE12get_PartModeEii
_ZN18MotionVectorAccessI11de265_imageEC1EPKS0_
_ZN18MotionVectorAccessI15encoder_contextE11get_mv_infoEii
_ZN18MotionVectorAccessI15encoder_contextE12get_PartModeEii
_ZN18MotionVectorAccessI15encoder_contextEC1EPKS0_
_ZN18choice_option_base23processCmdLineArgumentsEPPcPii
_ZN18choice_option_base31invalidate_choices_string_tableEv
_ZN18choice_option_base3setENSt7__cxx1112basic_stringIcSt11char_traitsIcESaIcEEE
_ZN18choice_option_baseC2Ev
_ZN18choice_option_baseD2Ev
_ZN18profile_tier_level4readEP9bitreaderi
_ZN18small_image_bufferC1Eii
_ZN18small_image_bufferC2Eii
_ZN18small_image_bufferD1Ev
_ZN18small_image_bufferD2Ev
_ZN19CABAC_encoder_estim10write_bitsEji
_ZN19CABAC_encoder_estim15write_CABAC_bitEii
_ZN19CABAC_encoder_estim15write_startcodeEv
_ZN19CABAC_encoder_estim18write_CABAC_bypassEi
_ZN19CABAC_encoder_estim20write_CABAC_term_bitEi
_ZN19CABAC_encoder_estim21write_CABAC_FL_bypassEii
_ZN19CABAC_encoder_estim5resetEv
_ZN19CABAC_encoder_estim9skip_bitsEi
_ZN19CABAC_encoder_estim9write_bitEi
_ZN19CABAC_encoder_estimC1Ev
_ZN19CABAC_encoder_estimC2Ev
_ZN19CABAC_encoder_estimD0Ev
_ZN19CABAC_encoder_estimD1Ev
_ZN19CABAC_encoder_estimD2Ev
_ZN19context_model_table33decouple_or_alloc_with_empty_dataEv
_ZN19context_model_table4initEii
_ZN19context_model_table7releaseEv
_ZN19context_model_table8decoupleEv
_ZN19context_model_table8transferEv
_ZN19context_model_tableC1ERKS_
_ZN19context_model_tableC1Ev
_ZN19context_model_tableC2ERKS_
_ZN19context_model_tableC2Ev
_ZN19context_model_tableD1Ev
_ZN19context_model_tableD2Ev
_ZN19context_model_tableaSERKS_
_ZN19context_model_tableixEi
_ZN19de265_progress_lock12set_progressEi
_ZN19de265_progress_lock17increase_progressEi
_ZN19de265_progress_lock17wait_for_progressEi
_ZN19de265_progress_lock5resetEi
_ZN19de265_progress_lockC1Ev
_ZN19de265_progress_lockC2Ev
_ZN19de265_progress_lockD1Ev
_ZN19de265_progress_lockD2Ev
_ZN19option_MVSearchAlgoC1Ev
_ZN19option_MVSearchAlgoD0Ev
_ZN19option_MVSearchAlgoD1Ev
_ZN19pps_range_extension4readEP9bitreaderP15decoder_contextPK17pic_parameter_set
_ZN19pps_range_extension5resetEv
_ZN19pps_range_extensionC1Ev
_ZN19sps_range_extension4readEP11error_queueP9bitreader
_ZN19sps_range_extensionC1Ev
_ZN19sps_range_extensionC2Ev
_ZN19thread_task_ctb_row4workEv
_ZN19thread_task_ctb_rowC1Ev
_ZN19thread_task_ctb_rowD0Ev
_ZN19thread_task_ctb_rowD1Ev
_ZN19video_parameter_set12set_defaultsE11profile_idcii
_ZN19video_parameter_set4readEP11error_queueP9bitreader
_ZN19video_parameter_setC1Ev
_ZN19video_parameter_setD1Ev
_ZN20option_InterPartModeC1Ev
_ZN20option_InterPartModeD0Ev
_ZN20option_InterPartModeD1Ev
_ZN20option_SOP_StructureC1Ev
_ZN20option_SOP_StructureD0Ev
_ZN20option_SOP_StructureD1Ev
_ZN20slice_segment_header12set_defaultsEv
_ZN20slice_segment_header22compute_derived_valuesEPK17pic_parameter_set
_ZN20slice_segment_header4readEP9bitreaderP15decoder_contextPb
_ZN20slice_segment_header5resetEv
_ZN20slice_segment_header5writeEP11error_queueR13CABAC_encoderPK17seq_parameter_setPK17pic_parameter_seth
_ZN20slice_segment_headerC1Ev
_ZN20slice_segment_headerD1Ev
_ZN20slice_segment_headeraSERKS_
_ZN21Algo_CB_InterPartMode10codeAllPBsEP15encoder_contextR19context_model_tableP6enc_cb
_ZN21Algo_CB_InterPartMode12setChildAlgoEP7Algo_PB
_ZN21Algo_CB_InterPartModeC2Ev
_ZN21Algo_CB_InterPartModeD2Ev
_ZN21Algo_CB_IntraPartMode12setChildAlgoEP21Algo_TB_IntraPredMode
_ZN21Algo_CB_IntraPartModeC2Ev
_ZN21Algo_CB_IntraPartModeD2Ev
_ZN21Algo_TB_IntraPredMode12setChildAlgoEP13Algo_TB_Split
_ZN21Algo_TB_IntraPredModeC2Ev
_ZN21Algo_TB_IntraPredModeD2Ev
_ZN21intra_border_computerIhE15fill_from_imageEv
_ZN21intra_border_computerIhE17fill_from_ctbtreeEPK6enc_tbRK13CTBTreeMatrix
_ZN21intra_border_computerIhE29reference_sample_substitutionEv
_ZN21intra_border_computerIhE4initEPhPK11de265_imageiiii
_ZN21intra_border_computerIhE7preprocEv
_ZN21intra_border_computerItE15fill_from_imageEv
_ZN21intra_border_computerItE29reference_sample_substitutionEv
_ZN21intra_border_computerItE4initEPtPK11de265_imageiiii
_ZN21intra_border_computerItE7preprocEv
_ZN22Algo_TB_RateEstimationC2Ev
_ZN22Algo_TB_RateEstimationD2Ev
_ZN22decoded_picture_buffer20flush_reorder_bufferEv
_ZN22decoded_picture_buffer32insert_image_into_reorder_bufferEP11de265_image
_ZN22decoded_picture_buffer32pop_next_picture_in_output_queueEv
_ZN22decoded_picture_buffer37output_next_picture_in_reorder_bufferEv
_ZN22decoded_picture_buffer5clearEv
_ZN22decoded_picture_buffer9get_imageEi
_ZN22decoded_picture_buffer9new_imageESt10shared_ptrIK17seq_parameter_setEP15decoder_contextxPvb
_ZN22decoded_picture_bufferC1Ev
_ZN22decoded_picture_bufferC2Ev
_ZN22decoded_picture_bufferD1Ev
_ZN22decoded_picture_bufferD2Ev
_ZN22encoder_picture_buffer11get_pictureEi
_ZN22encoder_picture_buffer12flush_imagesEv
_ZN22encoder_picture_buffer19release_input_imageEi
_ZN22encoder_picture_buffer19sop_metadata_commitEi
_ZN22encoder_picture_buffer20insert_end_of_streamEv
_ZN22encoder_picture_buffer20set_prediction_imageEiP11de265_image
_ZN22encoder_picture_buffer21mark_encoding_startedEi
_ZN22encoder_picture_buffer22mark_encoding_finishedEi
_ZN22encoder_picture_buffer23mark_image_is_outputtedEi
_ZN22encoder_picture_buffer24set_reconstruction_imageEiP11de265_image
_ZN22encoder_picture_buffer26get_next_picture_to_encodeEv
_ZN22encoder_picture_buffer35insert_next_image_in_encoding_orderEPK11de265_imagei
_ZN22encoder_picture_buffer5resetEv
_ZN22encoder_picture_bufferC1Ev
_ZN22encoder_picture_bufferC2Ev
_ZN22encoder_picture_bufferD1Ev
_ZN22encoder_picture_bufferD2Ev
_ZN22sop_creator_intra_only21set_SPS_header_valuesEv
_ZN22sop_creator_intra_only22insert_new_input_imageEP11de265_image
_ZN22sop_creator_intra_onlyC1Ev
_ZN22sop_creator_intra_onlyC2Ev
_ZN22sop_creator_intra_onlyD0Ev
_ZN22sop_creator_intra_onlyD1Ev
_ZN23Algo_CB_Skip_BruteForce7analyzeEP15encoder_contextR19context_model_tableP6enc_cb
_ZN23Algo_CB_Skip_BruteForceC1Ev
_ZN23Algo_CB_Skip_BruteForceD0Ev
_ZN23Algo_CB_Skip_BruteForceD1Ev
_ZN23CABAC_encoder_bitstream10init_CABACEv
_ZN23CABAC_encoder_bitstream10write_bitsEji
_ZN23CABAC_encoder_bitstream11append_byteEi
_ZN23CABAC_encoder_bitstream11flush_CABACEv
_ZN23CABAC_encoder_bitstream15testAndWriteOutEv
_ZN23CABAC_encoder_bitstream15write_CABAC_bitEii
_ZN23CABAC_encoder_bitstream15write_startcodeEv
_ZN23CABAC_encoder_bitstream18write_CABAC_bypassEi
_ZN23CABAC_encoder_bitstream20write_CABAC_term_bitEi
_ZN23CABAC_encoder_bitstream21check_size_and_resizeEi
_ZN23CABAC_encoder_bitstream5resetEv
_ZN23CABAC_encoder_bitstream9flush_VLCEv
_ZN23CABAC_encoder_bitstream9skip_bitsEi
_ZN23CABAC_encoder_bitstream9write_outEv
_ZN23CABAC_encoder_bitstreamC1Ev
_ZN23CABAC_encoder_bitstreamC2Ev
_ZN23CABAC_encoder_bitstreamD0Ev
_ZN23CABAC_encoder_bitstreamD1Ev
_ZN23CABAC_encoder_bitstreamD2Ev
_ZN24Algo_CB_MergeIndex_Fixed7analyzeEP15encoder_contextR19context_model_tableP6enc_cb
_ZN24Algo_CB_MergeIndex_FixedC1Ev
_ZN24Algo_CB_MergeIndex_FixedD0Ev
_ZN24Algo_CB_MergeIndex_FixedD1Ev
_ZN24Algo_CB_Split_BruteForce7analyzeEP15encoder_contextR19context_model_tableP6enc_cb
_ZN24Algo_CB_Split_BruteForceC1Ev
_ZN24Algo_CB_Split_BruteForceD0Ev
_ZN24Algo_CB_Split_BruteForceD1Ev
_ZN24Algo_CTB_QScale_Constant14registerParamsER17config_parameters
_ZN24Algo_CTB_QScale_Constant6paramsC1Ev
_ZN24Algo_CTB_QScale_Constant6paramsD1Ev
_ZN24Algo_CTB_QScale_Constant7analyzeEP15encoder_contextR19context_model_tableii
_ZN24Algo_CTB_QScale_ConstantC1Ev
_ZN24Algo_CTB_QScale_ConstantD0Ev
_ZN24Algo_CTB_QScale_ConstantD1Ev
_ZN24Algo_TB_Split_BruteForce14registerParamsER17config_parameters
_ZN24Algo_TB_Split_BruteForce6paramsC1Ev
_ZN24Algo_TB_Split_BruteForce6paramsD1Ev
_ZN24Algo_TB_Split_BruteForce7analyzeEP15encoder_contextR19context_model_tablePK11de265_imageP6enc_tbiii
_ZN24Algo_TB_Split_BruteForceC1Ev
_ZN24Algo_TB_Split_BruteForceD0Ev
_ZN24Algo_TB_Split_BruteForceD1Ev
_ZN25thread_task_slice_segment4workEv
_ZN25thread_task_slice_segmentC1Ev
_ZN25thread_task_slice_segmentD0Ev
_ZN25thread_task_slice_segmentD1Ev
_ZN26thread_task_deblock_CTBRow4workEv
_ZN26thread_task_deblock_CTBRowC1Ev
_ZN26thread_task_deblock_CTBRowD0Ev
_ZN26thread_task_deblock_CTBRowD1Ev
_ZN27Algo_CB_InterPartMode_Fixed14registerParamsER17config_parameters
_ZN27Algo_CB_InterPartMode_Fixed6paramsC1Ev
_ZN27Algo_CB_InterPartMode_Fixed6paramsD1Ev
_ZN27Algo_CB_InterPartMode_Fixed7analyzeEP15encoder_contextR19context_model_tableP6enc_cb
_ZN27Algo_CB_InterPartMode_FixedC1Ev
_ZN27Algo_CB_InterPartMode_FixedD0Ev
_ZN27Algo_CB_InterPartMode_FixedD1Ev
_ZN27Algo_CB_IntraPartMode_Fixed14registerParamsER17config_parameters
_ZN27Algo_CB_IntraPartMode_Fixed6paramsC1Ev
_ZN27Algo_CB_IntraPartMode_Fixed6paramsD1Ev
_ZN27Algo_CB_IntraPartMode_Fixed7analyzeEP15encoder_contextR19context_model_tableP6enc_cb
_ZN27Algo_CB_IntraPartMode_FixedC1Ev
_ZN27Algo_CB_IntraPartMode_FixedD0Ev
_ZN27Algo_CB_IntraPartMode_FixedD1Ev
_ZN27Algo_TB_RateEstimation_None21encode_transform_unitEP15encoder_contextR19context_model_tablePK6enc_tbPK6enc_cbiiiiiii
_ZN27Algo_TB_RateEstimation_NoneC1Ev
_ZN27Algo_TB_RateEstimation_NoneD0Ev
_ZN27Algo_TB_RateEstimation_NoneD1Ev
_ZN27option_TBBitrateEstimMethodC1Ev
_ZN27option_TBBitrateEstimMethodD0Ev
_ZN27option_TBBitrateEstimMethodD1Ev
_ZN27video_usability_information4readEP11error_queueP9bitreaderPK17seq_parameter_set
_ZN27video_usability_informationC1Ev
_ZN27video_usability_informationC2Ev
_ZN28Algo_TB_RateEstimation_Exact21encode_transform_unitEP15encoder_contextR19context_model_tablePK6enc_tbPK6enc_cbiiiiiii
_ZN28Algo_TB_RateEstimation_ExactC1Ev
_ZN28Algo_TB_RateEstimation_ExactD0Ev
_ZN28Algo_TB_RateEstimation_ExactD1Ev
_ZN28CABAC_encoder_estim_constant15write_CABAC_bitEii
_ZN28CABAC_encoder_estim_constantC1Ev
_ZN28CABAC_encoder_estim_constantD0Ev
_ZN28CABAC_encoder_estim_constantD1Ev
_ZN28option_ALGO_CB_IntraPartModeC1Ev
_ZN28option_ALGO_CB_IntraPartModeD0Ev
_ZN28option_ALGO_CB_IntraPartModeD1Ev
_ZN28option_ALGO_TB_IntraPredModeC1Ev
_ZN28option_ALGO_TB_IntraPredModeD0Ev
_ZN28option_ALGO_TB_IntraPredModeD1Ev
_ZN29Algo_CB_IntraInter_BruteForce7analyzeEP15encoder_contextR19context_model_tableP6enc_cb
_ZN29Algo_CB_IntraInter_BruteForceC1Ev
_ZN29Algo_CB_IntraInter_BruteForceD0Ev
_ZN29Algo_CB_IntraInter_BruteForceD1Ev
_ZN29option_ALGO_TB_RateEstimationC1Ev
_ZN29option_ALGO_TB_RateEstimationD0Ev
_ZN29option_ALGO_TB_RateEstimationD1Ev
_ZN29sop_creator_trivial_low_delay21set_SPS_header_valuesEv
_ZN29sop_creator_trivial_low_delay22insert_new_input_imageEP11de265_image
_ZN29sop_creator_trivial_low_delay6params14registerParamsER17config_parameters
_ZN29sop_creator_trivial_low_delay6paramsC1Ev
_ZN29sop_creator_trivial_low_delay6paramsD1Ev
_ZN29sop_creator_trivial_low_delay6paramsaSERKS0_
_ZN29sop_creator_trivial_low_delay9setParamsERKNS_6paramsE
_ZN29sop_creator_trivial_low_delayC1Ev
_ZN29sop_creator_trivial_low_delayC2Ev
_ZN29sop_creator_trivial_low_delayD0Ev
_ZN29sop_creator_trivial_low_delayD1Ev
_ZN31Algo_TB_IntraPredMode_FastBrute14registerParamsER17config_parameters
_ZN31Algo_TB_IntraPredMode_FastBrute6paramsC1Ev
_ZN31Algo_TB_IntraPredMode_FastBrute6paramsD1Ev
_ZN31Algo_TB_IntraPredMode_FastBrute7analyzeEP15encoder_contextR19context_model_tablePK11de265_imageP6enc_tbiii
_ZN31Algo_TB_IntraPredMode_FastBruteC1Ev
_ZN31Algo_TB_IntraPredMode_FastBruteD0Ev
_ZN31Algo_TB_IntraPredMode_FastBruteD1Ev
_ZN32Algo_CB_IntraPartMode_BruteForce7analyzeEP15encoder_contextR19context_model_tableP6enc_cb
_ZN32Algo_CB_IntraPartMode_BruteForceC1Ev
_ZN32Algo_CB_IntraPartMode_BruteForceD0Ev
_ZN32Algo_CB_IntraPartMode_BruteForceD1Ev
_ZN32Algo_TB_IntraPredMode_BruteForce7analyzeEP15encoder_contextR19context_model_tablePK11de265_imageP6enc_tbiii
_ZN32Algo_TB_IntraPredMode_BruteForceC1Ev
_ZN32Algo_TB_IntraPredMode_BruteForceD0Ev
_ZN32Algo_TB_IntraPredMode_BruteForceD1Ev
_ZN32Algo_TB_IntraPredMode_ModeSubset17isPredModeEnabledE13IntraPredMode
_ZN32Algo_TB_IntraPredMode_ModeSubset19enableIntraPredModeE13IntraPredMode
_ZN32Algo_TB_IntraPredMode_ModeSubset23enableAllIntraPredModesEv
_ZN32Algo_TB_IntraPredMode_ModeSubset24disableAllIntraPredModesEv
_ZN32Algo_TB_IntraPredMode_ModeSubset25enableIntraPredModeSubsetE28ALGO_TB_IntraPredMode_Subset
_ZN32Algo_TB_IntraPredMode_ModeSubsetC2Ev
_ZN32Algo_TB_IntraPredMode_ModeSubsetD2Ev
_ZN33Algo_TB_IntraPredMode_MinResidual14registerParamsER17config_parameters
_ZN33Algo_TB_IntraPredMode_MinResidual6paramsC1Ev
_ZN33Algo_TB_IntraPredMode_MinResidual6paramsD1Ev
_ZN33Algo_TB_IntraPredMode_MinResidual7analyzeEP15encoder_contextR19context_model_tablePK11de265_imageP6enc_tbiii
_ZN33Algo_TB_IntraPredMode_MinResidualC1Ev
_ZN33Algo_TB_IntraPredMode_MinResidualD0Ev
_ZN33Algo_TB_IntraPredMode_MinResidualD1Ev
_ZN35option_ALGO_TB_IntraPredMode_SubsetC1Ev
_ZN35option_ALGO_TB_IntraPredMode_SubsetD0Ev
_ZN35option_ALGO_TB_IntraPredMode_SubsetD1Ev
_ZN46option_ALGO_TB_Split_BruteForce_ZeroBlockPruneC1Ev
_ZN46option_ALGO_TB_Split_BruteForce_ZeroBlockPruneD0Ev
_ZN46option_ALGO_TB_Split_BruteForce_ZeroBlockPruneD1Ev
_ZN4Algo4leafEPK8enc_nodePKcz
_ZN4Algo5enterEv
_ZN4Algo6ascendEPK8enc_nodePKcz
_ZN4Algo7descendEPK8enc_nodePKcz
_ZN4AlgoC2Ev
_ZN4AlgoD0Ev
_ZN4AlgoD1Ev
_ZN4AlgoD2Ev
_ZN6enc_cb33set_rqt_root_bf_from_children_cbfEv
_ZN6enc_cb8mMemPoolE DATA
_ZN6enc_cbC1ERKS_
_ZN6enc_cbC1Ev
_ZN6enc_cbC2Ev
_ZN6enc_cbD0Ev
_ZN6enc_cbD1Ev
_ZN6enc_cbD2Ev
_ZN6enc_cbdlEPv
_ZN6enc_cbnwEy
_ZN6enc_tb18alloc_coeff_memoryEii
_ZN6enc_tb27set_cbf_flags_from_childrenEv
_ZN6enc_tb8mMemPoolE DATA
_ZN6enc_tb9getPixelsEiiiRK17seq_parameter_set
_ZN6enc_tbC1ERKS_
_ZN6enc_tbC1EiiiP6enc_cb
_ZN6enc_tbC2EiiiP6enc_cb
_ZN6enc_tbD0Ev
_ZN6enc_tbD1Ev
_ZN6enc_tbD2Ev
_ZN7Algo_CBC2Ev
_ZN7Algo_CBD2Ev
_ZN7Algo_PBC2Ev
_ZN7Algo_PBD2Ev
_ZN7Logging13print_loggingEPK15encoder_contextPKcS4_
_ZN7LoggingC2Ev
_ZN7LoggingD2Ev
_ZN8NAL_unit19insert_skipped_byteEi
_ZN8NAL_unit21remove_stuffing_bytesEv
_ZN8NAL_unit4dataEv
_ZN8NAL_unit5clearEv
_ZN8NAL_unit6appendEPKhi
_ZN8NAL_unit6resizeEi
_ZN8NAL_unit8set_dataEPKhi
_ZN8NAL_unit8set_sizeEi
_ZN8NAL_unitC1Ev
_ZN8NAL_unitC2Ev
_ZN8NAL_unitD1Ev
_ZN8NAL_unitD2Ev
_ZN8enc_nodeC2ERKS_
_ZN8enc_nodeC2Eiii
_ZN8enc_nodeC2Ev
_ZN8enc_nodeD2Ev
_ZN9ImageSinkD2Ev
_ZN9__gnu_cxx13new_allocatorI11ref_pic_setE10deallocateEPS1_y
_ZN9__gnu_cxx13new_allocatorI11ref_pic_setE7destroyIS1_EEvPT_
_ZN9__gnu_cxx13new_allocatorI11ref_pic_setE8allocateEyPKv
_ZN9__gnu_cxx13new_allocatorI11ref_pic_setE9constructIS1_JRKS1_EEEvPT_DpOT0_
_ZN9__gnu_cxx13new_allocatorI11ref_pic_setEC2Ev
_ZN9__gnu_cxx13new_allocatorI11ref_pic_setED2Ev
_ZN9__gnu_cxx13new_allocatorI11sei_messageE10deallocateEPS1_y
_ZN9__gnu_cxx13new_allocatorI11sei_messageE7destroyIS1_EEvPT_
_ZN9__gnu_cxx13new_allocatorI11sei_messageE8allocateEyPKv
_ZN9__gnu_cxx13new_allocatorI11sei_messageE9constructIS1_JRKS1_EEEvPT_DpOT0_
_ZN9__gnu_cxx13new_allocatorI11sei_messageEC2Ev
_ZN9__gnu_cxx13new_allocatorI11sei_messageED2Ev
_ZN9__gnu_cxx13new_allocatorI12CodingOptionI6enc_tbEE10deallocateEPS3_y
_ZN9__gnu_cxx13new_allocatorI12CodingOptionI6enc_tbEE7destroyIS3_EEvPT_
_ZN9__gnu_cxx13new_allocatorI12CodingOptionI6enc_tbEE8allocateEyPKv
_ZN9__gnu_cxx13new_allocatorI12CodingOptionI6enc_tbEE9constructIS3_JRKS3_EEEvPT_DpOT0_
_ZN9__gnu_cxx13new_allocatorI12CodingOptionI6enc_tbEEC2Ev
_ZN9__gnu_cxx13new_allocatorI12CodingOptionI6enc_tbEED2Ev
_ZN9__gnu_cxx13new_allocatorI17pic_parameter_setE7destroyIS1_EEvPT_
_ZN9__gnu_cxx13new_allocatorI17pic_parameter_setE9constructIS1_JEEEvPT_DpOT0_
_ZN9__gnu_cxx13new_allocatorI17pic_parameter_setEC2ERKS2_
_ZN9__gnu_cxx13new_allocatorI17pic_parameter_setEC2Ev
_ZN9__gnu_cxx13new_allocatorI17pic_parameter_setED2Ev
_ZN9__gnu_cxx13new_allocatorI17seq_parameter_setE7destroyIS1_EEvPT_
_ZN9__gnu_cxx13new_allocatorI17seq_parameter_setE9constructIS1_JEEEvPT_DpOT0_
_ZN9__gnu_cxx13new_allocatorI17seq_parameter_setEC2ERKS2_
_ZN9__gnu_cxx13new_allocatorI17seq_parameter_setEC2Ev
_ZN9__gnu_cxx13new_allocatorI17seq_parameter_setED2Ev
_ZN9__gnu_cxx13new_allocatorI18small_image_bufferE7destroyIS1_EEvPT_
_ZN9__gnu_cxx13new_allocatorI18small_image_bufferE9constructIS1_JRiyEEEvPT_DpOT0_
_ZN9__gnu_cxx13new_allocatorI18small_image_bufferEC2ERKS2_
_ZN9__gnu_cxx13new_allocatorI18small_image_bufferEC2Ev
_ZN9__gnu_cxx13new_allocatorI18small_image_bufferED2Ev
_ZN9__gnu_cxx13new_allocatorI19context_model_tableE10deallocateEPS1_y
_ZN9__gnu_cxx13new_allocatorI19context_model_tableE8allocateEyPKv
_ZN9__gnu_cxx13new_allocatorI19context_model_tableEC2Ev
_ZN9__gnu_cxx13new_allocatorI19context_model_tableED2Ev
_ZN9__gnu_cxx13new_allocatorI19video_parameter_setE7destroyIS1_EEvPT_
_ZN9__gnu_cxx13new_allocatorI19video_parameter_setE9constructIS1_JEEEvPT_DpOT0_
_ZN9__gnu_cxx13new_allocatorI19video_parameter_setEC2ERKS2_
_ZN9__gnu_cxx13new_allocatorI19video_parameter_setEC2Ev
_ZN9__gnu_cxx13new_allocatorI19video_parameter_setED2Ev
_ZN9__gnu_cxx13new_allocatorIN13CodingOptionsI6enc_cbE16CodingOptionDataEE10deallocateEPS4_y
_ZN9__gnu_cxx13new_allocatorIN13CodingOptionsI6enc_cbE16CodingOptionDataEE7destroyIS4_EEvPT_
_ZN9__gnu_cxx13new_allocatorIN13CodingOptionsI6enc_cbE16CodingOptionDataEE8allocateEyPKv
_ZN9__gnu_cxx13new_allocatorIN13CodingOptionsI6enc_cbE16CodingOptionDataEE9constructIS4_JS4_EEEvPT_DpOT0_
_ZN9__gnu_cxx13new_allocatorIN13CodingOptionsI6enc_cbE16CodingOptionDataEEC2Ev
_ZN9__gnu_cxx13new_allocatorIN13CodingOptionsI6enc_cbE16CodingOptionDataEED2Ev
_ZN9__gnu_cxx13new_allocatorIN13CodingOptionsI6enc_tbE16CodingOptionDataEE10deallocateEPS4_y
_ZN9__gnu_cxx13new_allocatorIN13CodingOptionsI6enc_tbE16CodingOptionDataEE7destroyIS4_EEvPT_
_ZN9__gnu_cxx13new_allocatorIN13CodingOptionsI6enc_tbE16CodingOptionDataEE8allocateEyPKv
_ZN9__gnu_cxx13new_allocatorIN13CodingOptionsI6enc_tbE16CodingOptionDataEE9constructIS4_JS4_EEEvPT_DpOT0_
_ZN9__gnu_cxx13new_allocatorIN13CodingOptionsI6enc_tbE16CodingOptionDataEEC2Ev
_ZN9__gnu_cxx13new_allocatorIN13CodingOptionsI6enc_tbE16CodingOptionDataEED2Ev
_ZN9__gnu_cxx13new_allocatorINSt7__cxx1112basic_stringIcSt11char_traitsIcESaIcEEEE10deallocateEPS6_y
_ZN9__gnu_cxx13new_allocatorINSt7__cxx1112basic_stringIcSt11char_traitsIcESaIcEEEE7destroyIS6_EEvPT_
_ZN9__gnu_cxx13new_allocatorINSt7__cxx1112basic_stringIcSt11char_traitsIcESaIcEEEE8allocateEyPKv
_ZN9__gnu_cxx13new_allocatorINSt7__cxx1112basic_stringIcSt11char_traitsIcESaIcEEEE9constructIS6_JRKS6_EEEvPT_DpOT0_
_ZN9__gnu_cxx13new_allocatorINSt7__cxx1112basic_stringIcSt11char_traitsIcESaIcEEEE9constructIS6_JS6_EEEvPT_DpOT0_
_ZN9__gnu_cxx13new_allocatorINSt7__cxx1112basic_stringIcSt11char_traitsIcESaIcEEEEC2Ev
_ZN9__gnu_cxx13new_allocatorINSt7__cxx1112basic_stringIcSt11char_traitsIcESaIcEEEED2Ev
_ZN9__gnu_cxx13new_allocatorIP10image_dataE10deallocateEPS2_y
_ZN9__gnu_cxx13new_allocatorIP10image_dataE7destroyIS2_EEvPT_
_ZN9__gnu_cxx13new_allocatorIP10image_dataE8allocateEyPKv
_ZN9__gnu_cxx13new_allocatorIP10image_dataE9constructIS2_JRKS2_EEEvPT_DpOT0_
_ZN9__gnu_cxx13new_allocatorIP10image_dataEC2ERKS3_
_ZN9__gnu_cxx13new_allocatorIP10image_dataEC2Ev
_ZN9__gnu_cxx13new_allocatorIP10image_dataED2Ev
_ZN9__gnu_cxx13new_allocatorIP10image_unitE10deallocateEPS2_y
_ZN9__gnu_cxx13new_allocatorIP10image_unitE7destroyIS2_EEvPT_
_ZN9__gnu_cxx13new_allocatorIP10image_unitE8allocateEyPKv
_ZN9__gnu_cxx13new_allocatorIP10image_unitE9constructIS2_JRKS2_EEEvPT_DpOT0_
_ZN9__gnu_cxx13new_allocatorIP10image_unitEC2Ev
_ZN9__gnu_cxx13new_allocatorIP10image_unitED2Ev
_ZN9__gnu_cxx13new_allocatorIP10slice_unitE10deallocateEPS2_y
_ZN9__gnu_cxx13new_allocatorIP10slice_unitE7destroyIS2_EEvPT_
_ZN9__gnu_cxx13new_allocatorIP10slice_unitE8allocateEyPKv
_ZN9__gnu_cxx13new_allocatorIP10slice_unitE9constructIS2_JRKS2_EEEvPT_DpOT0_
_ZN9__gnu_cxx13new_allocatorIP10slice_unitEC2Ev
_ZN9__gnu_cxx13new_allocatorIP10slice_unitED2Ev
_ZN9__gnu_cxx13new_allocatorIP11de265_imageE10deallocateEPS2_y
_ZN9__gnu_cxx13new_allocatorIP11de265_imageE7destroyIS2_EEvPT_
_ZN9__gnu_cxx13new_allocatorIP11de265_imageE8allocateEyPKv
_ZN9__gnu_cxx13new_allocatorIP11de265_imageE9constructIS2_JRKS2_EEEvPT_DpOT0_
_ZN9__gnu_cxx13new_allocatorIP11de265_imageE9constructIS2_JS2_EEEvPT_DpOT0_
_ZN9__gnu_cxx13new_allocatorIP11de265_imageEC2Ev
_ZN9__gnu_cxx13new_allocatorIP11de265_imageED2Ev
_ZN9__gnu_cxx13new_allocatorIP11option_baseE10deallocateEPS2_y
_ZN9__gnu_cxx13new_allocatorIP11option_baseE7destroyIS2_EEvPT_
_ZN9__gnu_cxx13new_allocatorIP11option_baseE8allocateEyPKv
_ZN9__gnu_cxx13new_allocatorIP11option_baseE9constructIS2_JRKS2_EEEvPT_DpOT0_
_ZN9__gnu_cxx13new_allocatorIP11option_baseEC2Ev
_ZN9__gnu_cxx13new_allocatorIP11option_baseED2Ev
_ZN9__gnu_cxx13new_allocatorIP11thread_taskE10deallocateEPS2_y
_ZN9__gnu_cxx13new_allocatorIP11thread_taskE7destroyIS2_EEvPT_
_ZN9__gnu_cxx13new_allocatorIP11thread_taskE8allocateEyPKv
_ZN9__gnu_cxx13new_allocatorIP11thread_taskE9constructIS2_JRKS2_EEEvPT_DpOT0_
_ZN9__gnu_cxx13new_allocatorIP11thread_taskE9constructIS2_JS2_EEEvPT_DpOT0_
_ZN9__gnu_cxx13new_allocatorIP11thread_taskEC2Ev
_ZN9__gnu_cxx13new_allocatorIP11thread_taskED2Ev
_ZN9__gnu_cxx13new_allocatorIP12en265_packetE10deallocateEPS2_y
_ZN9__gnu_cxx13new_allocatorIP12en265_packetE7destroyIS2_EEvPT_
_ZN9__gnu_cxx13new_allocatorIP12en265_packetE8allocateEyPKv
_ZN9__gnu_cxx13new_allocatorIP12en265_packetE9constructIS2_JRKS2_EEEvPT_DpOT0_
_ZN9__gnu_cxx13new_allocatorIP12en265_packetEC2Ev
_ZN9__gnu_cxx13new_allocatorIP12en265_packetED2Ev
_ZN9__gnu_cxx13new_allocatorIP20slice_segment_headerE10deallocateEPS2_y
_ZN9__gnu_cxx13new_allocatorIP20slice_segment_headerE7destroyIS2_EEvPT_
_ZN9__gnu_cxx13new_allocatorIP20slice_segment_headerE8allocateEyPKv
_ZN9__gnu_cxx13new_allocatorIP20slice_segment_headerE9constructIS2_JRKS2_EEEvPT_DpOT0_
_ZN9__gnu_cxx13new_allocatorIP20slice_segment_headerEC2Ev
_ZN9__gnu_cxx13new_allocatorIP20slice_segment_headerED2Ev
_ZN9__gnu_cxx13new_allocatorIP6enc_cbE10deallocateEPS2_y
_ZN9__gnu_cxx13new_allocatorIP6enc_cbE7destroyIS2_EEvPT_
_ZN9__gnu_cxx13new_allocatorIP6enc_cbE8allocateEyPKv
_ZN9__gnu_cxx13new_allocatorIP6enc_cbE9constructIS2_JRKS2_EEEvPT_DpOT0_
_ZN9__gnu_cxx13new_allocatorIP6enc_cbEC2Ev
_ZN9__gnu_cxx13new_allocatorIP6enc_cbED2Ev
_ZN9__gnu_cxx13new_allocatorIP8NAL_unitE10deallocateEPS2_y
_ZN9__gnu_cxx13new_allocatorIP8NAL_unitE7destroyIS2_EEvPT_
_ZN9__gnu_cxx13new_allocatorIP8NAL_unitE8allocateEyPKv
_ZN9__gnu_cxx13new_allocatorIP8NAL_unitE9constructIS2_JRKS2_EEEvPT_DpOT0_
_ZN9__gnu_cxx13new_allocatorIP8NAL_unitEC2Ev
_ZN9__gnu_cxx13new_allocatorIP8NAL_unitED2Ev
_ZN9__gnu_cxx13new_allocatorIPP10image_dataE10deallocateEPS3_y
_ZN9__gnu_cxx13new_allocatorIPP10image_dataE8allocateEyPKv
_ZN9__gnu_cxx13new_allocatorIPP10image_dataEC2Ev
_ZN9__gnu_cxx13new_allocatorIPP10image_dataED2Ev
_ZN9__gnu_cxx13new_allocatorIPP11de265_imageE10deallocateEPS3_y
_ZN9__gnu_cxx13new_allocatorIPP11de265_imageE8allocateEyPKv
_ZN9__gnu_cxx13new_allocatorIPP11de265_imageEC2Ev
_ZN9__gnu_cxx13new_allocatorIPP11de265_imageED2Ev
_ZN9__gnu_cxx13new_allocatorIPP11thread_taskE10deallocateEPS3_y
_ZN9__gnu_cxx13new_allocatorIPP11thread_taskE8allocateEyPKv
_ZN9__gnu_cxx13new_allocatorIPP11thread_taskEC2Ev
_ZN9__gnu_cxx13new_allocatorIPP11thread_taskED2Ev
_ZN9__gnu_cxx13new_allocatorIPP12en265_packetE10deallocateEPS3_y
_ZN9__gnu_cxx13new_allocatorIPP12en265_packetE8allocateEyPKv
_ZN9__gnu_cxx13new_allocatorIPP12en265_packetEC2Ev
_ZN9__gnu_cxx13new_allocatorIPP12en265_packetED2Ev
_ZN9__gnu_cxx13new_allocatorIPP8NAL_unitE10deallocateEPS3_y
_ZN9__gnu_cxx13new_allocatorIPP8NAL_unitE8allocateEyPKv
_ZN9__gnu_cxx13new_allocatorIPP8NAL_unitEC2Ev
_ZN9__gnu_cxx13new_allocatorIPP8NAL_unitED2Ev
_ZN9__gnu_cxx13new_allocatorIPhE10deallocateEPS1_y
_ZN9__gnu_cxx13new_allocatorIPhE7destroyIS1_EEvPT_
_ZN9__gnu_cxx13new_allocatorIPhE8allocateEyPKv
_ZN9__gnu_cxx13new_allocatorIPhE9constructIS1_JRKS1_EEEvPT_DpOT0_
_ZN9__gnu_cxx13new_allocatorIPhEC2Ev
_ZN9__gnu_cxx13new_allocatorIPhED2Ev
_ZN9__gnu_cxx13new_allocatorIPvE10deallocateEPS1_y
_ZN9__gnu_cxx13new_allocatorIPvE7destroyIS1_EEvPT_
_ZN9__gnu_cxx13new_allocatorIPvE8allocateEyPKv
_ZN9__gnu_cxx13new_allocatorIPvE9constructIS1_JRKS1_EEEvPT_DpOT0_
_ZN9__gnu_cxx13new_allocatorIPvE9constructIS1_JS1_EEEvPT_DpOT0_
_ZN9__gnu_cxx13new_allocatorIPvEC2Ev
_ZN9__gnu_cxx13new_allocatorIPvED2Ev
_ZN9__gnu_cxx13new_allocatorISt23_Sp_counted_ptr_inplaceI17pic_parameter_setSaIS2_ELNS_12_Lock_policyE2EEE10deallocateEPS5_y
_ZN9__gnu_cxx13new_allocatorISt23_Sp_counted_ptr_inplaceI17pic_parameter_setSaIS2_ELNS_12_Lock_policyE2EEE8allocateEyPKv
_ZN9__gnu_cxx13new_allocatorISt23_Sp_counted_ptr_inplaceI17pic_parameter_setSaIS2_ELNS_12_Lock_policyE2EEEC2Ev
_ZN9__gnu_cxx13new_allocatorISt23_Sp_counted_ptr_inplaceI17pic_parameter_setSaIS2_ELNS_12_Lock_policyE2EEED2Ev
_ZN9__gnu_cxx13new_allocatorISt23_Sp_counted_ptr_inplaceI17seq_parameter_setSaIS2_ELNS_12_Lock_policyE2EEE10deallocateEPS5_y
_ZN9__gnu_cxx13new_allocatorISt23_Sp_counted_ptr_inplaceI17seq_parameter_setSaIS2_ELNS_12_Lock_policyE2EEE8allocateEyPKv
_ZN9__gnu_cxx13new_allocatorISt23_Sp_counted_ptr_inplaceI17seq_parameter_setSaIS2_ELNS_12_Lock_policyE2EEEC2Ev
_ZN9__gnu_cxx13new_allocatorISt23_Sp_counted_ptr_inplaceI17seq_parameter_setSaIS2_ELNS_12_Lock_policyE2EEED2Ev
_ZN9__gnu_cxx13new_allocatorISt23_Sp_counted_ptr_inplaceI18small_image_bufferSaIS2_ELNS_12_Lock_policyE2EEE10deallocateEPS5_y
_ZN9__gnu_cxx13new_allocatorISt23_Sp_counted_ptr_inplaceI18small_image_bufferSaIS2_ELNS_12_Lock_policyE2EEE8allocateEyPKv
_ZN9__gnu_cxx13new_allocatorISt23_Sp_counted_ptr_inplaceI18small_image_bufferSaIS2_ELNS_12_Lock_policyE2EEEC2Ev
_ZN9__gnu_cxx13new_allocatorISt23_Sp_counted_ptr_inplaceI18small_image_bufferSaIS2_ELNS_12_Lock_policyE2EEED2Ev
_ZN9__gnu_cxx13new_allocatorISt23_Sp_counted_ptr_inplaceI19video_parameter_setSaIS2_ELNS_12_Lock_policyE2EEE10deallocateEPS5_y
_ZN9__gnu_cxx13new_allocatorISt23_Sp_counted_ptr_inplaceI19video_parameter_setSaIS2_ELNS_12_Lock_policyE2EEE8allocateEyPKv
_ZN9__gnu_cxx13new_allocatorISt23_Sp_counted_ptr_inplaceI19video_parameter_setSaIS2_ELNS_12_Lock_policyE2EEEC2Ev
_ZN9__gnu_cxx13new_allocatorISt23_Sp_counted_ptr_inplaceI19video_parameter_setSaIS2_ELNS_12_Lock_policyE2EEED2Ev
_ZN9__gnu_cxx13new_allocatorISt4pairI13IntraPredModefEE10deallocateEPS3_y
_ZN9__gnu_cxx13new_allocatorISt4pairI13IntraPredModefEE7destroyIS3_EEvPT_
_ZN9__gnu_cxx13new_allocatorISt4pairI13IntraPredModefEE8allocateEyPKv
_ZN9__gnu_cxx13new_allocatorISt4pairI13IntraPredModefEE9constructIS3_JS3_EEEvPT_DpOT0_
_ZN9__gnu_cxx13new_allocatorISt4pairI13IntraPredModefEEC2Ev
_ZN9__gnu_cxx13new_allocatorISt4pairI13IntraPredModefEED2Ev
_ZN9__gnu_cxx13new_allocatorISt4pairINSt7__cxx1112basic_stringIcSt11char_traitsIcESaIcEEE10MVTestModeEE10deallocateEPS9_y
_ZN9__gnu_cxx13new_allocatorISt4pairINSt7__cxx1112basic_stringIcSt11char_traitsIcESaIcEEE10MVTestModeEE7destroyIS9_EEvPT_
_ZN9__gnu_cxx13new_allocatorISt4pairINSt7__cxx1112basic_stringIcSt11char_traitsIcESaIcEEE10MVTestModeEE8allocateEyPKv
_ZN9__gnu_cxx13new_allocatorISt4pairINSt7__cxx1112basic_stringIcSt11char_traitsIcESaIcEEE10MVTestModeEE9constructIS9_JS9_EEEvPT_DpOT0_
_ZN9__gnu_cxx13new_allocatorISt4pairINSt7__cxx1112basic_stringIcSt11char_traitsIcESaIcEEE10MVTestModeEEC2Ev
_ZN9__gnu_cxx13new_allocatorISt4pairINSt7__cxx1112basic_stringIcSt11char_traitsIcESaIcEEE10MVTestModeEED2Ev
_ZN9__gnu_cxx13new_allocatorISt4pairINSt7__cxx1112basic_stringIcSt11char_traitsIcESaIcEEE12MVSearchAlgoEE10deallocateEPS9_y
_ZN9__gnu_cxx13new_allocatorISt4pairINSt7__cxx1112basic_stringIcSt11char_traitsIcESaIcEEE12MVSearchAlgoEE7destroyIS9_EEvPT_
_ZN9__gnu_cxx13new_allocatorISt4pairINSt7__cxx1112basic_stringIcSt11char_traitsIcESaIcEEE12MVSearchAlgoEE8allocateEyPKv
_ZN9__gnu_cxx13new_allocatorISt4pairINSt7__cxx1112basic_stringIcSt11char_traitsIcESaIcEEE12MVSearchAlgoEE9constructIS9_JS9_EEEvPT_DpOT0_
_ZN9__gnu_cxx13new_allocatorISt4pairINSt7__cxx1112basic_stringIcSt11char_traitsIcESaIcEEE12MVSearchAlgoEEC2Ev
_ZN9__gnu_cxx13new_allocatorISt4pairINSt7__cxx1112basic_stringIcSt11char_traitsIcESaIcEEE12MVSearchAlgoEED2Ev
_ZN9__gnu_cxx13new_allocatorISt4pairINSt7__cxx1112basic_stringIcSt11char_traitsIcESaIcEEE13SOP_StructureEE10deallocateEPS9_y
_ZN9__gnu_cxx13new_allocatorISt4pairINSt7__cxx1112basic_stringIcSt11char_traitsIcESaIcEEE13SOP_StructureEE7destroyIS9_EEvPT_
_ZN9__gnu_cxx13new_allocatorISt4pairINSt7__cxx1112basic_stringIcSt11char_traitsIcESaIcEEE13SOP_StructureEE8allocateEyPKv
_ZN9__gnu_cxx13new_allocatorISt4pairINSt7__cxx1112basic_stringIcSt11char_traitsIcESaIcEEE13SOP_StructureEE9constructIS9_JS9_EEEvPT_DpOT0_
_ZN9__gnu_cxx13new_allocatorISt4pairINSt7__cxx1112basic_stringIcSt11char_traitsIcESaIcEEE13SOP_StructureEEC2Ev
_ZN9__gnu_cxx13new_allocatorISt4pairINSt7__cxx1112basic_stringIcSt11char_traitsIcESaIcEEE13SOP_StructureEED2Ev
_ZN9__gnu_cxx13new_allocatorISt4pairINSt7__cxx1112basic_stringIcSt11char_traitsIcESaIcEEE20TBBitrateEstimMethodEE10deallocateEPS9_y
_ZN9__gnu_cxx13new_allocatorISt4pairINSt7__cxx1112basic_stringIcSt11char_traitsIcESaIcEEE20TBBitrateEstimMethodEE7destroyIS9_EEvPT_
_ZN9__gnu_cxx13new_allocatorISt4pairINSt7__cxx1112basic_stringIcSt11char_traitsIcESaIcEEE20TBBitrateEstimMethodEE8allocateEyPKv
_ZN9__gnu_cxx13new_allocatorISt4pairINSt7__cxx1112basic_stringIcSt11char_traitsIcESaIcEEE20TBBitrateEstimMethodEE9constructIS9_JS9_EEEvPT_DpOT0_
_ZN9__gnu_cxx13new_allocatorISt4pairINSt7__cxx1112basic_stringIcSt11char_traitsIcESaIcEEE20TBBitrateEstimMethodEEC2Ev
_ZN9__gnu_cxx13new_allocatorISt4pairINSt7__cxx1112basic_stringIcSt11char_traitsIcESaIcEEE20TBBitrateEstimMethodEED2Ev
_ZN9__gnu_cxx13new_allocatorISt4pairINSt7__cxx1112basic_stringIcSt11char_traitsIcESaIcEEE21ALGO_CB_IntraPartModeEE10deallocateEPS9_y
_ZN9__gnu_cxx13new_allocatorISt4pairINSt7__cxx1112basic_stringIcSt11char_traitsIcESaIcEEE21ALGO_CB_IntraPartModeEE7destroyIS9_EEvPT_
_ZN9__gnu_cxx13new_allocatorISt4pairINSt7__cxx1112basic_stringIcSt11char_traitsIcESaIcEEE21ALGO_CB_IntraPartModeEE8allocateEyPKv
_ZN9__gnu_cxx13new_allocatorISt4pairINSt7__cxx1112basic_stringIcSt11char_traitsIcESaIcEEE21ALGO_CB_IntraPartModeEE9constructIS9_JS9_EEEvPT_DpOT0_
_ZN9__gnu_cxx13new_allocatorISt4pairINSt7__cxx1112basic_stringIcSt11char_traitsIcESaIcEEE21ALGO_CB_IntraPartModeEEC2Ev
_ZN9__gnu_cxx13new_allocatorISt4pairINSt7__cxx1112basic_stringIcSt11char_traitsIcESaIcEEE21ALGO_CB_IntraPartModeEED2Ev
_ZN9__gnu_cxx13new_allocatorISt4pairINSt7__cxx1112basic_stringIcSt11char_traitsIcESaIcEEE21ALGO_TB_IntraPredModeEE10deallocateEPS9_y
_ZN9__gnu_cxx13new_allocatorISt4pairINSt7__cxx1112basic_stringIcSt11char_traitsIcESaIcEEE21ALGO_TB_IntraPredModeEE7destroyIS9_EEvPT_
_ZN9__gnu_cxx13new_allocatorISt4pairINSt7__cxx1112basic_stringIcSt11char_traitsIcESaIcEEE21ALGO_TB_IntraPredModeEE8allocateEyPKv
_ZN9__gnu_cxx13new_allocatorISt4pairINSt7__cxx1112basic_stringIcSt11char_traitsIcESaIcEEE21ALGO_TB_IntraPredModeEE9constructIS9_JS9_EEEvPT_DpOT0_
_ZN9__gnu_cxx13new_allocatorISt4pairINSt7__cxx1112basic_stringIcSt11char_traitsIcESaIcEEE21ALGO_TB_IntraPredModeEEC2Ev
_ZN9__gnu_cxx13new_allocatorISt4pairINSt7__cxx1112basic_stringIcSt11char_traitsIcESaIcEEE21ALGO_TB_IntraPredModeEED2Ev
_ZN9__gnu_cxx13new_allocatorISt4pairINSt7__cxx1112basic_stringIcSt11char_traitsIcESaIcEEE22ALGO_TB_RateEstimationEE10deallocateEPS9_y
_ZN9__gnu_cxx13new_allocatorISt4pairINSt7__cxx1112basic_stringIcSt11char_traitsIcESaIcEEE22ALGO_TB_RateEstimationEE7destroyIS9_EEvPT_
_ZN9__gnu_cxx13new_allocatorISt4pairINSt7__cxx1112basic_stringIcSt11char_traitsIcESaIcEEE22ALGO_TB_RateEstimationEE8allocateEyPKv
_ZN9__gnu_cxx13new_allocatorISt4pairINSt7__cxx1112basic_stringIcSt11char_traitsIcESaIcEEE22ALGO_TB_RateEstimationEE9constructIS9_JS9_EEEvPT_DpOT0_
_ZN9__gnu_cxx13new_allocatorISt4pairINSt7__cxx1112basic_stringIcSt11char_traitsIcESaIcEEE22ALGO_TB_RateEstimationEEC2Ev
_ZN9__gnu_cxx13new_allocatorISt4pairINSt7__cxx1112basic_stringIcSt11char_traitsIcESaIcEEE22ALGO_TB_RateEstimationEED2Ev
_ZN9__gnu_cxx13new_allocatorISt4pairINSt7__cxx1112basic_stringIcSt11char_traitsIcESaIcEEE28ALGO_TB_IntraPredMode_SubsetEE10deallocateEPS9_y
_ZN9__gnu_cxx13new_allocatorISt4pairINSt7__cxx1112basic_stringIcSt11char_traitsIcESaIcEEE28ALGO_TB_IntraPredMode_SubsetEE7destroyIS9_EEvPT_
_ZN9__gnu_cxx13new_allocatorISt4pairINSt7__cxx1112basic_stringIcSt11char_traitsIcESaIcEEE28ALGO_TB_IntraPredMode_SubsetEE8allocateEyPKv
_ZN9__gnu_cxx13new_allocatorISt4pairINSt7__cxx1112basic_stringIcSt11char_traitsIcESaIcEEE28ALGO_TB_IntraPredMode_SubsetEE9constructIS9_JS9_EEEvPT_DpOT0_
_ZN9__gnu_cxx13new_allocatorISt4pairINSt7__cxx1112basic_stringIcSt11char_traitsIcESaIcEEE28ALGO_TB_IntraPredMode_SubsetEEC2Ev
_ZN9__gnu_cxx13new_allocatorISt4pairINSt7__cxx1112basic_stringIcSt11char_traitsIcESaIcEEE28ALGO_TB_IntraPredMode_SubsetEED2Ev
_ZN9__gnu_cxx13new_allocatorISt4pairINSt7__cxx1112basic_stringIcSt11char_traitsIcESaIcEEE39ALGO_TB_Split_BruteForce_ZeroBlockPruneEE10deallocateEPS9_y
_ZN9__gnu_cxx13new_allocatorISt4pairINSt7__cxx1112basic_stringIcSt11char_traitsIcESaIcEEE39ALGO_TB_Split_BruteForce_ZeroBlockPruneEE7destroyIS9_EEvPT_
_ZN9__gnu_cxx13new_allocatorISt4pairINSt7__cxx1112basic_stringIcSt11char_traitsIcESaIcEEE39ALGO_TB_Split_BruteForce_ZeroBlockPruneEE8allocateEyPKv
_ZN9__gnu_cxx13new_allocatorISt4pairINSt7__cxx1112basic_stringIcSt11char_traitsIcESaIcEEE39ALGO_TB_Split_BruteForce_ZeroBlockPruneEE9constructIS9_JS9_EEEvPT_DpOT0_
_ZN9__gnu_cxx13new_allocatorISt4pairINSt7__cxx1112basic_stringIcSt11char_traitsIcESaIcEEE39ALGO_TB_Split_BruteForce_ZeroBlockPruneEEC2Ev
_ZN9__gnu_cxx13new_allocatorISt4pairINSt7__cxx1112basic_stringIcSt11char_traitsIcESaIcEEE39ALGO_TB_Split_BruteForce_ZeroBlockPruneEED2Ev
_ZN9__gnu_cxx13new_allocatorISt4pairINSt7__cxx1112basic_stringIcSt11char_traitsIcESaIcEEE6MEModeEE10deallocateEPS9_y
_ZN9__gnu_cxx13new_allocatorISt4pairINSt7__cxx1112basic_stringIcSt11char_traitsIcESaIcEEE6MEModeEE7destroyIS9_EEvPT_
_ZN9__gnu_cxx13new_allocatorISt4pairINSt7__cxx1112basic_stringIcSt11char_traitsIcESaIcEEE6MEModeEE8allocateEyPKv
_ZN9__gnu_cxx13new_allocatorISt4pairINSt7__cxx1112basic_stringIcSt11char_traitsIcESaIcEEE6MEModeEE9constructIS9_JS9_EEEvPT_DpOT0_
_ZN9__gnu_cxx13new_allocatorISt4pairINSt7__cxx1112basic_stringIcSt11char_traitsIcESaIcEEE6MEModeEEC2Ev
_ZN9__gnu_cxx13new_allocatorISt4pairINSt7__cxx1112basic_stringIcSt11char_traitsIcESaIcEEE6MEModeEED2Ev
_ZN9__gnu_cxx13new_allocatorISt4pairINSt7__cxx1112basic_stringIcSt11char_traitsIcESaIcEEE8PartModeEE10deallocateEPS9_y
_ZN9__gnu_cxx13new_allocatorISt4pairINSt7__cxx1112basic_stringIcSt11char_traitsIcESaIcEEE8PartModeEE7destroyIS9_EEvPT_
_ZN9__gnu_cxx13new_allocatorISt4pairINSt7__cxx1112basic_stringIcSt11char_traitsIcESaIcEEE8PartModeEE8allocateEyPKv
_ZN9__gnu_cxx13new_allocatorISt4pairINSt7__cxx1112basic_stringIcSt11char_traitsIcESaIcEEE8PartModeEE9constructIS9_JS9_EEEvPT_DpOT0_
_ZN9__gnu_cxx13new_allocatorISt4pairINSt7__cxx1112basic_stringIcSt11char_traitsIcESaIcEEE8PartModeEEC2Ev
_ZN9__gnu_cxx13new_allocatorISt4pairINSt7__cxx1112basic_stringIcSt11char_traitsIcESaIcEEE8PartModeEED2Ev
_ZN9__gnu_cxx13new_allocatorISt6vectorIcSaIcEEE10deallocateEPS3_y
_ZN9__gnu_cxx13new_allocatorISt6vectorIcSaIcEEE8allocateEyPKv
_ZN9__gnu_cxx13new_allocatorISt6vectorIcSaIcEEEC2Ev
_ZN9__gnu_cxx13new_allocatorISt6vectorIcSaIcEEED2Ev
_ZN9__gnu_cxx13new_allocatorIcE10deallocateEPcy
_ZN9__gnu_cxx13new_allocatorIcE7destroyIcEEvPT_
_ZN9__gnu_cxx13new_allocatorIcE8allocateEyPKv
_ZN9__gnu_cxx13new_allocatorIcE9constructIcJRKcEEEvPT_DpOT0_
_ZN9__gnu_cxx13new_allocatorIhE10deallocateEPhy
_ZN9__gnu_cxx13new_allocatorIhE8allocateEyPKv
_ZN9__gnu_cxx13new_allocatorIhEC2ERKS1_
_ZN9__gnu_cxx13new_allocatorIhEC2Ev
_ZN9__gnu_cxx13new_allocatorIhED2Ev
_ZN9__gnu_cxx13new_allocatorIiE10deallocateEPiy
_ZN9__gnu_cxx13new_allocatorIiE7destroyIiEEvPT_
_ZN9__gnu_cxx13new_allocatorIiE8allocateEyPKv
_ZN9__gnu_cxx13new_allocatorIiE9constructIiJRKiEEEvPT_DpOT0_
_ZN9__gnu_cxx13new_allocatorIiE9constructIiJiEEEvPT_DpOT0_
_ZN9__gnu_cxx13new_allocatorIiEC2ERKS1_
_ZN9__gnu_cxx13new_allocatorIiEC2Ev
_ZN9__gnu_cxx13new_allocatorIiED2Ev
_ZN9__gnu_cxx13new_allocatorItE10deallocateEPty
_ZN9__gnu_cxx13new_allocatorItE8allocateEyPKv
_ZN9__gnu_cxx13new_allocatorItEC2Ev
_ZN9__gnu_cxx13new_allocatorItED2Ev
_ZN9__gnu_cxx14__alloc_traitsISaIP10image_dataEE15_S_always_equalEv
_ZN9__gnu_cxx14__alloc_traitsISaIP10image_dataEE27_S_propagate_on_copy_assignEv
_ZN9__gnu_cxx14__alloc_traitsISaIiEE15_S_always_equalEv
_ZN9__gnu_cxx14__alloc_traitsISaIiEE27_S_propagate_on_copy_assignEv
_ZN9__gnu_cxx16__aligned_bufferI17pic_parameter_setE6_M_ptrEv
_ZN9__gnu_cxx16__aligned_bufferI17pic_parameter_setE7_M_addrEv
_ZN9__gnu_cxx16__aligned_bufferI17seq_parameter_setE6_M_ptrEv
_ZN9__gnu_cxx16__aligned_bufferI17seq_parameter_setE7_M_addrEv
_ZN9__gnu_cxx16__aligned_bufferI18small_image_bufferE6_M_ptrEv
_ZN9__gnu_cxx16__aligned_bufferI18small_image_bufferE7_M_addrEv
_ZN9__gnu_cxx16__aligned_bufferI19video_parameter_setE6_M_ptrEv
_ZN9__gnu_cxx16__aligned_bufferI19video_parameter_setE7_M_addrEv
_ZN9__gnu_cxx17__normal_iteratorIP11ref_pic_setSt6vectorIS1_SaIS1_EEEC1ERKS2_
_ZN9__gnu_cxx17__normal_iteratorIP11sei_messageSt6vectorIS1_SaIS1_EEEC1ERKS2_
_ZN9__gnu_cxx17__normal_iteratorIP12CodingOptionI6enc_tbESt6vectorIS3_SaIS3_EEEC1ERKS4_
_ZN9__gnu_cxx17__normal_iteratorIPKN13CodingOptionsI6enc_cbE16CodingOptionDataESt6vectorIS4_SaIS4_EEEC1ERKS6_
_ZN9__gnu_cxx17__normal_iteratorIPKN13CodingOptionsI6enc_tbE16CodingOptionDataESt6vectorIS4_SaIS4_EEEC1ERKS6_
_ZN9__gnu_cxx17__normal_iteratorIPKNSt7__cxx1112basic_stringIcSt11char_traitsIcESaIcEEESt6vectorIS6_SaIS6_EEEC1ERKS8_
_ZN9__gnu_cxx17__normal_iteratorIPKNSt7__cxx1112basic_stringIcSt11char_traitsIcESaIcEEESt6vectorIS6_SaIS6_EEEppEv
_ZN9__gnu_cxx17__normal_iteratorIPKP10image_unitSt6vectorIS2_SaIS2_EEEC1ERKS4_
_ZN9__gnu_cxx17__normal_iteratorIPKP10slice_unitSt6vectorIS2_SaIS2_EEEC1ERKS4_
_ZN9__gnu_cxx17__normal_iteratorIPKP11de265_imageSt6vectorIS2_SaIS2_EEEC1ERKS4_
_ZN9__gnu_cxx17__normal_iteratorIPKP11option_baseSt6vectorIS2_SaIS2_EEEC1ERKS4_
_ZN9__gnu_cxx17__normal_iteratorIPKP11option_baseSt6vectorIS2_SaIS2_EEEppEv
_ZN9__gnu_cxx17__normal_iteratorIPKPvSt6vectorIS1_SaIS1_EEEC1ERKS3_
_ZN9__gnu_cxx17__normal_iteratorIPKSt4pairINSt7__cxx1112basic_stringIcSt11char_traitsIcESaIcEEE10MVTestModeESt6vectorIS9_SaIS9_EEEC1ERKSB_
_ZN9__gnu_cxx17__normal_iteratorIPKSt4pairINSt7__cxx1112basic_stringIcSt11char_traitsIcESaIcEEE10MVTestModeESt6vectorIS9_SaIS9_EEEppEv
_ZN9__gnu_cxx17__normal_iteratorIPKSt4pairINSt7__cxx1112basic_stringIcSt11char_traitsIcESaIcEEE12MVSearchAlgoESt6vectorIS9_SaIS9_EEEC1ERKSB_
_ZN9__gnu_cxx17__normal_iteratorIPKSt4pairINSt7__cxx1112basic_stringIcSt11char_traitsIcESaIcEEE12MVSearchAlgoESt6vectorIS9_SaIS9_EEEppEv
_ZN9__gnu_cxx17__normal_iteratorIPKSt4pairINSt7__cxx1112basic_stringIcSt11char_traitsIcESaIcEEE13SOP_StructureESt6vectorIS9_SaIS9_EEEC1ERKSB_
_ZN9__gnu_cxx17__normal_iteratorIPKSt4pairINSt7__cxx1112basic_stringIcSt11char_traitsIcESaIcEEE13SOP_StructureESt6vectorIS9_SaIS9_EEEppEv
_ZN9__gnu_cxx17__normal_iteratorIPKSt4pairINSt7__cxx1112basic_stringIcSt11char_traitsIcESaIcEEE20TBBitrateEstimMethodESt6vectorIS9_SaIS9_EEEC1ERKSB_
_ZN9__gnu_cxx17__normal_iteratorIPKSt4pairINSt7__cxx1112basic_stringIcSt11char_traitsIcESaIcEEE20TBBitrateEstimMethodESt6vectorIS9_SaIS9_EEEppEv
_ZN9__gnu_cxx17__normal_iteratorIPKSt4pairINSt7__cxx1112basic_stringIcSt11char_traitsIcESaIcEEE21ALGO_CB_IntraPartModeESt6vectorIS9_SaIS9_EEEC1ERKSB_
_ZN9__gnu_cxx17__normal_iteratorIPKSt4pairINSt7__cxx1112basic_stringIcSt11char_traitsIcESaIcEEE21ALGO_CB_IntraPartModeESt6vectorIS9_SaIS9_EEEppEv
_ZN9__gnu_cxx17__normal_iteratorIPKSt4pairINSt7__cxx1112basic_stringIcSt11char_traitsIcESaIcEEE21ALGO_TB_IntraPredModeESt6vectorIS9_SaIS9_EEEC1ERKSB_
_ZN9__gnu_cxx17__normal_iteratorIPKSt4pairINSt7__cxx1112basic_stringIcSt11char_traitsIcESaIcEEE21ALGO_TB_IntraPredModeESt6vectorIS9_SaIS9_EEEppEv
_ZN9__gnu_cxx17__normal_iteratorIPKSt4pairINSt7__cxx1112basic_stringIcSt11char_traitsIcESaIcEEE22ALGO_TB_RateEstimationESt6vectorIS9_SaIS9_EEEC1ERKSB_
_ZN9__gnu_cxx17__normal_iteratorIPKSt4pairINSt7__cxx1112basic_stringIcSt11char_traitsIcESaIcEEE22ALGO_TB_RateEstimationESt6vectorIS9_SaIS9_EEEppEv
_ZN9__gnu_cxx17__normal_iteratorIPKSt4pairINSt7__cxx1112basic_stringIcSt11char_traitsIcESaIcEEE28ALGO_TB_IntraPredMode_SubsetESt6vectorIS9_SaIS9_EEEC1ERKSB_
_ZN9__gnu_cxx17__normal_iteratorIPKSt4pairINSt7__cxx1112basic_stringIcSt11char_traitsIcESaIcEEE28ALGO_TB_IntraPredMode_SubsetESt6vectorIS9_SaIS9_EEEppEv
_ZN9__gnu_cxx17__normal_iteratorIPKSt4pairINSt7__cxx1112basic_stringIcSt11char_traitsIcESaIcEEE39ALGO_TB_Split_BruteForce_ZeroBlockPruneESt6vectorIS9_SaIS9_EEEC1ERKSB_
_ZN9__gnu_cxx17__normal_iteratorIPKSt4pairINSt7__cxx1112basic_stringIcSt11char_traitsIcESaIcEEE39ALGO_TB_Split_BruteForce_ZeroBlockPruneESt6vectorIS9_SaIS9_EEEppEv
_ZN9__gnu_cxx17__normal_iteratorIPKSt4pairINSt7__cxx1112basic_stringIcSt11char_traitsIcESaIcEEE6MEModeESt6vectorIS9_SaIS9_EEEC1ERKSB_
_ZN9__gnu_cxx17__normal_iteratorIPKSt4pairINSt7__cxx1112basic_stringIcSt11char_traitsIcESaIcEEE6MEModeESt6vectorIS9_SaIS9_EEEppEv
_ZN9__gnu_cxx17__normal_iteratorIPKSt4pairINSt7__cxx1112basic_stringIcSt11char_traitsIcESaIcEEE8PartModeESt6vectorIS9_SaIS9_EEEC1ERKSB_
_ZN9__gnu_cxx17__normal_iteratorIPKSt4pairINSt7__cxx1112basic_stringIcSt11char_traitsIcESaIcEEE8PartModeESt6vectorIS9_SaIS9_EEEppEv
_ZN9__gnu_cxx17__normal_iteratorIPKiSt6vectorIiSaIiEEEC1ERKS2_
_ZN9__gnu_cxx17__normal_iteratorIPKiSt6vectorIiSaIiEEEppEv
_ZN9__gnu_cxx17__normal_iteratorIPN13CodingOptionsI6enc_cbE16CodingOptionDataESt6vectorIS4_SaIS4_EEEC1ERKS5_
_ZN9__gnu_cxx17__normal_iteratorIPN13CodingOptionsI6enc_cbE16CodingOptionDataESt6vectorIS4_SaIS4_EEEppEv
_ZN9__gnu_cxx17__normal_iteratorIPN13CodingOptionsI6enc_tbE16CodingOptionDataESt6vectorIS4_SaIS4_EEEC1ERKS5_
_ZN9__gnu_cxx17__normal_iteratorIPN13CodingOptionsI6enc_tbE16CodingOptionDataESt6vectorIS4_SaIS4_EEEppEv
_ZN9__gnu_cxx17__normal_iteratorIPNSt7__cxx1112basic_stringIcSt11char_traitsIcESaIcEEESt6vectorIS6_SaIS6_EEEC1ERKS7_
_ZN9__gnu_cxx17__normal_iteratorIPNSt7__cxx1112basic_stringIcSt11char_traitsIcESaIcEEESt6vectorIS6_SaIS6_EEEppEv
_ZN9__gnu_cxx17__normal_iteratorIPP10image_unitSt6vectorIS2_SaIS2_EEEC1ERKS3_
_ZN9__gnu_cxx17__normal_iteratorIPP10slice_unitSt6vectorIS2_SaIS2_EEEC1ERKS3_
_ZN9__gnu_cxx17__normal_iteratorIPP11de265_imageSt6vectorIS2_SaIS2_EEEC1ERKS3_
_ZN9__gnu_cxx17__normal_iteratorIPP11option_baseSt6vectorIS2_SaIS2_EEEC1ERKS3_
_ZN9__gnu_cxx17__normal_iteratorIPP11thread_taskSt6vectorIS2_SaIS2_EEEC1ERKS3_
_ZN9__gnu_cxx17__normal_iteratorIPP20slice_segment_headerSt6vectorIS2_SaIS2_EEEC1ERKS3_
_ZN9__gnu_cxx17__normal_iteratorIPP6enc_cbSt6vectorIS2_SaIS2_EEEC1ERKS3_
_ZN9__gnu_cxx17__normal_iteratorIPP8NAL_unitSt6vectorIS2_SaIS2_EEEC1ERKS3_
_ZN9__gnu_cxx17__normal_iteratorIPPhSt6vectorIS1_SaIS1_EEEC1ERKS2_
_ZN9__gnu_cxx17__normal_iteratorIPPhSt6vectorIS1_SaIS1_EEEppEv
_ZN9__gnu_cxx17__normal_iteratorIPPvSt6vectorIS1_SaIS1_EEEC1ERKS2_
_ZN9__gnu_cxx17__normal_iteratorIPSt4pairI13IntraPredModefESt6vectorIS3_SaIS3_EEEC1ERKS4_
_ZN9__gnu_cxx17__normal_iteratorIPSt4pairI13IntraPredModefESt6vectorIS3_SaIS3_EEEmmEv
_ZN9__gnu_cxx17__normal_iteratorIPSt4pairI13IntraPredModefESt6vectorIS3_SaIS3_EEEppEv
_ZN9__gnu_cxx17__normal_iteratorIPSt4pairINSt7__cxx1112basic_stringIcSt11char_traitsIcESaIcEEE10MVTestModeESt6vectorIS9_SaIS9_EEEC1ERKSA_
_ZN9__gnu_cxx17__normal_iteratorIPSt4pairINSt7__cxx1112basic_stringIcSt11char_traitsIcESaIcEEE10MVTestModeESt6vectorIS9_SaIS9_EEEppEv
_ZN9__gnu_cxx17__normal_iteratorIPSt4pairINSt7__cxx1112basic_stringIcSt11char_traitsIcESaIcEEE12MVSearchAlgoESt6vectorIS9_SaIS9_EEEC1ERKSA_
_ZN9__gnu_cxx17__normal_iteratorIPSt4pairINSt7__cxx1112basic_stringIcSt11char_traitsIcESaIcEEE12MVSearchAlgoESt6vectorIS9_SaIS9_EEEppEv
_ZN9__gnu_cxx17__normal_iteratorIPSt4pairINSt7__cxx1112basic_stringIcSt11char_traitsIcESaIcEEE13SOP_StructureESt6vectorIS9_SaIS9_EEEC1ERKSA_
_ZN9__gnu_cxx17__normal_iteratorIPSt4pairINSt7__cxx1112basic_stringIcSt11char_traitsIcESaIcEEE13SOP_StructureESt6vectorIS9_SaIS9_EEEppEv
_ZN9__gnu_cxx17__normal_iteratorIPSt4pairINSt7__cxx1112basic_stringIcSt11char_traitsIcESaIcEEE20TBBitrateEstimMethodESt6vectorIS9_SaIS9_EEEC1ERKSA_
_ZN9__gnu_cxx17__normal_iteratorIPSt4pairINSt7__cxx1112basic_stringIcSt11char_traitsIcESaIcEEE20TBBitrateEstimMethodESt6vectorIS9_SaIS9_EEEppEv
_ZN9__gnu_cxx17__normal_iteratorIPSt4pairINSt7__cxx1112basic_stringIcSt11char_traitsIcESaIcEEE21ALGO_CB_IntraPartModeESt6vectorIS9_SaIS9_EEEC1ERKSA_
_ZN9__gnu_cxx17__normal_iteratorIPSt4pairINSt7__cxx1112basic_stringIcSt11char_traitsIcESaIcEEE21ALGO_CB_IntraPartModeESt6vectorIS9_SaIS9_EEEppEv
_ZN9__gnu_cxx17__normal_iteratorIPSt4pairINSt7__cxx1112basic_stringIcSt11char_traitsIcESaIcEEE21ALGO_TB_IntraPredModeESt6vectorIS9_SaIS9_EEEC1ERKSA_
_ZN9__gnu_cxx17__normal_iteratorIPSt4pairINSt7__cxx1112basic_stringIcSt11char_traitsIcESaIcEEE21ALGO_TB_IntraPredModeESt6vectorIS9_SaIS9_EEEppEv
_ZN9__gnu_cxx17__normal_iteratorIPSt4pairINSt7__cxx1112basic_stringIcSt11char_traitsIcESaIcEEE22ALGO_TB_RateEstimationESt6vectorIS9_SaIS9_EEEC1ERKSA_
_ZN9__gnu_cxx17__normal_iteratorIPSt4pairINSt7__cxx1112basic_stringIcSt11char_traitsIcESaIcEEE22ALGO_TB_RateEstimationESt6vectorIS9_SaIS9_EEEppEv
_ZN9__gnu_cxx17__normal_iteratorIPSt4pairINSt7__cxx1112basic_stringIcSt11char_traitsIcESaIcEEE28ALGO_TB_IntraPredMode_SubsetESt6vectorIS9_SaIS9_EEEC1ERKSA_
_ZN9__gnu_cxx17__normal_iteratorIPSt4pairINSt7__cxx1112basic_stringIcSt11char_traitsIcESaIcEEE28ALGO_TB_IntraPredMode_SubsetESt6vectorIS9_SaIS9_EEEppEv
_ZN9__gnu_cxx17__normal_iteratorIPSt4pairINSt7__cxx1112basic_stringIcSt11char_traitsIcESaIcEEE39ALGO_TB_Split_BruteForce_ZeroBlockPruneESt6vectorIS9_SaIS9_EEEC1ERKSA_
_ZN9__gnu_cxx17__normal_iteratorIPSt4pairINSt7__cxx1112basic_stringIcSt11char_traitsIcESaIcEEE39ALGO_TB_Split_BruteForce_ZeroBlockPruneESt6vectorIS9_SaIS9_EEEppEv
_ZN9__gnu_cxx17__normal_iteratorIPSt4pairINSt7__cxx1112basic_stringIcSt11char_traitsIcESaIcEEE6MEModeESt6vectorIS9_SaIS9_EEEC1ERKSA_
_ZN9__gnu_cxx17__normal_iteratorIPSt4pairINSt7__cxx1112basic_stringIcSt11char_traitsIcESaIcEEE6MEModeESt6vectorIS9_SaIS9_EEEppEv
_ZN9__gnu_cxx17__normal_iteratorIPSt4pairINSt7__cxx1112basic_stringIcSt11char_traitsIcESaIcEEE8PartModeESt6vectorIS9_SaIS9_EEEC1ERKSA_
_ZN9__gnu_cxx17__normal_iteratorIPSt4pairINSt7__cxx1112basic_stringIcSt11char_traitsIcESaIcEEE8PartModeESt6vectorIS9_SaIS9_EEEppEv
_ZN9__gnu_cxx17__normal_iteratorIPcSt6vectorIcSaIcEEEC1ERKS1_
_ZN9__gnu_cxx17__normal_iteratorIPiSt6vectorIiSaIiEEEC1ERKS1_
_ZN9__gnu_cxx17__normal_iteratorIPiSt6vectorIiSaIiEEEppEv
_ZN9__gnu_cxx5__ops14_Iter_comp_valIPFbSt4pairI13IntraPredModefES4_EEC1EONS0_15_Iter_comp_iterIS6_EE
_ZN9__gnu_cxx5__ops14_Iter_comp_valIPFbSt4pairI13IntraPredModefES4_EEclINS_17__normal_iteratorIPS4_St6vectorIS4_SaIS4_EEEES4_EEbT_RT0_
_ZN9__gnu_cxx5__ops14_Val_comp_iterIPFbSt4pairI13IntraPredModefES4_EEC1EONS0_15_Iter_comp_iterIS6_EE
_ZN9__gnu_cxx5__ops14_Val_comp_iterIPFbSt4pairI13IntraPredModefES4_EEclIS4_NS_17__normal_iteratorIPS4_St6vectorIS4_SaIS4_EEEEEEbRT_T0_
_ZN9__gnu_cxx5__ops15_Iter_comp_iterIPFbSt4pairI13IntraPredModefES4_EEC1ES6_
_ZN9__gnu_cxx5__ops15_Iter_comp_iterIPFbSt4pairI13IntraPredModefES4_EEclINS_17__normal_iteratorIPS4_St6vectorIS4_SaIS4_EEEESE_EEbT_T0_
_ZN9__gnu_cxx5__ops15__val_comp_iterIPFbSt4pairI13IntraPredModefES4_EEENS0_14_Val_comp_iterIT_EENS0_15_Iter_comp_iterIS8_EE
_ZN9__gnu_cxx5__ops16_Iter_equals_valIKiEC1ERS2_
_ZN9__gnu_cxx5__ops16_Iter_equals_valIKiEclINS_17__normal_iteratorIPS2_St6vectorIiSaIiEEEEEEbT_
_ZN9__gnu_cxx5__ops16__iter_comp_iterIPFbSt4pairI13IntraPredModefES4_EEENS0_15_Iter_comp_iterIT_EES8_
_ZN9__gnu_cxx5__ops17__iter_equals_valIKiEENS0_16_Iter_equals_valIT_EERS4_
_ZN9__gnu_cxxeqIPKN13CodingOptionsI6enc_cbE16CodingOptionDataESt6vectorIS4_SaIS4_EEEEbRKNS_17__normal_iteratorIT_T0_EESF_
_ZN9__gnu_cxxeqIPKN13CodingOptionsI6enc_tbE16CodingOptionDataESt6vectorIS4_SaIS4_EEEEbRKNS_17__normal_iteratorIT_T0_EESF_
_ZN9__gnu_cxxeqIPKP10image_unitSt6vectorIS2_SaIS2_EEEEbRKNS_17__normal_iteratorIT_T0_EESD_
_ZN9__gnu_cxxeqIPKP11de265_imageSt6vectorIS2_SaIS2_EEEEbRKNS_17__normal_iteratorIT_T0_EESD_
_ZN9__gnu_cxxeqIPKPvSt6vectorIS1_SaIS1_EEEEbRKNS_17__normal_iteratorIT_T0_EESC_
_ZN9__gnu_cxxeqIPKiSt6vectorIiSaIiEEEEbRKNS_17__normal_iteratorIT_T0_EESB_
_ZN9__gnu_cxxeqIPSt4pairI13IntraPredModefESt6vectorIS3_SaIS3_EEEEbRKNS_17__normal_iteratorIT_T0_EESD_
_ZN9__gnu_cxxltIPSt4pairI13IntraPredModefESt6vectorIS3_SaIS3_EEEEbRKNS_17__normal_iteratorIT_T0_EESD_
_ZN9__gnu_cxxmiIP11ref_pic_setSt6vectorIS1_SaIS1_EEEENS_17__normal_iteratorIT_T0_E15difference_typeERKS9_SC_
_ZN9__gnu_cxxmiIP11sei_messageSt6vectorIS1_SaIS1_EEEENS_17__normal_iteratorIT_T0_E15difference_typeERKS9_SC_
_ZN9__gnu_cxxmiIP12CodingOptionI6enc_tbESt6vectorIS3_SaIS3_EEEENS_17__normal_iteratorIT_T0_E15difference_typeERKSB_SE_
_ZN9__gnu_cxxmiIPKiSt6vectorIiSaIiEEEENS_17__normal_iteratorIT_T0_E15difference_typeERKS9_SC_
_ZN9__gnu_cxxmiIPN13CodingOptionsI6enc_cbE16CodingOptionDataESt6vectorIS4_SaIS4_EEEENS_17__normal_iteratorIT_T0_E15difference_typeERKSC_SF_
_ZN9__gnu_cxxmiIPN13CodingOptionsI6enc_tbE16CodingOptionDataESt6vectorIS4_SaIS4_EEEENS_17__normal_iteratorIT_T0_E15difference_typeERKSC_SF_
_ZN9__gnu_cxxmiIPNSt7__cxx1112basic_stringIcSt11char_traitsIcESaIcEEESt6vectorIS6_SaIS6_EEEENS_17__normal_iteratorIT_T0_E15difference_typeERKSE_SH_
_ZN9__gnu_cxxmiIPP10image_unitSt6vectorIS2_SaIS2_EEEENS_17__normal_iteratorIT_T0_E15difference_typeERKSA_SD_
_ZN9__gnu_cxxmiIPP10slice_unitSt6vectorIS2_SaIS2_EEEENS_17__normal_iteratorIT_T0_E15difference_typeERKSA_SD_
_ZN9__gnu_cxxmiIPP11de265_imageSt6vectorIS2_SaIS2_EEEENS_17__normal_iteratorIT_T0_E15difference_typeERKSA_SD_
_ZN9__gnu_cxxmiIPP11option_baseSt6vectorIS2_SaIS2_EEEENS_17__normal_iteratorIT_T0_E15difference_typeERKSA_SD_
_ZN9__gnu_cxxmiIPP11thread_taskSt6vectorIS2_SaIS2_EEEENS_17__normal_iteratorIT_T0_E15difference_typeERKSA_SD_
_ZN9__gnu_cxxmiIPP20slice_segment_headerSt6vectorIS2_SaIS2_EEEENS_17__normal_iteratorIT_T0_E15difference_typeERKSA_SD_
_ZN9__gnu_cxxmiIPP6enc_cbSt6vectorIS2_SaIS2_EEEENS_17__normal_iteratorIT_T0_E15difference_typeERKSA_SD_
_ZN9__gnu_cxxmiIPP8NAL_unitSt6vectorIS2_SaIS2_EEEENS_17__normal_iteratorIT_T0_E15difference_typeERKSA_SD_
_ZN9__gnu_cxxmiIPPhSt6vectorIS1_SaIS1_EEEENS_17__normal_iteratorIT_T0_E15difference_typeERKS9_SC_
_ZN9__gnu_cxxmiIPPvSt6vectorIS1_SaIS1_EEEENS_17__normal_iteratorIT_T0_E15difference_typeERKS9_SC_
_ZN9__gnu_cxxmiIPSt4pairI13IntraPredModefESt6vectorIS3_SaIS3_EEEENS_17__normal_iteratorIT_T0_E15difference_typeERKSB_SE_
_ZN9__gnu_cxxmiIPSt4pairINSt7__cxx1112basic_stringIcSt11char_traitsIcESaIcEEE10MVTestModeESt6vectorIS9_SaIS9_EEEENS_17__normal_iteratorIT_T0_E15difference_typeERKSH_SK_
_ZN9__gnu_cxxmiIPSt4pairINSt7__cxx1112basic_stringIcSt11char_traitsIcESaIcEEE12MVSearchAlgoESt6vectorIS9_SaIS9_EEEENS_17__normal_iteratorIT_T0_E15difference_typeERKSH_SK_
_ZN9__gnu_cxxmiIPSt4pairINSt7__cxx1112basic_stringIcSt11char_traitsIcESaIcEEE13SOP_StructureESt6vectorIS9_SaIS9_EEEENS_17__normal_iteratorIT_T0_E15difference_typeERKSH_SK_
_ZN9__gnu_cxxmiIPSt4pairINSt7__cxx1112basic_stringIcSt11char_traitsIcESaIcEEE20TBBitrateEstimMethodESt6vectorIS9_SaIS9_EEEENS_17__normal_iteratorIT_T0_E15difference_typeERKSH_SK_
_ZN9__gnu_cxxmiIPSt4pairINSt7__cxx1112basic_stringIcSt11char_traitsIcESaIcEEE21ALGO_CB_IntraPartModeESt6vectorIS9_SaIS9_EEEENS_17__normal_iteratorIT_T0_E15difference_typeERKSH_SK_
_ZN9__gnu_cxxmiIPSt4pairINSt7__cxx1112basic_stringIcSt11char_traitsIcESaIcEEE21ALGO_TB_IntraPredModeESt6vectorIS9_SaIS9_EEEENS_17__normal_iteratorIT_T0_E15difference_typeERKSH_SK_
_ZN9__gnu_cxxmiIPSt4pairINSt7__cxx1112basic_stringIcSt11char_traitsIcESaIcEEE22ALGO_TB_RateEstimationESt6vectorIS9_SaIS9_EEEENS_17__normal_iteratorIT_T0_E15difference_typeERKSH_SK_
_ZN9__gnu_cxxmiIPSt4pairINSt7__cxx1112basic_stringIcSt11char_traitsIcESaIcEEE28ALGO_TB_IntraPredMode_SubsetESt6vectorIS9_SaIS9_EEEENS_17__normal_iteratorIT_T0_E15difference_typeERKSH_SK_
_ZN9__gnu_cxxmiIPSt4pairINSt7__cxx1112basic_stringIcSt11char_traitsIcESaIcEEE39ALGO_TB_Split_BruteForce_ZeroBlockPruneESt6vectorIS9_SaIS9_EEEENS_17__normal_iteratorIT_T0_E15difference_typeERKSH_SK_
_ZN9__gnu_cxxmiIPSt4pairINSt7__cxx1112basic_stringIcSt11char_traitsIcESaIcEEE6MEModeESt6vectorIS9_SaIS9_EEEENS_17__normal_iteratorIT_T0_E15difference_typeERKSH_SK_
_ZN9__gnu_cxxmiIPSt4pairINSt7__cxx1112basic_stringIcSt11char_traitsIcESaIcEEE8PartModeESt6vectorIS9_SaIS9_EEEENS_17__normal_iteratorIT_T0_E15difference_typeERKSH_SK_
_ZN9__gnu_cxxmiIPcSt6vectorIcSaIcEEEENS_17__normal_iteratorIT_T0_E15difference_typeERKS8_SB_
_ZN9__gnu_cxxmiIPiSt6vectorIiSaIiEEEENS_17__normal_iteratorIT_T0_E15difference_typeERKS8_SB_
_ZN9__gnu_cxxneIPKNSt7__cxx1112basic_stringIcSt11char_traitsIcESaIcEEESt6vectorIS6_SaIS6_EEEEbRKNS_17__normal_iteratorIT_T0_EESH_
_ZN9__gnu_cxxneIPKP11option_baseSt6vectorIS2_SaIS2_EEEEbRKNS_17__normal_iteratorIT_T0_EESD_
_ZN9__gnu_cxxneIPKSt4pairINSt7__cxx1112basic_stringIcSt11char_traitsIcESaIcEEE10MVTestModeESt6vectorIS9_SaIS9_EEEEbRKNS_17__normal_iteratorIT_T0_EESK_
_ZN9__gnu_cxxneIPKSt4pairINSt7__cxx1112basic_stringIcSt11char_traitsIcESaIcEEE12MVSearchAlgoESt6vectorIS9_SaIS9_EEEEbRKNS_17__normal_iteratorIT_T0_EESK_
_ZN9__gnu_cxxneIPKSt4pairINSt7__cxx1112basic_stringIcSt11char_traitsIcESaIcEEE13SOP_StructureESt6vectorIS9_SaIS9_EEEEbRKNS_17__normal_iteratorIT_T0_EESK_
_ZN9__gnu_cxxneIPKSt4pairINSt7__cxx1112basic_stringIcSt11char_traitsIcESaIcEEE20TBBitrateEstimMethodESt6vectorIS9_SaIS9_EEEEbRKNS_17__normal_iteratorIT_T0_EESK_
_ZN9__gnu_cxxneIPKSt4pairINSt7__cxx1112basic_stringIcSt11char_traitsIcESaIcEEE21ALGO_CB_IntraPartModeESt6vectorIS9_SaIS9_EEEEbRKNS_17__normal_iteratorIT_T0_EESK_
_ZN9__gnu_cxxneIPKSt4pairINSt7__cxx1112basic_stringIcSt11char_traitsIcESaIcEEE21ALGO_TB_IntraPredModeESt6vectorIS9_SaIS9_EEEEbRKNS_17__normal_iteratorIT_T0_EESK_
_ZN9__gnu_cxxneIPKSt4pairINSt7__cxx1112basic_stringIcSt11char_traitsIcESaIcEEE22ALGO_TB_RateEstimationESt6vectorIS9_SaIS9_EEEEbRKNS_17__normal_iteratorIT_T0_EESK_
_ZN9__gnu_cxxneIPKSt4pairINSt7__cxx1112basic_stringIcSt11char_traitsIcESaIcEEE28ALGO_TB_IntraPredMode_SubsetESt6vectorIS9_SaIS9_EEEEbRKNS_17__normal_iteratorIT_T0_EESK_
_ZN9__gnu_cxxneIPKSt4pairINSt7__cxx1112basic_stringIcSt11char_traitsIcESaIcEEE39ALGO_TB_Split_BruteForce_ZeroBlockPruneESt6vectorIS9_SaIS9_EEEEbRKNS_17__normal_iteratorIT_T0_EESK_
_ZN9__gnu_cxxneIPKSt4pairINSt7__cxx1112basic_stringIcSt11char_traitsIcESaIcEEE6MEModeESt6vectorIS9_SaIS9_EEEEbRKNS_17__normal_iteratorIT_T0_EESK_
_ZN9__gnu_cxxneIPKSt4pairINSt7__cxx1112basic_stringIcSt11char_traitsIcESaIcEEE8PartModeESt6vectorIS9_SaIS9_EEEEbRKNS_17__normal_iteratorIT_T0_EESK_
_ZN9__gnu_cxxneIPKiSt6vectorIiSaIiEEEEbRKNS_17__normal_iteratorIT_T0_EESB_
_ZN9__gnu_cxxneIPN13CodingOptionsI6enc_cbE16CodingOptionDataESt6vectorIS4_SaIS4_EEEEbRKNS_17__normal_iteratorIT_T0_EESE_
_ZN9__gnu_cxxneIPN13CodingOptionsI6enc_tbE16CodingOptionDataESt6vectorIS4_SaIS4_EEEEbRKNS_17__normal_iteratorIT_T0_EESE_
_ZN9__gnu_cxxneIPNSt7__cxx1112basic_stringIcSt11char_traitsIcESaIcEEESt6vectorIS6_SaIS6_EEEEbRKNS_17__normal_iteratorIT_T0_EESG_
_ZN9__gnu_cxxneIPPhSt6vectorIS1_SaIS1_EEEEbRKNS_17__normal_iteratorIT_T0_EESB_
_ZN9__gnu_cxxneIPSt4pairI13IntraPredModefESt6vectorIS3_SaIS3_EEEEbRKNS_17__normal_iteratorIT_T0_EESD_
_ZN9__gnu_cxxneIPSt4pairINSt7__cxx1112basic_stringIcSt11char_traitsIcESaIcEEE10MVTestModeESt6vectorIS9_SaIS9_EEEEbRKNS_17__normal_iteratorIT_T0_EESJ_
_ZN9__gnu_cxxneIPSt4pairINSt7__cxx1112basic_stringIcSt11char_traitsIcESaIcEEE12MVSearchAlgoESt6vectorIS9_SaIS9_EEEEbRKNS_17__normal_iteratorIT_T0_EESJ_
_ZN9__gnu_cxxneIPSt4pairINSt7__cxx1112basic_stringIcSt11char_traitsIcESaIcEEE13SOP_StructureESt6vectorIS9_SaIS9_EEEEbRKNS_17__normal_iteratorIT_T0_EESJ_
_ZN9__gnu_cxxneIPSt4pairINSt7__cxx1112basic_stringIcSt11char_traitsIcESaIcEEE20TBBitrateEstimMethodESt6vectorIS9_SaIS9_EEEEbRKNS_17__normal_iteratorIT_T0_EESJ_
_ZN9__gnu_cxxneIPSt4pairINSt7__cxx1112basic_stringIcSt11char_traitsIcESaIcEEE21ALGO_CB_IntraPartModeESt6vectorIS9_SaIS9_EEEEbRKNS_17__normal_iteratorIT_T0_EESJ_
_ZN9__gnu_cxxneIPSt4pairINSt7__cxx1112basic_stringIcSt11char_traitsIcESaIcEEE21ALGO_TB_IntraPredModeESt6vectorIS9_SaIS9_EEEEbRKNS_17__normal_iteratorIT_T0_EESJ_
_ZN9__gnu_cxxneIPSt4pairINSt7__cxx1112basic_stringIcSt11char_traitsIcESaIcEEE22ALGO_TB_RateEstimationESt6vectorIS9_SaIS9_EEEEbRKNS_17__normal_iteratorIT_T0_EESJ_
_ZN9__gnu_cxxneIPSt4pairINSt7__cxx1112basic_stringIcSt11char_traitsIcESaIcEEE28ALGO_TB_IntraPredMode_SubsetESt6vectorIS9_SaIS9_EEEEbRKNS_17__normal_iteratorIT_T0_EESJ_
_ZN9__gnu_cxxneIPSt4pairINSt7__cxx1112basic_stringIcSt11char_traitsIcESaIcEEE39ALGO_TB_Split_BruteForce_ZeroBlockPruneESt6vectorIS9_SaIS9_EEEEbRKNS_17__normal_iteratorIT_T0_EESJ_
_ZN9__gnu_cxxneIPSt4pairINSt7__cxx1112basic_stringIcSt11char_traitsIcESaIcEEE6MEModeESt6vectorIS9_SaIS9_EEEEbRKNS_17__normal_iteratorIT_T0_EESJ_
_ZN9__gnu_cxxneIPSt4pairINSt7__cxx1112basic_stringIcSt11char_traitsIcESaIcEEE8PartModeESt6vectorIS9_SaIS9_EEEEbRKNS_17__normal_iteratorIT_T0_EESJ_
_ZN9__gnu_cxxneIPiSt6vectorIiSaIiEEEEbRKNS_17__normal_iteratorIT_T0_EESA_
_ZNK10NAL_Parser15is_end_of_frameEv
_ZNK10NAL_Parser16is_end_of_streamEv
_ZNK10NAL_Parser20bytes_in_input_queueEv
_ZNK10NAL_Parser20get_NAL_queue_lengthEv
_ZNK10NAL_Parser27number_of_NAL_units_pendingEv
_ZNK10image_unit22get_next_slice_segmentEP10slice_unit
_ZNK10image_unit22get_prev_slice_segmentEP10slice_unit
_ZNK10image_unit22is_first_slice_segmentEPK10slice_unit
_ZNK10image_unit28all_slice_segments_processedEv
_ZNK10image_unit34get_next_unprocessed_slice_segmentEv
_ZNK10nal_header5writeER13CABAC_encoder
_ZNK10option_int10is_definedEv
_ZNK10option_int11has_defaultEv
_ZNK10option_int12getTypeDescrB5cxx11Ev
_ZNK10option_int18get_default_stringB5cxx11Ev
_ZNK10option_int8is_validEi
_ZNK10option_intclEv
_ZNK10option_intcviEv
_ZNK11EncoderCore16getSlice_QPDeltaEv
_ZNK11de265_image10get_heightEi
_ZNK11de265_image11get_ctDepthEii
_ZNK11de265_image11get_mv_infoEii
_ZNK11de265_image12get_PartModeEii
_ZNK11de265_image12get_deblk_bSEii
_ZNK11de265_image12get_pcm_flagEii
_ZNK11de265_image12get_sao_infoEii
_ZNK11de265_image13get_bit_depthEi
_ZNK11de265_image13get_pred_modeEii
_ZNK11de265_image14get_log2CbSizeEii
_ZNK11de265_image14high_bit_depthEi
_ZNK11de265_image14number_of_ctbsEv
_ZNK11de265_image15available_zscanEiiii
_ZNK11de265_image15can_be_releasedEv
_ZNK11de265_image15get_SliceAddrRSEii
_ZNK11de265_image15get_deblk_flagsEii
_ZNK11de265_image15get_deblk_widthEv
_ZNK11de265_image15get_image_planeEi
_ZNK11de265_image15get_luma_strideEv
_ZNK11de265_image16get_cu_skip_flagEii
_ZNK11de265_image16get_deblk_heightEv
_ZNK11de265_image16get_image_strideEi
_ZNK11de265_image17get_IntraPredModeEii
_ZNK11de265_image17get_chroma_formatEv
_ZNK11de265_image17get_chroma_strideEv
_ZNK11de265_image18available_pred_blkEiiiiiiiiii
_ZNK11de265_image18debug_is_completedEv
_ZNK11de265_image18get_CtbDeblockFlagEii
_ZNK11de265_image18get_IntraPredModeCEii
_ZNK11de265_image18get_SliceHeaderCtbEii
_ZNK11de265_image18num_threads_activeEv
_ZNK11de265_image19get_bytes_per_pixelEi
_ZNK11de265_image20get_SliceHeaderIndexEii
_ZNK11de265_image22get_image_plane_at_posEiii
_ZNK11de265_image22get_log2CbSize_cbUnitsEii
_ZNK11de265_image23get_SliceAddrRS_atCtbRSEi
_ZNK11de265_image23get_SliceHeaderIndexCtbEii
_ZNK11de265_image23get_nonzero_coefficientEii
_ZNK11de265_image23is_IntraPredModeC_Mode4Eii
_ZNK11de265_image24get_cu_transquant_bypassEii
_ZNK11de265_image24get_split_transform_flagEiii
_ZNK11de265_image24is_SliceHeader_availableEii
_ZNK11de265_image25get_IntraPredMode_atIndexEi
_ZNK11de265_image28get_SliceHeaderIndex_atIndexEi
_ZNK11de265_image39get_CTB_has_pcm_or_cu_transquant_bypassEii
_ZNK11de265_image6get_IDEv
_ZNK11de265_image7get_QPYEii
_ZNK11de265_image7get_ppsEv
_ZNK11de265_image7get_spsEv
_ZNK11de265_image7get_vpsEv
_ZNK11de265_image7has_vpsEv
_ZNK11de265_image9get_widthEi
_ZNK11option_base13getLongOptionB5cxx11Ev
_ZNK11option_base13hasLongOptionEv
_ZNK11option_base14getShortOptionEv
_ZNK11option_base14hasShortOptionEv
_ZNK11option_base15get_descriptionB5cxx11Ev
_ZNK11option_base15has_descriptionEv
_ZNK11option_base18get_default_stringB5cxx11Ev
_ZNK11option_base8get_nameB5cxx11Ev
_ZNK11sop_creator29get_number_of_temporal_layersEv
_ZNK11thread_task4nameB5cxx11Ev
_ZNK12Algo_CB_Skip4nameEv
_ZNK12CodingOptionI6enc_cbE14get_cabac_rateEv
_ZNK12CodingOptionI6enc_cbEcvbEv
_ZNK12CodingOptionI6enc_tbE14get_cabac_rateEv
_ZNK12CodingOptionI6enc_tbEcvbEv
_ZNK12profile_data4dumpEbP6_iobuf
_ZNK12profile_data5writeER13CABAC_encoder
_ZNK13Algo_CB_Split4nameEv
_ZNK13CTBTreeMatrix26writeReconstructionToImageEP11de265_imagePK17seq_parameter_set
_ZNK13CTBTreeMatrix5getCBEii
_ZNK13CTBTreeMatrix5getPBEii
_ZNK13CTBTreeMatrix5getTBEii
_ZNK13MetaDataArrayI11CB_ref_infoE3getEii
_ZNK13MetaDataArrayI11CB_ref_infoEixEi
_ZNK13MetaDataArrayI8CTB_infoE3getEii
_ZNK13MetaDataArrayI8CTB_infoE4sizeEv
_ZNK13MetaDataArrayI8CTB_infoEixEi
_ZNK13MetaDataArrayI8PBMotionE3getEii
_ZNK13MetaDataArrayIhE3getEii
_ZNK13MetaDataArrayIhEixEi
_ZNK13PixelAccessor11copyToImageEP11de265_imagei
_ZNK13PixelAccessorixEi
_ZNK13choice_optionI10MVTestModeE10is_definedEv
_ZNK13choice_optionI10MVTestModeE11has_defaultEv
_ZNK13choice_optionI10MVTestModeE16get_choice_namesB5cxx11Ev
_ZNK13choice_optionI10MVTestModeE18get_default_stringB5cxx11Ev
_ZNK13choice_optionI10MVTestModeE5getIDEv
_ZNK13choice_optionI10MVTestModeEclEv
_ZNK13choice_optionI12MVSearchAlgoE10is_definedEv
_ZNK13choice_optionI12MVSearchAlgoE11has_defaultEv
_ZNK13choice_optionI12MVSearchAlgoE16get_choice_namesB5cxx11Ev
_ZNK13choice_optionI12MVSearchAlgoE18get_default_stringB5cxx11Ev
_ZNK13choice_optionI12MVSearchAlgoE5getIDEv
_ZNK13choice_optionI12MVSearchAlgoEclEv
_ZNK13choice_optionI13SOP_StructureE10is_definedEv
_ZNK13choice_optionI13SOP_StructureE11has_defaultEv
_ZNK13choice_optionI13SOP_StructureE16get_choice_namesB5cxx11Ev
_ZNK13choice_optionI13SOP_StructureE18get_default_stringB5cxx11Ev
_ZNK13choice_optionI13SOP_StructureE5getIDEv
_ZNK13choice_optionI13SOP_StructureEclEv
_ZNK13choice_optionI20TBBitrateEstimMethodE10is_definedEv
_ZNK13choice_optionI20TBBitrateEstimMethodE11has_defaultEv
_ZNK13choice_optionI20TBBitrateEstimMethodE16get_choice_namesB5cxx11Ev
_ZNK13choice_optionI20TBBitrateEstimMethodE18get_default_stringB5cxx11Ev
_ZNK13choice_optionI20TBBitrateEstimMethodE5getIDEv
_ZNK13choice_optionI20TBBitrateEstimMethodEclEv
_ZNK13choice_optionI21ALGO_CB_IntraPartModeE10is_definedEv
_ZNK13choice_optionI21ALGO_CB_IntraPartModeE11has_defaultEv
_ZNK13choice_optionI21ALGO_CB_IntraPartModeE16get_choice_namesB5cxx11Ev
_ZNK13choice_optionI21ALGO_CB_IntraPartModeE18get_default_stringB5cxx11Ev
_ZNK13choice_optionI21ALGO_CB_IntraPartModeE5getIDEv
_ZNK13choice_optionI21ALGO_CB_IntraPartModeEclEv
_ZNK13choice_optionI21ALGO_TB_IntraPredModeE10is_definedEv
_ZNK13choice_optionI21ALGO_TB_IntraPredModeE11has_defaultEv
_ZNK13choice_optionI21ALGO_TB_IntraPredModeE16get_choice_namesB5cxx11Ev
_ZNK13choice_optionI21ALGO_TB_IntraPredModeE18get_default_stringB5cxx11Ev
_ZNK13choice_optionI21ALGO_TB_IntraPredModeE5getIDEv
_ZNK13choice_optionI21ALGO_TB_IntraPredModeEclEv
_ZNK13choice_optionI22ALGO_TB_RateEstimationE10is_definedEv
_ZNK13choice_optionI22ALGO_TB_RateEstimationE11has_defaultEv
_ZNK13choice_optionI22ALGO_TB_RateEstimationE16get_choice_namesB5cxx11Ev
_ZNK13choice_optionI22ALGO_TB_RateEstimationE18get_default_stringB5cxx11Ev
_ZNK13choice_optionI22ALGO_TB_RateEstimationE5getIDEv
_ZNK13choice_optionI22ALGO_TB_RateEstimationEclEv
_ZNK13choice_optionI28ALGO_TB_IntraPredMode_SubsetE10is_definedEv
_ZNK13choice_optionI28ALGO_TB_IntraPredMode_SubsetE11has_defaultEv
_ZNK13choice_optionI28ALGO_TB_IntraPredMode_SubsetE16get_choice_namesB5cxx11Ev
_ZNK13choice_optionI28ALGO_TB_IntraPredMode_SubsetE18get_default_stringB5cxx11Ev
_ZNK13choice_optionI28ALGO_TB_IntraPredMode_SubsetE5getIDEv
_ZNK13choice_optionI28ALGO_TB_IntraPredMode_SubsetEclEv
_ZNK13choice_optionI39ALGO_TB_Split_BruteForce_ZeroBlockPruneE10is_definedEv
_ZNK13choice_optionI39ALGO_TB_Split_BruteForce_ZeroBlockPruneE11has_defaultEv
_ZNK13choice_optionI39ALGO_TB_Split_BruteForce_ZeroBlockPruneE16get_choice_namesB5cxx11Ev
_ZNK13choice_optionI39ALGO_TB_Split_BruteForce_ZeroBlockPruneE18get_default_stringB5cxx11Ev
_ZNK13choice_optionI39ALGO_TB_Split_BruteForce_ZeroBlockPruneE5getIDEv
_ZNK13choice_optionI39ALGO_TB_Split_BruteForce_ZeroBlockPruneEclEv
_ZNK13choice_optionI6MEModeE10is_definedEv
_ZNK13choice_optionI6MEModeE11has_defaultEv
_ZNK13choice_optionI6MEModeE16get_choice_namesB5cxx11Ev
_ZNK13choice_optionI6MEModeE18get_default_stringB5cxx11Ev
_ZNK13choice_optionI6MEModeE5getIDEv
_ZNK13choice_optionI6MEModeEclEv
_ZNK13choice_optionI8PartModeE10is_definedEv
_ZNK13choice_optionI8PartModeE11has_defaultEv
_ZNK13choice_optionI8PartModeE16get_choice_namesB5cxx11Ev
_ZNK13choice_optionI8PartModeE18get_default_stringB5cxx11Ev
_ZNK13choice_optionI8PartModeE5getIDEv
_ZNK13choice_optionI8PartModeEclEv
_ZNK13context_modeleqES_
_ZNK13option_string10is_definedEv
_ZNK13option_string11has_defaultEv
_ZNK13option_string12getTypeDescrB5cxx11Ev
_ZNK13option_string18get_default_stringB5cxx11Ev
_ZNK15ImageSource_YUV10get_heightEv
_ZNK15ImageSource_YUV9get_widthEv
_ZNK15decoder_context14get_RapPicFlagEv
_ZNK15decoder_context15get_current_TIDEv
_ZNK15decoder_context15get_highest_TIDEv
_ZNK15decoder_context17get_nal_unit_typeEv
_ZNK15decoder_context22get_num_worker_threadsEv
_ZNK15decoder_context28num_pictures_in_output_queueEv
_ZNK15decoder_context7get_ppsEi
_ZNK15decoder_context7get_spsEi
_ZNK15decoder_context7has_ppsEi
_ZNK15decoder_context7has_spsEi
_ZNK15decoder_context9get_imageEi
_ZNK15decoder_context9has_imageEi
_ZNK15encoder_context9get_imageEi
_ZNK15encoder_context9has_imageEi
_ZNK15thread_task_sao4nameB5cxx11Ev
_ZNK16Algo_TB_Residual4nameEv
_ZNK16Logging_TB_Split4nameEv
_ZNK17Algo_TB_Transform4nameEv
_ZNK17config_parameters11find_optionEPKc
_ZNK17config_parameters12print_paramsEv
_ZNK17config_parameters17get_parameter_IDsB5cxx11Ev
_ZNK17config_parameters18get_parameter_typeEPKc
_ZNK17config_parameters21get_parameter_choicesB5cxx11EPKc
_ZNK17config_parameters26get_parameter_string_tableEv
_ZNK17config_parameters27get_parameter_choices_tableEPKc
_ZNK17pic_order_counter16get_frame_numberEv
_ZNK17pic_order_counter19get_pic_order_countEv
_ZNK17pic_order_counter20get_num_poc_lsb_bitsEv
_ZNK17pic_order_counter23get_pic_order_count_lsbEv
_ZNK17pic_parameter_set17is_tile_start_CTBEii
_ZNK17pic_parameter_set4dumpEi
_ZNK17seq_parameter_set13get_bit_depthEi
_ZNK17seq_parameter_set18get_chroma_shift_HEi
_ZNK17seq_parameter_set18get_chroma_shift_WEi
_ZNK17seq_parameter_set27num_short_term_ref_pic_setsEv
_ZNK17seq_parameter_set4dumpEi
_ZNK18Algo_CB_IntraInter4nameEv
_ZNK18Algo_CB_MergeIndex4nameEv
_ZNK18EncoderCore_Custom9getPPS_QPEv
_ZNK18choice_option_base12getTypeDescrB5cxx11Ev
_ZNK18choice_option_base24get_choices_string_tableEv
_ZNK18profile_tier_level4dumpEiP6_iobuf
_ZNK18profile_tier_level5writeER13CABAC_encoderi
_ZNK18small_image_buffer10get_bufferIhEEPT_v
_ZNK18small_image_buffer13get_buffer_u8Ev
_ZNK18small_image_buffer14get_buffer_s16Ev
_ZNK18small_image_buffer7copy_toERS_
_ZNK18small_image_buffer8getWidthEv
_ZNK18small_image_buffer9getHeightEv
_ZNK18small_image_buffer9getStrideEv
_ZNK19CABAC_encoder_estim16modifies_contextEv
_ZNK19CABAC_encoder_estim24number_free_bits_in_byteEv
_ZNK19CABAC_encoder_estim4sizeEv
_ZNK19CABAC_encoder_estim9getRDBitsEv
_ZNK19context_model_table10debug_dumpB5cxx11Ev
_ZNK19context_model_table4copyEv
_ZNK19context_model_table5emptyEv
_ZNK19context_model_tableeqERKS_
_ZNK19de265_progress_lock12get_progressEv
_ZNK19pps_range_extension4dumpEi
_ZNK19sps_range_extension4dumpEi
_ZNK19thread_task_ctb_row4nameB5cxx11Ev
_ZNK19video_parameter_set4dumpEi
_ZNK19video_parameter_set5writeEP11error_queueR13CABAC_encoder
_ZNK20slice_segment_header25dump_slice_segment_headerEPK15decoder_contexti
_ZNK21Algo_CB_InterPartMode4nameEv
_ZNK21Algo_CB_IntraPartMode4nameEv
_ZNK21Algo_TB_IntraPredMode4nameEv
_ZNK22Algo_TB_RateEstimation4nameEv
_ZNK22acceleration_functions12add_residualIhEEvPT_xPKiii
_ZNK22acceleration_functions12add_residualItEEvPT_xPKiii
_ZNK22acceleration_functions13put_hevc_epelEPsxPKvxiiiiS0_i
_ZNK22acceleration_functions13put_hevc_qpelEPsxPKvxiiS0_iii
_ZNK22acceleration_functions13transform_addIhEEviPT_PKsxi
_ZNK22acceleration_functions13transform_addItEEviPT_PKsxi
_ZNK22acceleration_functions15put_hevc_epel_hEPsxPKvxiiiiS0_i
_ZNK22acceleration_functions15put_hevc_epel_vEPsxPKvxiiiiS0_i
_ZNK22acceleration_functions16put_hevc_epel_hvEPsxPKvxiiiiS0_i
_ZNK22acceleration_functions17put_weighted_predEPvxPKsxiiiiii
_ZNK22acceleration_functions19put_unweighted_predEPvxPKsxiii
_ZNK22acceleration_functions19put_weighted_bipredEPvxPKsS2_xiiiiiiii
_ZNK22acceleration_functions21put_weighted_pred_avgEPvxPKsS2_xiii
_ZNK22acceleration_functions21transform_4x4_dst_addIhEEvPT_PKsxi
_ZNK22acceleration_functions21transform_4x4_dst_addItEEvPT_PKsxi
_ZNK22decoded_picture_buffer14log_dpb_queuesEv
_ZNK22decoded_picture_buffer15log_dpb_contentEv
_ZNK22decoded_picture_buffer20has_free_dpb_pictureEb
_ZNK22decoded_picture_buffer28DPB_index_of_picture_with_IDEi
_ZNK22decoded_picture_buffer28num_pictures_in_output_queueEv
_ZNK22decoded_picture_buffer29DPB_index_of_picture_with_LSBEiib
_ZNK22decoded_picture_buffer29DPB_index_of_picture_with_POCEiib
_ZNK22decoded_picture_buffer30num_pictures_in_reorder_bufferEv
_ZNK22decoded_picture_buffer32get_next_picture_in_output_queueEv
_ZNK22decoded_picture_buffer4sizeEv
_ZNK22decoded_picture_buffer9get_imageEi
_ZNK22encoder_picture_buffer11get_pictureEi
_ZNK22encoder_picture_buffer11has_pictureEi
_ZNK22encoder_picture_buffer26have_more_frames_to_encodeEv
_ZNK22encoder_picture_buffer27peek_next_picture_to_encodeEv
_ZNK23Algo_CB_Skip_BruteForce4nameEv
_ZNK23CABAC_encoder_bitstream16modifies_contextEv
_ZNK23CABAC_encoder_bitstream24number_free_bits_in_byteEv
_ZNK23CABAC_encoder_bitstream4dataEv
_ZNK23CABAC_encoder_bitstream4sizeEv
_ZNK24Algo_CB_Split_BruteForce4nameEv
_ZNK24Algo_CTB_QScale_Constant4nameEv
_ZNK24Algo_CTB_QScale_Constant5getQPEv
_ZNK24Algo_TB_Split_BruteForce4nameEv
_ZNK25thread_task_slice_segment4nameB5cxx11Ev
_ZNK26thread_task_deblock_CTBRow4nameB5cxx11Ev
_ZNK27Algo_CB_InterPartMode_Fixed4nameEv
_ZNK27Algo_CB_IntraPartMode_Fixed4nameEv
_ZNK27Algo_TB_RateEstimation_None4nameEv
_ZNK27video_usability_information4dumpEi
_ZNK28Algo_TB_RateEstimation_Exact4nameEv
_ZNK28CABAC_encoder_estim_constant16modifies_contextEv
_ZNK29sop_creator_trivial_low_delay7isIntraEi
_ZNK31Algo_TB_IntraPredMode_FastBrute4nameEv
_ZNK32Algo_CB_IntraPartMode_BruteForce4nameEv
_ZNK32Algo_TB_IntraPredMode_BruteForce4nameEv
_ZNK32Algo_TB_IntraPredMode_ModeSubset11getPredModeEi
_ZNK32Algo_TB_IntraPredMode_ModeSubset17nPredModesEnabledEv
_ZNK33Algo_TB_IntraPredMode_MinResidual4nameEv
_ZNK4Algo4nameEv
_ZNK6enc_cb11reconstructEP15encoder_contextP11de265_image
_ZNK6enc_cb14debug_dumpTreeEii
_ZNK6enc_cb26writeReconstructionToImageEP11de265_imagePK17seq_parameter_set
_ZNK6enc_cb5getTBEii
_ZNK6enc_tb11isZeroBlockEv
_ZNK6enc_tb11reconstructEP15encoder_contextP11de265_image
_ZNK6enc_tb14debug_dumpTreeEii
_ZNK6enc_tb14reconstruct_tbEP15encoder_contextP11de265_imageiiii
_ZNK6enc_tb16debug_writeBlackEP15encoder_contextP11de265_image
_ZNK6enc_tb26writeReconstructionToImageEP11de265_imagePK17seq_parameter_set
_ZNK6enc_tb5getTBEii
_ZNK8NAL_unit17num_skipped_bytesEv
_ZNK8NAL_unit24num_skipped_bytes_beforeEii
_ZNK8NAL_unit4sizeEv
_ZNK8PBMotioneqERKS_
_ZNK9__gnu_cxx13new_allocatorI11ref_pic_setE8max_sizeEv
_ZNK9__gnu_cxx13new_allocatorI11sei_messageE8max_sizeEv
_ZNK9__gnu_cxx13new_allocatorI12CodingOptionI6enc_tbEE8max_sizeEv
_ZNK9__gnu_cxx13new_allocatorI19context_model_tableE8max_sizeEv
_ZNK9__gnu_cxx13new_allocatorIN13CodingOptionsI6enc_cbE16CodingOptionDataEE8max_sizeEv
_ZNK9__gnu_cxx13new_allocatorIN13CodingOptionsI6enc_tbE16CodingOptionDataEE8max_sizeEv
_ZNK9__gnu_cxx13new_allocatorINSt7__cxx1112basic_stringIcSt11char_traitsIcESaIcEEEE8max_sizeEv
_ZNK9__gnu_cxx13new_allocatorIP10image_dataE8max_sizeEv
_ZNK9__gnu_cxx13new_allocatorIP10image_unitE8max_sizeEv
_ZNK9__gnu_cxx13new_allocatorIP10slice_unitE8max_sizeEv
_ZNK9__gnu_cxx13new_allocatorIP11de265_imageE8max_sizeEv
_ZNK9__gnu_cxx13new_allocatorIP11option_baseE8max_sizeEv
_ZNK9__gnu_cxx13new_allocatorIP11thread_taskE8max_sizeEv
_ZNK9__gnu_cxx13new_allocatorIP12en265_packetE8max_sizeEv
_ZNK9__gnu_cxx13new_allocatorIP20slice_segment_headerE8max_sizeEv
_ZNK9__gnu_cxx13new_allocatorIP6enc_cbE8max_sizeEv
_ZNK9__gnu_cxx13new_allocatorIP8NAL_unitE8max_sizeEv
_ZNK9__gnu_cxx13new_allocatorIPP10image_dataE8max_sizeEv
_ZNK9__gnu_cxx13new_allocatorIPP11de265_imageE8max_sizeEv
_ZNK9__gnu_cxx13new_allocatorIPP11thread_taskE8max_sizeEv
_ZNK9__gnu_cxx13new_allocatorIPP12en265_packetE8max_sizeEv
_ZNK9__gnu_cxx13new_allocatorIPP8NAL_unitE8max_sizeEv
_ZNK9__gnu_cxx13new_allocatorIPhE8max_sizeEv
_ZNK9__gnu_cxx13new_allocatorIPvE8max_sizeEv
_ZNK9__gnu_cxx13new_allocatorISt23_Sp_counted_ptr_inplaceI17pic_parameter_setSaIS2_ELNS_12_Lock_policyE2EEE8max_sizeEv
_ZNK9__gnu_cxx13new_allocatorISt23_Sp_counted_ptr_inplaceI17seq_parameter_setSaIS2_ELNS_12_Lock_policyE2EEE8max_sizeEv
_ZNK9__gnu_cxx13new_allocatorISt23_Sp_counted_ptr_inplaceI18small_image_bufferSaIS2_ELNS_12_Lock_policyE2EEE8max_sizeEv
_ZNK9__gnu_cxx13new_allocatorISt23_Sp_counted_ptr_inplaceI19video_parameter_setSaIS2_ELNS_12_Lock_policyE2EEE8max_sizeEv
_ZNK9__gnu_cxx13new_allocatorISt4pairI13IntraPredModefEE8max_sizeEv
_ZNK9__gnu_cxx13new_allocatorISt4pairINSt7__cxx1112basic_stringIcSt11char_traitsIcESaIcEEE10MVTestModeEE8max_sizeEv
_ZNK9__gnu_cxx13new_allocatorISt4pairINSt7__cxx1112basic_stringIcSt11char_traitsIcESaIcEEE12MVSearchAlgoEE8max_sizeEv
_ZNK9__gnu_cxx13new_allocatorISt4pairINSt7__cxx1112basic_stringIcSt11char_traitsIcESaIcEEE13SOP_StructureEE8max_sizeEv
_ZNK9__gnu_cxx13new_allocatorISt4pairINSt7__cxx1112basic_stringIcSt11char_traitsIcESaIcEEE20TBBitrateEstimMethodEE8max_sizeEv
_ZNK9__gnu_cxx13new_allocatorISt4pairINSt7__cxx1112basic_stringIcSt11char_traitsIcESaIcEEE21ALGO_CB_IntraPartModeEE8max_sizeEv
_ZNK9__gnu_cxx13new_allocatorISt4pairINSt7__cxx1112basic_stringIcSt11char_traitsIcESaIcEEE21ALGO_TB_IntraPredModeEE8max_sizeEv
_ZNK9__gnu_cxx13new_allocatorISt4pairINSt7__cxx1112basic_stringIcSt11char_traitsIcESaIcEEE22ALGO_TB_RateEstimationEE8max_sizeEv
_ZNK9__gnu_cxx13new_allocatorISt4pairINSt7__cxx1112basic_stringIcSt11char_traitsIcESaIcEEE28ALGO_TB_IntraPredMode_SubsetEE8max_sizeEv
_ZNK9__gnu_cxx13new_allocatorISt4pairINSt7__cxx1112basic_stringIcSt11char_traitsIcESaIcEEE39ALGO_TB_Split_BruteForce_ZeroBlockPruneEE8max_sizeEv
_ZNK9__gnu_cxx13new_allocatorISt4pairINSt7__cxx1112basic_stringIcSt11char_traitsIcESaIcEEE6MEModeEE8max_sizeEv
_ZNK9__gnu_cxx13new_allocatorISt4pairINSt7__cxx1112basic_stringIcSt11char_traitsIcESaIcEEE8PartModeEE8max_sizeEv
_ZNK9__gnu_cxx13new_allocatorISt6vectorIcSaIcEEE8max_sizeEv
_ZNK9__gnu_cxx13new_allocatorIcE8max_sizeEv
_ZNK9__gnu_cxx13new_allocatorIhE8max_sizeEv
_ZNK9__gnu_cxx13new_allocatorIiE8max_sizeEv
_ZNK9__gnu_cxx13new_allocatorItE8max_sizeEv
_ZNK9__gnu_cxx17__normal_iteratorIP11ref_pic_setSt6vectorIS1_SaIS1_EEE4baseEv
_ZNK9__gnu_cxx17__normal_iteratorIP11sei_messageSt6vectorIS1_SaIS1_EEE4baseEv
_ZNK9__gnu_cxx17__normal_iteratorIP12CodingOptionI6enc_tbESt6vectorIS3_SaIS3_EEE4baseEv
_ZNK9__gnu_cxx17__normal_iteratorIPKN13CodingOptionsI6enc_cbE16CodingOptionDataESt6vectorIS4_SaIS4_EEE4baseEv
_ZNK9__gnu_cxx17__normal_iteratorIPKN13CodingOptionsI6enc_tbE16CodingOptionDataESt6vectorIS4_SaIS4_EEE4baseEv
_ZNK9__gnu_cxx17__normal_iteratorIPKNSt7__cxx1112basic_stringIcSt11char_traitsIcESaIcEEESt6vectorIS6_SaIS6_EEE4baseEv
_ZNK9__gnu_cxx17__normal_iteratorIPKNSt7__cxx1112basic_stringIcSt11char_traitsIcESaIcEEESt6vectorIS6_SaIS6_EEEdeEv
_ZNK9__gnu_cxx17__normal_iteratorIPKP10image_unitSt6vectorIS2_SaIS2_EEE4baseEv
_ZNK9__gnu_cxx17__normal_iteratorIPKP10slice_unitSt6vectorIS2_SaIS2_EEEdeEv
_ZNK9__gnu_cxx17__normal_iteratorIPKP10slice_unitSt6vectorIS2_SaIS2_EEEmiEx
_ZNK9__gnu_cxx17__normal_iteratorIPKP11de265_imageSt6vectorIS2_SaIS2_EEE4baseEv
_ZNK9__gnu_cxx17__normal_iteratorIPKP11option_baseSt6vectorIS2_SaIS2_EEE4baseEv
_ZNK9__gnu_cxx17__normal_iteratorIPKP11option_baseSt6vectorIS2_SaIS2_EEEdeEv
_ZNK9__gnu_cxx17__normal_iteratorIPKPvSt6vectorIS1_SaIS1_EEE4baseEv
_ZNK9__gnu_cxx17__normal_iteratorIPKSt4pairINSt7__cxx1112basic_stringIcSt11char_traitsIcESaIcEEE10MVTestModeESt6vectorIS9_SaIS9_EEE4baseEv
_ZNK9__gnu_cxx17__normal_iteratorIPKSt4pairINSt7__cxx1112basic_stringIcSt11char_traitsIcESaIcEEE10MVTestModeESt6vectorIS9_SaIS9_EEEdeEv
_ZNK9__gnu_cxx17__normal_iteratorIPKSt4pairINSt7__cxx1112basic_stringIcSt11char_traitsIcESaIcEEE12MVSearchAlgoESt6vectorIS9_SaIS9_EEE4baseEv
_ZNK9__gnu_cxx17__normal_iteratorIPKSt4pairINSt7__cxx1112basic_stringIcSt11char_traitsIcESaIcEEE12MVSearchAlgoESt6vectorIS9_SaIS9_EEEdeEv
_ZNK9__gnu_cxx17__normal_iteratorIPKSt4pairINSt7__cxx1112basic_stringIcSt11char_traitsIcESaIcEEE13SOP_StructureESt6vectorIS9_SaIS9_EEE4baseEv
_ZNK9__gnu_cxx17__normal_iteratorIPKSt4pairINSt7__cxx1112basic_stringIcSt11char_traitsIcESaIcEEE13SOP_StructureESt6vectorIS9_SaIS9_EEEdeEv
_ZNK9__gnu_cxx17__normal_iteratorIPKSt4pairINSt7__cxx1112basic_stringIcSt11char_traitsIcESaIcEEE20TBBitrateEstimMethodESt6vectorIS9_SaIS9_EEE4baseEv
_ZNK9__gnu_cxx17__normal_iteratorIPKSt4pairINSt7__cxx1112basic_stringIcSt11char_traitsIcESaIcEEE20TBBitrateEstimMethodESt6vectorIS9_SaIS9_EEEdeEv
_ZNK9__gnu_cxx17__normal_iteratorIPKSt4pairINSt7__cxx1112basic_stringIcSt11char_traitsIcESaIcEEE21ALGO_CB_IntraPartModeESt6vectorIS9_SaIS9_EEE4baseEv
_ZNK9__gnu_cxx17__normal_iteratorIPKSt4pairINSt7__cxx1112basic_stringIcSt11char_traitsIcESaIcEEE21ALGO_CB_IntraPartModeESt6vectorIS9_SaIS9_EEEdeEv
_ZNK9__gnu_cxx17__normal_iteratorIPKSt4pairINSt7__cxx1112basic_stringIcSt11char_traitsIcESaIcEEE21ALGO_TB_IntraPredModeESt6vectorIS9_SaIS9_EEE4baseEv
_ZNK9__gnu_cxx17__normal_iteratorIPKSt4pairINSt7__cxx1112basic_stringIcSt11char_traitsIcESaIcEEE21ALGO_TB_IntraPredModeESt6vectorIS9_SaIS9_EEEdeEv
_ZNK9__gnu_cxx17__normal_iteratorIPKSt4pairINSt7__cxx1112basic_stringIcSt11char_traitsIcESaIcEEE22ALGO_TB_RateEstimationESt6vectorIS9_SaIS9_EEE4baseEv
_ZNK9__gnu_cxx17__normal_iteratorIPKSt4pairINSt7__cxx1112basic_stringIcSt11char_traitsIcESaIcEEE22ALGO_TB_RateEstimationESt6vectorIS9_SaIS9_EEEdeEv
_ZNK9__gnu_cxx17__normal_iteratorIPKSt4pairINSt7__cxx1112basic_stringIcSt11char_traitsIcESaIcEEE28ALGO_TB_IntraPredMode_SubsetESt6vectorIS9_SaIS9_EEE4baseEv
_ZNK9__gnu_cxx17__normal_iteratorIPKSt4pairINSt7__cxx1112basic_stringIcSt11char_traitsIcESaIcEEE28ALGO_TB_IntraPredMode_SubsetESt6vectorIS9_SaIS9_EEEdeEv
_ZNK9__gnu_cxx17__normal_iteratorIPKSt4pairINSt7__cxx1112basic_stringIcSt11char_traitsIcESaIcEEE39ALGO_TB_Split_BruteForce_ZeroBlockPruneESt6vectorIS9_SaIS9_EEE4baseEv
_ZNK9__gnu_cxx17__normal_iteratorIPKSt4pairINSt7__cxx1112basic_stringIcSt11char_traitsIcESaIcEEE39ALGO_TB_Split_BruteForce_ZeroBlockPruneESt6vectorIS9_SaIS9_EEEdeEv
_ZNK9__gnu_cxx17__normal_iteratorIPKSt4pairINSt7__cxx1112basic_stringIcSt11char_traitsIcESaIcEEE6MEModeESt6vectorIS9_SaIS9_EEE4baseEv
_ZNK9__gnu_cxx17__normal_iteratorIPKSt4pairINSt7__cxx1112basic_stringIcSt11char_traitsIcESaIcEEE6MEModeESt6vectorIS9_SaIS9_EEEdeEv
_ZNK9__gnu_cxx17__normal_iteratorIPKSt4pairINSt7__cxx1112basic_stringIcSt11char_traitsIcESaIcEEE8PartModeESt6vectorIS9_SaIS9_EEE4baseEv
_ZNK9__gnu_cxx17__normal_iteratorIPKSt4pairINSt7__cxx1112basic_stringIcSt11char_traitsIcESaIcEEE8PartModeESt6vectorIS9_SaIS9_EEEdeEv
_ZNK9__gnu_cxx17__normal_iteratorIPKiSt6vectorIiSaIiEEE4baseEv
_ZNK9__gnu_cxx17__normal_iteratorIPKiSt6vectorIiSaIiEEEdeEv
_ZNK9__gnu_cxx17__normal_iteratorIPN13CodingOptionsI6enc_cbE16CodingOptionDataESt6vectorIS4_SaIS4_EEE4baseEv
_ZNK9__gnu_cxx17__normal_iteratorIPN13CodingOptionsI6enc_cbE16CodingOptionDataESt6vectorIS4_SaIS4_EEEdeEv
_ZNK9__gnu_cxx17__normal_iteratorIPN13CodingOptionsI6enc_tbE16CodingOptionDataESt6vectorIS4_SaIS4_EEE4baseEv
_ZNK9__gnu_cxx17__normal_iteratorIPN13CodingOptionsI6enc_tbE16CodingOptionDataESt6vectorIS4_SaIS4_EEEdeEv
_ZNK9__gnu_cxx17__normal_iteratorIPNSt7__cxx1112basic_stringIcSt11char_traitsIcESaIcEEESt6vectorIS6_SaIS6_EEE4baseEv
_ZNK9__gnu_cxx17__normal_iteratorIPNSt7__cxx1112basic_stringIcSt11char_traitsIcESaIcEEESt6vectorIS6_SaIS6_EEEdeEv
_ZNK9__gnu_cxx17__normal_iteratorIPP10image_unitSt6vectorIS2_SaIS2_EEE4baseEv
_ZNK9__gnu_cxx17__normal_iteratorIPP10image_unitSt6vectorIS2_SaIS2_EEEdeEv
_ZNK9__gnu_cxx17__normal_iteratorIPP10image_unitSt6vectorIS2_SaIS2_EEEmiEx
_ZNK9__gnu_cxx17__normal_iteratorIPP10slice_unitSt6vectorIS2_SaIS2_EEE4baseEv
_ZNK9__gnu_cxx17__normal_iteratorIPP11de265_imageSt6vectorIS2_SaIS2_EEE4baseEv
_ZNK9__gnu_cxx17__normal_iteratorIPP11de265_imageSt6vectorIS2_SaIS2_EEEdeEv
_ZNK9__gnu_cxx17__normal_iteratorIPP11de265_imageSt6vectorIS2_SaIS2_EEEmiEx
_ZNK9__gnu_cxx17__normal_iteratorIPP11option_baseSt6vectorIS2_SaIS2_EEE4baseEv
_ZNK9__gnu_cxx17__normal_iteratorIPP11thread_taskSt6vectorIS2_SaIS2_EEE4baseEv
_ZNK9__gnu_cxx17__normal_iteratorIPP20slice_segment_headerSt6vectorIS2_SaIS2_EEE4baseEv
_ZNK9__gnu_cxx17__normal_iteratorIPP6enc_cbSt6vectorIS2_SaIS2_EEE4baseEv
_ZNK9__gnu_cxx17__normal_iteratorIPP8NAL_unitSt6vectorIS2_SaIS2_EEE4baseEv
_ZNK9__gnu_cxx17__normal_iteratorIPP8NAL_unitSt6vectorIS2_SaIS2_EEEdeEv
_ZNK9__gnu_cxx17__normal_iteratorIPP8NAL_unitSt6vectorIS2_SaIS2_EEEmiEx
_ZNK9__gnu_cxx17__normal_iteratorIPPhSt6vectorIS1_SaIS1_EEE4baseEv
_ZNK9__gnu_cxx17__normal_iteratorIPPhSt6vectorIS1_SaIS1_EEEdeEv
_ZNK9__gnu_cxx17__normal_iteratorIPPvSt6vectorIS1_SaIS1_EEE4baseEv
_ZNK9__gnu_cxx17__normal_iteratorIPPvSt6vectorIS1_SaIS1_EEEdeEv
_ZNK9__gnu_cxx17__normal_iteratorIPPvSt6vectorIS1_SaIS1_EEEmiEx
_ZNK9__gnu_cxx17__normal_iteratorIPSt4pairI13IntraPredModefESt6vectorIS3_SaIS3_EEE4baseEv
_ZNK9__gnu_cxx17__normal_iteratorIPSt4pairI13IntraPredModefESt6vectorIS3_SaIS3_EEEdeEv
_ZNK9__gnu_cxx17__normal_iteratorIPSt4pairI13IntraPredModefESt6vectorIS3_SaIS3_EEEmiEx
_ZNK9__gnu_cxx17__normal_iteratorIPSt4pairI13IntraPredModefESt6vectorIS3_SaIS3_EEEplEx
_ZNK9__gnu_cxx17__normal_iteratorIPSt4pairINSt7__cxx1112basic_stringIcSt11char_traitsIcESaIcEEE10MVTestModeESt6vectorIS9_SaIS9_EEE4baseEv
_ZNK9__gnu_cxx17__normal_iteratorIPSt4pairINSt7__cxx1112basic_stringIcSt11char_traitsIcESaIcEEE10MVTestModeESt6vectorIS9_SaIS9_EEEdeEv
_ZNK9__gnu_cxx17__normal_iteratorIPSt4pairINSt7__cxx1112basic_stringIcSt11char_traitsIcESaIcEEE12MVSearchAlgoESt6vectorIS9_SaIS9_EEE4baseEv
_ZNK9__gnu_cxx17__normal_iteratorIPSt4pairINSt7__cxx1112basic_stringIcSt11char_traitsIcESaIcEEE12MVSearchAlgoESt6vectorIS9_SaIS9_EEEdeEv
_ZNK9__gnu_cxx17__normal_iteratorIPSt4pairINSt7__cxx1112basic_stringIcSt11char_traitsIcESaIcEEE13SOP_StructureESt6vectorIS9_SaIS9_EEE4baseEv
_ZNK9__gnu_cxx17__normal_iteratorIPSt4pairINSt7__cxx1112basic_stringIcSt11char_traitsIcESaIcEEE13SOP_StructureESt6vectorIS9_SaIS9_EEEdeEv
_ZNK9__gnu_cxx17__normal_iteratorIPSt4pairINSt7__cxx1112basic_stringIcSt11char_traitsIcESaIcEEE20TBBitrateEstimMethodESt6vectorIS9_SaIS9_EEE4baseEv
_ZNK9__gnu_cxx17__normal_iteratorIPSt4pairINSt7__cxx1112basic_stringIcSt11char_traitsIcESaIcEEE20TBBitrateEstimMethodESt6vectorIS9_SaIS9_EEEdeEv
_ZNK9__gnu_cxx17__normal_iteratorIPSt4pairINSt7__cxx1112basic_stringIcSt11char_traitsIcESaIcEEE21ALGO_CB_IntraPartModeESt6vectorIS9_SaIS9_EEE4baseEv
_ZNK9__gnu_cxx17__normal_iteratorIPSt4pairINSt7__cxx1112basic_stringIcSt11char_traitsIcESaIcEEE21ALGO_CB_IntraPartModeESt6vectorIS9_SaIS9_EEEdeEv
_ZNK9__gnu_cxx17__normal_iteratorIPSt4pairINSt7__cxx1112basic_stringIcSt11char_traitsIcESaIcEEE21ALGO_TB_IntraPredModeESt6vectorIS9_SaIS9_EEE4baseEv
_ZNK9__gnu_cxx17__normal_iteratorIPSt4pairINSt7__cxx1112basic_stringIcSt11char_traitsIcESaIcEEE21ALGO_TB_IntraPredModeESt6vectorIS9_SaIS9_EEEdeEv
_ZNK9__gnu_cxx17__normal_iteratorIPSt4pairINSt7__cxx1112basic_stringIcSt11char_traitsIcESaIcEEE22ALGO_TB_RateEstimationESt6vectorIS9_SaIS9_EEE4baseEv
_ZNK9__gnu_cxx17__normal_iteratorIPSt4pairINSt7__cxx1112basic_stringIcSt11char_traitsIcESaIcEEE22ALGO_TB_RateEstimationESt6vectorIS9_SaIS9_EEEdeEv
_ZNK9__gnu_cxx17__normal_iteratorIPSt4pairINSt7__cxx1112basic_stringIcSt11char_traitsIcESaIcEEE28ALGO_TB_IntraPredMode_SubsetESt6vectorIS9_SaIS9_EEE4baseEv
_ZNK9__gnu_cxx17__normal_iteratorIPSt4pairINSt7__cxx1112basic_stringIcSt11char_traitsIcESaIcEEE28ALGO_TB_IntraPredMode_SubsetESt6vectorIS9_SaIS9_EEEdeEv
_ZNK9__gnu_cxx17__normal_iteratorIPSt4pairINSt7__cxx1112basic_stringIcSt11char_traitsIcESaIcEEE39ALGO_TB_Split_BruteForce_ZeroBlockPruneESt6vectorIS9_SaIS9_EEE4baseEv
_ZNK9__gnu_cxx17__normal_iteratorIPSt4pairINSt7__cxx1112basic_stringIcSt11char_traitsIcESaIcEEE39ALGO_TB_Split_BruteForce_ZeroBlockPruneESt6vectorIS9_SaIS9_EEEdeEv
_ZNK9__gnu_cxx17__normal_iteratorIPSt4pairINSt7__cxx1112basic_stringIcSt11char_traitsIcESaIcEEE6MEModeESt6vectorIS9_SaIS9_EEE4baseEv
_ZNK9__gnu_cxx17__normal_iteratorIPSt4pairINSt7__cxx1112basic_stringIcSt11char_traitsIcESaIcEEE6MEModeESt6vectorIS9_SaIS9_EEEdeEv
_ZNK9__gnu_cxx17__normal_iteratorIPSt4pairINSt7__cxx1112basic_stringIcSt11char_traitsIcESaIcEEE8PartModeESt6vectorIS9_SaIS9_EEE4baseEv
_ZNK9__gnu_cxx17__normal_iteratorIPSt4pairINSt7__cxx1112basic_stringIcSt11char_traitsIcESaIcEEE8PartModeESt6vectorIS9_SaIS9_EEEdeEv
_ZNK9__gnu_cxx17__normal_iteratorIPcSt6vectorIcSaIcEEE4baseEv
_ZNK9__gnu_cxx17__normal_iteratorIPiSt6vectorIiSaIiEEE4baseEv
_ZNK9__gnu_cxx17__normal_iteratorIPiSt6vectorIiSaIiEEEdeEv
_ZNKSt11_Deque_baseIP10image_dataSaIS1_EE13get_allocatorEv
_ZNKSt11_Deque_baseIP10image_dataSaIS1_EE19_M_get_Tp_allocatorEv
_ZNKSt11_Deque_baseIP10image_dataSaIS1_EE20_M_get_map_allocatorEv
_ZNKSt11_Deque_baseIP11de265_imageSaIS1_EE19_M_get_Tp_allocatorEv
_ZNKSt11_Deque_baseIP11de265_imageSaIS1_EE20_M_get_map_allocatorEv
_ZNKSt11_Deque_baseIP11thread_taskSaIS1_EE19_M_get_Tp_allocatorEv
_ZNKSt11_Deque_baseIP11thread_taskSaIS1_EE20_M_get_map_allocatorEv
_ZNKSt11_Deque_baseIP12en265_packetSaIS1_EE19_M_get_Tp_allocatorEv
_ZNKSt11_Deque_baseIP12en265_packetSaIS1_EE20_M_get_map_allocatorEv
_ZNKSt11_Deque_baseIP8NAL_unitSaIS1_EE19_M_get_Tp_allocatorEv
_ZNKSt11_Deque_baseIP8NAL_unitSaIS1_EE20_M_get_map_allocatorEv
_ZNKSt12_Vector_baseI11ref_pic_setSaIS0_EE19_M_get_Tp_allocatorEv
_ZNKSt12_Vector_baseI11sei_messageSaIS0_EE19_M_get_Tp_allocatorEv
_ZNKSt12_Vector_baseI12CodingOptionI6enc_tbESaIS2_EE19_M_get_Tp_allocatorEv
_ZNKSt12_Vector_baseI19context_model_tableSaIS0_EE19_M_get_Tp_allocatorEv
_ZNKSt12_Vector_baseIN13CodingOptionsI6enc_cbE16CodingOptionDataESaIS3_EE19_M_get_Tp_allocatorEv
_ZNKSt12_Vector_baseIN13CodingOptionsI6enc_tbE16CodingOptionDataESaIS3_EE19_M_get_Tp_allocatorEv
_ZNKSt12_Vector_baseINSt7__cxx1112basic_stringIcSt11char_traitsIcESaIcEEESaIS5_EE19_M_get_Tp_allocatorEv
_ZNKSt12_Vector_baseIP10image_unitSaIS1_EE19_M_get_Tp_allocatorEv
_ZNKSt12_Vector_baseIP10slice_unitSaIS1_EE19_M_get_Tp_allocatorEv
_ZNKSt12_Vector_baseIP11de265_imageSaIS1_EE19_M_get_Tp_allocatorEv
_ZNKSt12_Vector_baseIP11option_baseSaIS1_EE19_M_get_Tp_allocatorEv
_ZNKSt12_Vector_baseIP11thread_taskSaIS1_EE19_M_get_Tp_allocatorEv
_ZNKSt12_Vector_baseIP20slice_segment_headerSaIS1_EE19_M_get_Tp_allocatorEv
_ZNKSt12_Vector_baseIP6enc_cbSaIS1_EE19_M_get_Tp_allocatorEv
_ZNKSt12_Vector_baseIP8NAL_unitSaIS1_EE19_M_get_Tp_allocatorEv
_ZNKSt12_Vector_baseIPhSaIS0_EE19_M_get_Tp_allocatorEv
_ZNKSt12_Vector_baseIPvSaIS0_EE19_M_get_Tp_allocatorEv
_ZNKSt12_Vector_baseISt4pairI13IntraPredModefESaIS2_EE19_M_get_Tp_allocatorEv
_ZNKSt12_Vector_baseISt4pairINSt7__cxx1112basic_stringIcSt11char_traitsIcESaIcEEE10MVTestModeESaIS8_EE19_M_get_Tp_allocatorEv
_ZNKSt12_Vector_baseISt4pairINSt7__cxx1112basic_stringIcSt11char_traitsIcESaIcEEE12MVSearchAlgoESaIS8_EE19_M_get_Tp_allocatorEv
_ZNKSt12_Vector_baseISt4pairINSt7__cxx1112basic_stringIcSt11char_traitsIcESaIcEEE13SOP_StructureESaIS8_EE19_M_get_Tp_allocatorEv
_ZNKSt12_Vector_baseISt4pairINSt7__cxx1112basic_stringIcSt11char_traitsIcESaIcEEE20TBBitrateEstimMethodESaIS8_EE19_M_get_Tp_allocatorEv
_ZNKSt12_Vector_baseISt4pairINSt7__cxx1112basic_stringIcSt11char_traitsIcESaIcEEE21ALGO_CB_IntraPartModeESaIS8_EE19_M_get_Tp_allocatorEv
_ZNKSt12_Vector_baseISt4pairINSt7__cxx1112basic_stringIcSt11char_traitsIcESaIcEEE21ALGO_TB_IntraPredModeESaIS8_EE19_M_get_Tp_allocatorEv
_ZNKSt12_Vector_baseISt4pairINSt7__cxx1112basic_stringIcSt11char_traitsIcESaIcEEE22ALGO_TB_RateEstimationESaIS8_EE19_M_get_Tp_allocatorEv
_ZNKSt12_Vector_baseISt4pairINSt7__cxx1112basic_stringIcSt11char_traitsIcESaIcEEE28ALGO_TB_IntraPredMode_SubsetESaIS8_EE19_M_get_Tp_allocatorEv
_ZNKSt12_Vector_baseISt4pairINSt7__cxx1112basic_stringIcSt11char_traitsIcESaIcEEE39ALGO_TB_Split_BruteForce_ZeroBlockPruneESaIS8_EE19_M_get_Tp_allocatorEv
_ZNKSt12_Vector_baseISt4pairINSt7__cxx1112basic_stringIcSt11char_traitsIcESaIcEEE6MEModeESaIS8_EE19_M_get_Tp_allocatorEv
_ZNKSt12_Vector_baseISt4pairINSt7__cxx1112basic_stringIcSt11char_traitsIcESaIcEEE8PartModeESaIS8_EE19_M_get_Tp_allocatorEv
_ZNKSt12_Vector_baseISt6vectorIcSaIcEESaIS2_EE19_M_get_Tp_allocatorEv
_ZNKSt12_Vector_baseIcSaIcEE19_M_get_Tp_allocatorEv
_ZNKSt12_Vector_baseIiSaIiEE19_M_get_Tp_allocatorEv
_ZNKSt12_Vector_baseItSaItEE19_M_get_Tp_allocatorEv
_ZNKSt12__shared_ptrI11sop_creatorLN9__gnu_cxx12_Lock_policyE2EE3getEv
_ZNKSt12__shared_ptrI17pic_parameter_setLN9__gnu_cxx12_Lock_policyE2EE3getEv
_ZNKSt12__shared_ptrI17pic_parameter_setLN9__gnu_cxx12_Lock_policyE2EEcvbEv
_ZNKSt12__shared_ptrI17seq_parameter_setLN9__gnu_cxx12_Lock_policyE2EE3getEv
_ZNKSt12__shared_ptrI17seq_parameter_setLN9__gnu_cxx12_Lock_policyE2EEcvbEv
_ZNKSt12__shared_ptrI18small_image_bufferLN9__gnu_cxx12_Lock_policyE2EE3getEv
_ZNKSt12__shared_ptrI18small_image_bufferLN9__gnu_cxx12_Lock_policyE2EEcvbEv
_ZNKSt12__shared_ptrI19video_parameter_setLN9__gnu_cxx12_Lock_policyE2EE3getEv
_ZNKSt12__shared_ptrI19video_parameter_setLN9__gnu_cxx12_Lock_policyE2EEcvbEv
_ZNKSt12__shared_ptrI29sop_creator_trivial_low_delayLN9__gnu_cxx12_Lock_policyE2EE3getEv
_ZNKSt12__shared_ptrIK17pic_parameter_setLN9__gnu_cxx12_Lock_policyE2EE3getEv
_ZNKSt12__shared_ptrIK17seq_parameter_setLN9__gnu_cxx12_Lock_policyE2EE3getEv
_ZNKSt12__shared_ptrIK17seq_parameter_setLN9__gnu_cxx12_Lock_policyE2EEcvbEv
_ZNKSt12__shared_ptrIK19video_parameter_setLN9__gnu_cxx12_Lock_policyE2EE3getEv
_ZNKSt12__shared_ptrIK19video_parameter_setLN9__gnu_cxx12_Lock_policyE2EEcvbEv
_ZNKSt13move_iteratorIP11ref_pic_setE4baseEv
_ZNKSt13move_iteratorIP11sei_messageE4baseEv
_ZNKSt13move_iteratorIP12CodingOptionI6enc_tbEE4baseEv
_ZNKSt13move_iteratorIP12CodingOptionI6enc_tbEEdeEv
_ZNKSt13move_iteratorIPNSt7__cxx1112basic_stringIcSt11char_traitsIcESaIcEEEE4baseEv
_ZNKSt13move_iteratorIPNSt7__cxx1112basic_stringIcSt11char_traitsIcESaIcEEEEdeEv
_ZNKSt13move_iteratorIPP10image_unitE4baseEv
_ZNKSt13move_iteratorIPP10slice_unitE4baseEv
_ZNKSt13move_iteratorIPP11de265_imageE4baseEv
_ZNKSt13move_iteratorIPP11option_baseE4baseEv
_ZNKSt13move_iteratorIPP11thread_taskE4baseEv
_ZNKSt13move_iteratorIPP20slice_segment_headerE4baseEv
_ZNKSt13move_iteratorIPP6enc_cbE4baseEv
_ZNKSt13move_iteratorIPP8NAL_unitE4baseEv
_ZNKSt13move_iteratorIPPhE4baseEv
_ZNKSt13move_iteratorIPPvE4baseEv
_ZNKSt13move_iteratorIPSt4pairI13IntraPredModefEE4baseEv
_ZNKSt13move_iteratorIPSt4pairI13IntraPredModefEEdeEv
_ZNKSt13move_iteratorIPSt4pairINSt7__cxx1112basic_stringIcSt11char_traitsIcESaIcEEE10MVTestModeEE4baseEv
_ZNKSt13move_iteratorIPSt4pairINSt7__cxx1112basic_stringIcSt11char_traitsIcESaIcEEE10MVTestModeEEdeEv
_ZNKSt13move_iteratorIPSt4pairINSt7__cxx1112basic_stringIcSt11char_traitsIcESaIcEEE12MVSearchAlgoEE4baseEv
_ZNKSt13move_iteratorIPSt4pairINSt7__cxx1112basic_stringIcSt11char_traitsIcESaIcEEE12MVSearchAlgoEEdeEv
_ZNKSt13move_iteratorIPSt4pairINSt7__cxx1112basic_stringIcSt11char_traitsIcESaIcEEE13SOP_StructureEE4baseEv
_ZNKSt13move_iteratorIPSt4pairINSt7__cxx1112basic_stringIcSt11char_traitsIcESaIcEEE13SOP_StructureEEdeEv
_ZNKSt13move_iteratorIPSt4pairINSt7__cxx1112basic_stringIcSt11char_traitsIcESaIcEEE20TBBitrateEstimMethodEE4baseEv
_ZNKSt13move_iteratorIPSt4pairINSt7__cxx1112basic_stringIcSt11char_traitsIcESaIcEEE20TBBitrateEstimMethodEEdeEv
_ZNKSt13move_iteratorIPSt4pairINSt7__cxx1112basic_stringIcSt11char_traitsIcESaIcEEE21ALGO_CB_IntraPartModeEE4baseEv
_ZNKSt13move_iteratorIPSt4pairINSt7__cxx1112basic_stringIcSt11char_traitsIcESaIcEEE21ALGO_CB_IntraPartModeEEdeEv
_ZNKSt13move_iteratorIPSt4pairINSt7__cxx1112basic_stringIcSt11char_traitsIcESaIcEEE21ALGO_TB_IntraPredModeEE4baseEv
_ZNKSt13move_iteratorIPSt4pairINSt7__cxx1112basic_stringIcSt11char_traitsIcESaIcEEE21ALGO_TB_IntraPredModeEEdeEv
_ZNKSt13move_iteratorIPSt4pairINSt7__cxx1112basic_stringIcSt11char_traitsIcESaIcEEE22ALGO_TB_RateEstimationEE4baseEv
_ZNKSt13move_iteratorIPSt4pairINSt7__cxx1112basic_stringIcSt11char_traitsIcESaIcEEE22ALGO_TB_RateEstimationEEdeEv
_ZNKSt13move_iteratorIPSt4pairINSt7__cxx1112basic_stringIcSt11char_traitsIcESaIcEEE28ALGO_TB_IntraPredMode_SubsetEE4baseEv
_ZNKSt13move_iteratorIPSt4pairINSt7__cxx1112basic_stringIcSt11char_traitsIcESaIcEEE28ALGO_TB_IntraPredMode_SubsetEEdeEv
_ZNKSt13move_iteratorIPSt4pairINSt7__cxx1112basic_stringIcSt11char_traitsIcESaIcEEE39ALGO_TB_Split_BruteForce_ZeroBlockPruneEE4baseEv
_ZNKSt13move_iteratorIPSt4pairINSt7__cxx1112basic_stringIcSt11char_traitsIcESaIcEEE39ALGO_TB_Split_BruteForce_ZeroBlockPruneEEdeEv
_ZNKSt13move_iteratorIPSt4pairINSt7__cxx1112basic_stringIcSt11char_traitsIcESaIcEEE6MEModeEE4baseEv
_ZNKSt13move_iteratorIPSt4pairINSt7__cxx1112basic_stringIcSt11char_traitsIcESaIcEEE6MEModeEEdeEv
_ZNKSt13move_iteratorIPSt4pairINSt7__cxx1112basic_stringIcSt11char_traitsIcESaIcEEE8PartModeEE4baseEv
_ZNKSt13move_iteratorIPSt4pairINSt7__cxx1112basic_stringIcSt11char_traitsIcESaIcEEE8PartModeEEdeEv
_ZNKSt13move_iteratorIPSt6vectorIcSaIcEEE4baseEv
_ZNKSt13move_iteratorIPSt6vectorIcSaIcEEEdeEv
_ZNKSt13move_iteratorIPcE4baseEv
_ZNKSt13move_iteratorIPiE4baseEv
_ZNKSt13move_iteratorIPtE4baseEv
_ZNKSt13move_iteratorISt15_Deque_iteratorIP10image_dataRS2_PS2_EE4baseEv
_ZNKSt14__shared_countILN9__gnu_cxx12_Lock_policyE2EE14_M_get_deleterERKSt9type_info
_ZNKSt15_Deque_iteratorIP10image_dataRKS1_PS2_EdeEv
_ZNKSt15_Deque_iteratorIP10image_dataRKS1_PS2_EplEx
_ZNKSt15_Deque_iteratorIP10image_dataRS1_PS1_EdeEv
_ZNKSt15_Deque_iteratorIP10image_dataRS1_PS1_EixEx
_ZNKSt15_Deque_iteratorIP10image_dataRS1_PS1_EmiEx
_ZNKSt15_Deque_iteratorIP10image_dataRS1_PS1_EplEx
_ZNKSt15_Deque_iteratorIP11de265_imageRKS1_PS2_EdeEv
_ZNKSt15_Deque_iteratorIP11thread_taskRS1_PS1_EdeEv
_ZNKSt15_Deque_iteratorIP12en265_packetRS1_PS1_EdeEv
_ZNKSt15_Deque_iteratorIP8NAL_unitRS1_PS1_EdeEv
_ZNKSt19__shared_ptr_accessI11sop_creatorLN9__gnu_cxx12_Lock_policyE2ELb0ELb0EE6_M_getEv
_ZNKSt19__shared_ptr_accessI11sop_creatorLN9__gnu_cxx12_Lock_policyE2ELb0ELb0EEptEv
_ZNKSt19__shared_ptr_accessI17pic_parameter_setLN9__gnu_cxx12_Lock_policyE2ELb0ELb0EE6_M_getEv
_ZNKSt19__shared_ptr_accessI17pic_parameter_setLN9__gnu_cxx12_Lock_policyE2ELb0ELb0EEdeEv
_ZNKSt19__shared_ptr_accessI17pic_parameter_setLN9__gnu_cxx12_Lock_policyE2ELb0ELb0EEptEv
_ZNKSt19__shared_ptr_accessI17seq_parameter_setLN9__gnu_cxx12_Lock_policyE2ELb0ELb0EE6_M_getEv
_ZNKSt19__shared_ptr_accessI17seq_parameter_setLN9__gnu_cxx12_Lock_policyE2ELb0ELb0EEdeEv
_ZNKSt19__shared_ptr_accessI17seq_parameter_setLN9__gnu_cxx12_Lock_policyE2ELb0ELb0EEptEv
_ZNKSt19__shared_ptr_accessI18small_image_bufferLN9__gnu_cxx12_Lock_policyE2ELb0ELb0EE6_M_getEv
_ZNKSt19__shared_ptr_accessI18small_image_bufferLN9__gnu_cxx12_Lock_policyE2ELb0ELb0EEdeEv
_ZNKSt19__shared_ptr_accessI18small_image_bufferLN9__gnu_cxx12_Lock_policyE2ELb0ELb0EEptEv
_ZNKSt19__shared_ptr_accessI19video_parameter_setLN9__gnu_cxx12_Lock_policyE2ELb0ELb0EE6_M_getEv
_ZNKSt19__shared_ptr_accessI19video_parameter_setLN9__gnu_cxx12_Lock_policyE2ELb0ELb0EEptEv
_ZNKSt19__shared_ptr_accessI29sop_creator_trivial_low_delayLN9__gnu_cxx12_Lock_policyE2ELb0ELb0EE6_M_getEv
_ZNKSt19__shared_ptr_accessI29sop_creator_trivial_low_delayLN9__gnu_cxx12_Lock_policyE2ELb0ELb0EEptEv
_ZNKSt19__shared_ptr_accessIK17pic_parameter_setLN9__gnu_cxx12_Lock_policyE2ELb0ELb0EE6_M_getEv
_ZNKSt19__shared_ptr_accessIK17pic_parameter_setLN9__gnu_cxx12_Lock_policyE2ELb0ELb0EEdeEv
_ZNKSt19__shared_ptr_accessIK17pic_parameter_setLN9__gnu_cxx12_Lock_policyE2ELb0ELb0EEptEv
_ZNKSt19__shared_ptr_accessIK17seq_parameter_setLN9__gnu_cxx12_Lock_policyE2ELb0ELb0EE6_M_getEv
_ZNKSt19__shared_ptr_accessIK17seq_parameter_setLN9__gnu_cxx12_Lock_policyE2ELb0ELb0EEdeEv
_ZNKSt19__shared_ptr_accessIK17seq_parameter_setLN9__gnu_cxx12_Lock_policyE2ELb0ELb0EEptEv
_ZNKSt19__shared_ptr_accessIK19video_parameter_setLN9__gnu_cxx12_Lock_policyE2ELb0ELb0EE6_M_getEv
_ZNKSt19__shared_ptr_accessIK19video_parameter_setLN9__gnu_cxx12_Lock_policyE2ELb0ELb0EEdeEv
_ZNKSt5dequeIP10image_dataSaIS1_EE13get_allocatorEv
_ZNKSt5dequeIP10image_dataSaIS1_EE3endEv
_ZNKSt5dequeIP10image_dataSaIS1_EE4sizeEv
_ZNKSt5dequeIP10image_dataSaIS1_EE5beginEv
_ZNKSt5dequeIP10image_dataSaIS1_EE5emptyEv
_ZNKSt5dequeIP10image_dataSaIS1_EE5frontEv
_ZNKSt5dequeIP10image_dataSaIS1_EE8max_sizeEv
_ZNKSt5dequeIP10image_dataSaIS1_EEixEy
_ZNKSt5dequeIP11de265_imageSaIS1_EE4sizeEv
_ZNKSt5dequeIP11de265_imageSaIS1_EE5beginEv
_ZNKSt5dequeIP11de265_imageSaIS1_EE5frontEv
_ZNKSt5dequeIP11thread_taskSaIS1_EE4sizeEv
_ZNKSt5dequeIP12en265_packetSaIS1_EE4sizeEv
_ZNKSt5dequeIP12en265_packetSaIS1_EE5emptyEv
_ZNKSt5dequeIP8NAL_unitSaIS1_EE4sizeEv
_ZNKSt5dequeIP8NAL_unitSaIS1_EE5emptyEv
_ZNKSt5queueIP8NAL_unitSt5dequeIS1_SaIS1_EEE4sizeEv
_ZNKSt5queueIP8NAL_unitSt5dequeIS1_SaIS1_EEE5emptyEv
_ZNKSt6vectorI11ref_pic_setSaIS0_EE12_M_check_lenEyPKc
_ZNKSt6vectorI11ref_pic_setSaIS0_EE4sizeEv
_ZNKSt6vectorI11ref_pic_setSaIS0_EE8max_sizeEv
_ZNKSt6vectorI11ref_pic_setSaIS0_EEixEy
_ZNKSt6vectorI11sei_messageSaIS0_EE12_M_check_lenEyPKc
_ZNKSt6vectorI11sei_messageSaIS0_EE4sizeEv
_ZNKSt6vectorI11sei_messageSaIS0_EE8max_sizeEv
_ZNKSt6vectorI12CodingOptionI6enc_tbESaIS2_EE12_M_check_lenEyPKc
_ZNKSt6vectorI12CodingOptionI6enc_tbESaIS2_EE4sizeEv
_ZNKSt6vectorI12CodingOptionI6enc_tbESaIS2_EE8max_sizeEv
_ZNKSt6vectorI19context_model_tableSaIS0_EE12_M_check_lenEyPKc
_ZNKSt6vectorI19context_model_tableSaIS0_EE4sizeEv
_ZNKSt6vectorI19context_model_tableSaIS0_EE8max_sizeEv
_ZNKSt6vectorIN13CodingOptionsI6enc_cbE16CodingOptionDataESaIS3_EE12_M_check_lenEyPKc
_ZNKSt6vectorIN13CodingOptionsI6enc_cbE16CodingOptionDataESaIS3_EE3endEv
_ZNKSt6vectorIN13CodingOptionsI6enc_cbE16CodingOptionDataESaIS3_EE4sizeEv
_ZNKSt6vectorIN13CodingOptionsI6enc_cbE16CodingOptionDataESaIS3_EE5beginEv
_ZNKSt6vectorIN13CodingOptionsI6enc_cbE16CodingOptionDataESaIS3_EE5emptyEv
_ZNKSt6vectorIN13CodingOptionsI6enc_cbE16CodingOptionDataESaIS3_EE8max_sizeEv
_ZNKSt6vectorIN13CodingOptionsI6enc_tbE16CodingOptionDataESaIS3_EE12_M_check_lenEyPKc
_ZNKSt6vectorIN13CodingOptionsI6enc_tbE16CodingOptionDataESaIS3_EE3endEv
_ZNKSt6vectorIN13CodingOptionsI6enc_tbE16CodingOptionDataESaIS3_EE4sizeEv
_ZNKSt6vectorIN13CodingOptionsI6enc_tbE16CodingOptionDataESaIS3_EE5beginEv
_ZNKSt6vectorIN13CodingOptionsI6enc_tbE16CodingOptionDataESaIS3_EE5emptyEv
_ZNKSt6vectorIN13CodingOptionsI6enc_tbE16CodingOptionDataESaIS3_EE8max_sizeEv
_ZNKSt6vectorINSt7__cxx1112basic_stringIcSt11char_traitsIcESaIcEEESaIS5_EE12_M_check_lenEyPKc
_ZNKSt6vectorINSt7__cxx1112basic_stringIcSt11char_traitsIcESaIcEEESaIS5_EE3endEv
_ZNKSt6vectorINSt7__cxx1112basic_stringIcSt11char_traitsIcESaIcEEESaIS5_EE4sizeEv
_ZNKSt6vectorINSt7__cxx1112basic_stringIcSt11char_traitsIcESaIcEEESaIS5_EE5beginEv
_ZNKSt6vectorINSt7__cxx1112basic_stringIcSt11char_traitsIcESaIcEEESaIS5_EE8max_sizeEv
_ZNKSt6vectorIP10image_unitSaIS1_EE12_M_check_lenEyPKc
_ZNKSt6vectorIP10image_unitSaIS1_EE3endEv
_ZNKSt6vectorIP10image_unitSaIS1_EE4sizeEv
_ZNKSt6vectorIP10image_unitSaIS1_EE5beginEv
_ZNKSt6vectorIP10image_unitSaIS1_EE5emptyEv
_ZNKSt6vectorIP10image_unitSaIS1_EE8max_sizeEv
_ZNKSt6vectorIP10slice_unitSaIS1_EE12_M_check_lenEyPKc
_ZNKSt6vectorIP10slice_unitSaIS1_EE3endEv
_ZNKSt6vectorIP10slice_unitSaIS1_EE4backEv
_ZNKSt6vectorIP10slice_unitSaIS1_EE4sizeEv
_ZNKSt6vectorIP10slice_unitSaIS1_EE8max_sizeEv
_ZNKSt6vectorIP10slice_unitSaIS1_EEixEy
_ZNKSt6vectorIP11de265_imageSaIS1_EE12_M_check_lenEyPKc
_ZNKSt6vectorIP11de265_imageSaIS1_EE3endEv
_ZNKSt6vectorIP11de265_imageSaIS1_EE4sizeEv
_ZNKSt6vectorIP11de265_imageSaIS1_EE5beginEv
_ZNKSt6vectorIP11de265_imageSaIS1_EE5emptyEv
_ZNKSt6vectorIP11de265_imageSaIS1_EE8max_sizeEv
_ZNKSt6vectorIP11de265_imageSaIS1_EEixEy
_ZNKSt6vectorIP11option_baseSaIS1_EE12_M_check_lenEyPKc
_ZNKSt6vectorIP11option_baseSaIS1_EE3endEv
_ZNKSt6vectorIP11option_baseSaIS1_EE4sizeEv
_ZNKSt6vectorIP11option_baseSaIS1_EE5beginEv
_ZNKSt6vectorIP11option_baseSaIS1_EE8max_sizeEv
_ZNKSt6vectorIP11option_baseSaIS1_EEixEy
_ZNKSt6vectorIP11thread_taskSaIS1_EE12_M_check_lenEyPKc
_ZNKSt6vectorIP11thread_taskSaIS1_EE4sizeEv
_ZNKSt6vectorIP11thread_taskSaIS1_EE8max_sizeEv
_ZNKSt6vectorIP20slice_segment_headerSaIS1_EE12_M_check_lenEyPKc
_ZNKSt6vectorIP20slice_segment_headerSaIS1_EE4sizeEv
_ZNKSt6vectorIP20slice_segment_headerSaIS1_EE8max_sizeEv
_ZNKSt6vectorIP20slice_segment_headerSaIS1_EEixEy
_ZNKSt6vectorIP6enc_cbSaIS1_EE12_M_check_lenEyPKc
_ZNKSt6vectorIP6enc_cbSaIS1_EE4sizeEv
_ZNKSt6vectorIP6enc_cbSaIS1_EE8max_sizeEv
_ZNKSt6vectorIP6enc_cbSaIS1_EEixEy
_ZNKSt6vectorIP8NAL_unitSaIS1_EE12_M_check_lenEyPKc
_ZNKSt6vectorIP8NAL_unitSaIS1_EE4sizeEv
_ZNKSt6vectorIP8NAL_unitSaIS1_EE8max_sizeEv
_ZNKSt6vectorIPhSaIS0_EE12_M_check_lenEyPKc
_ZNKSt6vectorIPhSaIS0_EE4sizeEv
_ZNKSt6vectorIPhSaIS0_EE8capacityEv
_ZNKSt6vectorIPhSaIS0_EE8max_sizeEv
_ZNKSt6vectorIPvSaIS0_EE12_M_check_lenEyPKc
_ZNKSt6vectorIPvSaIS0_EE3endEv
_ZNKSt6vectorIPvSaIS0_EE4sizeEv
_ZNKSt6vectorIPvSaIS0_EE5beginEv
_ZNKSt6vectorIPvSaIS0_EE5emptyEv
_ZNKSt6vectorIPvSaIS0_EE8capacityEv
_ZNKSt6vectorIPvSaIS0_EE8max_sizeEv
_ZNKSt6vectorIS_IcSaIcEESaIS1_EE12_M_check_lenEyPKc
_ZNKSt6vectorIS_IcSaIcEESaIS1_EE4sizeEv
_ZNKSt6vectorIS_IcSaIcEESaIS1_EE8max_sizeEv
_ZNKSt6vectorIS_IcSaIcEESaIS1_EEixEy
_ZNKSt6vectorISt4pairI13IntraPredModefESaIS2_EE12_M_check_lenEyPKc
_ZNKSt6vectorISt4pairI13IntraPredModefESaIS2_EE4sizeEv
_ZNKSt6vectorISt4pairI13IntraPredModefESaIS2_EE8max_sizeEv
_ZNKSt6vectorISt4pairINSt7__cxx1112basic_stringIcSt11char_traitsIcESaIcEEE10MVTestModeESaIS8_EE12_M_check_lenEyPKc
_ZNKSt6vectorISt4pairINSt7__cxx1112basic_stringIcSt11char_traitsIcESaIcEEE10MVTestModeESaIS8_EE3endEv
_ZNKSt6vectorISt4pairINSt7__cxx1112basic_stringIcSt11char_traitsIcESaIcEEE10MVTestModeESaIS8_EE4sizeEv
_ZNKSt6vectorISt4pairINSt7__cxx1112basic_stringIcSt11char_traitsIcESaIcEEE10MVTestModeESaIS8_EE5beginEv
_ZNKSt6vectorISt4pairINSt7__cxx1112basic_stringIcSt11char_traitsIcESaIcEEE10MVTestModeESaIS8_EE8max_sizeEv
_ZNKSt6vectorISt4pairINSt7__cxx1112basic_stringIcSt11char_traitsIcESaIcEEE12MVSearchAlgoESaIS8_EE12_M_check_lenEyPKc
_ZNKSt6vectorISt4pairINSt7__cxx1112basic_stringIcSt11char_traitsIcESaIcEEE12MVSearchAlgoESaIS8_EE3endEv
_ZNKSt6vectorISt4pairINSt7__cxx1112basic_stringIcSt11char_traitsIcESaIcEEE12MVSearchAlgoESaIS8_EE4sizeEv
_ZNKSt6vectorISt4pairINSt7__cxx1112basic_stringIcSt11char_traitsIcESaIcEEE12MVSearchAlgoESaIS8_EE5beginEv
_ZNKSt6vectorISt4pairINSt7__cxx1112basic_stringIcSt11char_traitsIcESaIcEEE12MVSearchAlgoESaIS8_EE8max_sizeEv
_ZNKSt6vectorISt4pairINSt7__cxx1112basic_stringIcSt11char_traitsIcESaIcEEE13SOP_StructureESaIS8_EE12_M_check_lenEyPKc
_ZNKSt6vectorISt4pairINSt7__cxx1112basic_stringIcSt11char_traitsIcESaIcEEE13SOP_StructureESaIS8_EE3endEv
_ZNKSt6vectorISt4pairINSt7__cxx1112basic_stringIcSt11char_traitsIcESaIcEEE13SOP_StructureESaIS8_EE4sizeEv
_ZNKSt6vectorISt4pairINSt7__cxx1112basic_stringIcSt11char_traitsIcESaIcEEE13SOP_StructureESaIS8_EE5beginEv
_ZNKSt6vectorISt4pairINSt7__cxx1112basic_stringIcSt11char_traitsIcESaIcEEE13SOP_StructureESaIS8_EE8max_sizeEv
_ZNKSt6vectorISt4pairINSt7__cxx1112basic_stringIcSt11char_traitsIcESaIcEEE20TBBitrateEstimMethodESaIS8_EE12_M_check_lenEyPKc
_ZNKSt6vectorISt4pairINSt7__cxx1112basic_stringIcSt11char_traitsIcESaIcEEE20TBBitrateEstimMethodESaIS8_EE3endEv
_ZNKSt6vectorISt4pairINSt7__cxx1112basic_stringIcSt11char_traitsIcESaIcEEE20TBBitrateEstimMethodESaIS8_EE4sizeEv
_ZNKSt6vectorISt4pairINSt7__cxx1112basic_stringIcSt11char_traitsIcESaIcEEE20TBBitrateEstimMethodESaIS8_EE5beginEv
_ZNKSt6vectorISt4pairINSt7__cxx1112basic_stringIcSt11char_traitsIcESaIcEEE20TBBitrateEstimMethodESaIS8_EE8max_sizeEv
_ZNKSt6vectorISt4pairINSt7__cxx1112basic_stringIcSt11char_traitsIcESaIcEEE21ALGO_CB_IntraPartModeESaIS8_EE12_M_check_lenEyPKc
_ZNKSt6vectorISt4pairINSt7__cxx1112basic_stringIcSt11char_traitsIcESaIcEEE21ALGO_CB_IntraPartModeESaIS8_EE3endEv
_ZNKSt6vectorISt4pairINSt7__cxx1112basic_stringIcSt11char_traitsIcESaIcEEE21ALGO_CB_IntraPartModeESaIS8_EE4sizeEv
_ZNKSt6vectorISt4pairINSt7__cxx1112basic_stringIcSt11char_traitsIcESaIcEEE21ALGO_CB_IntraPartModeESaIS8_EE5beginEv
_ZNKSt6vectorISt4pairINSt7__cxx1112basic_stringIcSt11char_traitsIcESaIcEEE21ALGO_CB_IntraPartModeESaIS8_EE8max_sizeEv
_ZNKSt6vectorISt4pairINSt7__cxx1112basic_stringIcSt11char_traitsIcESaIcEEE21ALGO_TB_IntraPredModeESaIS8_EE12_M_check_lenEyPKc
_ZNKSt6vectorISt4pairINSt7__cxx1112basic_stringIcSt11char_traitsIcESaIcEEE21ALGO_TB_IntraPredModeESaIS8_EE3endEv
_ZNKSt6vectorISt4pairINSt7__cxx1112basic_stringIcSt11char_traitsIcESaIcEEE21ALGO_TB_IntraPredModeESaIS8_EE4sizeEv
_ZNKSt6vectorISt4pairINSt7__cxx1112basic_stringIcSt11char_traitsIcESaIcEEE21ALGO_TB_IntraPredModeESaIS8_EE5beginEv
_ZNKSt6vectorISt4pairINSt7__cxx1112basic_stringIcSt11char_traitsIcESaIcEEE21ALGO_TB_IntraPredModeESaIS8_EE8max_sizeEv
_ZNKSt6vectorISt4pairINSt7__cxx1112basic_stringIcSt11char_traitsIcESaIcEEE22ALGO_TB_RateEstimationESaIS8_EE12_M_check_lenEyPKc
_ZNKSt6vectorISt4pairINSt7__cxx1112basic_stringIcSt11char_traitsIcESaIcEEE22ALGO_TB_RateEstimationESaIS8_EE3endEv
_ZNKSt6vectorISt4pairINSt7__cxx1112basic_stringIcSt11char_traitsIcESaIcEEE22ALGO_TB_RateEstimationESaIS8_EE4sizeEv
_ZNKSt6vectorISt4pairINSt7__cxx1112basic_stringIcSt11char_traitsIcESaIcEEE22ALGO_TB_RateEstimationESaIS8_EE5beginEv
_ZNKSt6vectorISt4pairINSt7__cxx1112basic_stringIcSt11char_traitsIcESaIcEEE22ALGO_TB_RateEstimationESaIS8_EE8max_sizeEv
_ZNKSt6vectorISt4pairINSt7__cxx1112basic_stringIcSt11char_traitsIcESaIcEEE28ALGO_TB_IntraPredMode_SubsetESaIS8_EE12_M_check_lenEyPKc
_ZNKSt6vectorISt4pairINSt7__cxx1112basic_stringIcSt11char_traitsIcESaIcEEE28ALGO_TB_IntraPredMode_SubsetESaIS8_EE3endEv
_ZNKSt6vectorISt4pairINSt7__cxx1112basic_stringIcSt11char_traitsIcESaIcEEE28ALGO_TB_IntraPredMode_SubsetESaIS8_EE4sizeEv
_ZNKSt6vectorISt4pairINSt7__cxx1112basic_stringIcSt11char_traitsIcESaIcEEE28ALGO_TB_IntraPredMode_SubsetESaIS8_EE5beginEv
_ZNKSt6vectorISt4pairINSt7__cxx1112basic_stringIcSt11char_traitsIcESaIcEEE28ALGO_TB_IntraPredMode_SubsetESaIS8_EE8max_sizeEv
_ZNKSt6vectorISt4pairINSt7__cxx1112basic_stringIcSt11char_traitsIcESaIcEEE39ALGO_TB_Split_BruteForce_ZeroBlockPruneESaIS8_EE12_M_check_lenEyPKc
_ZNKSt6vectorISt4pairINSt7__cxx1112basic_stringIcSt11char_traitsIcESaIcEEE39ALGO_TB_Split_BruteForce_ZeroBlockPruneESaIS8_EE3endEv
_ZNKSt6vectorISt4pairINSt7__cxx1112basic_stringIcSt11char_traitsIcESaIcEEE39ALGO_TB_Split_BruteForce_ZeroBlockPruneESaIS8_EE4sizeEv
_ZNKSt6vectorISt4pairINSt7__cxx1112basic_stringIcSt11char_traitsIcESaIcEEE39ALGO_TB_Split_BruteForce_ZeroBlockPruneESaIS8_EE5beginEv
_ZNKSt6vectorISt4pairINSt7__cxx1112basic_stringIcSt11char_traitsIcESaIcEEE39ALGO_TB_Split_BruteForce_ZeroBlockPruneESaIS8_EE8max_sizeEv
_ZNKSt6vectorISt4pairINSt7__cxx1112basic_stringIcSt11char_traitsIcESaIcEEE6MEModeESaIS8_EE12_M_check_lenEyPKc
_ZNKSt6vectorISt4pairINSt7__cxx1112basic_stringIcSt11char_traitsIcESaIcEEE6MEModeESaIS8_EE3endEv
_ZNKSt6vectorISt4pairINSt7__cxx1112basic_stringIcSt11char_traitsIcESaIcEEE6MEModeESaIS8_EE4sizeEv
_ZNKSt6vectorISt4pairINSt7__cxx1112basic_stringIcSt11char_traitsIcESaIcEEE6MEModeESaIS8_EE5beginEv
_ZNKSt6vectorISt4pairINSt7__cxx1112basic_stringIcSt11char_traitsIcESaIcEEE6MEModeESaIS8_EE8max_sizeEv
_ZNKSt6vectorISt4pairINSt7__cxx1112basic_stringIcSt11char_traitsIcESaIcEEE8PartModeESaIS8_EE12_M_check_lenEyPKc
_ZNKSt6vectorISt4pairINSt7__cxx1112basic_stringIcSt11char_traitsIcESaIcEEE8PartModeESaIS8_EE3endEv
_ZNKSt6vectorISt4pairINSt7__cxx1112basic_stringIcSt11char_traitsIcESaIcEEE8PartModeESaIS8_EE4sizeEv
_ZNKSt6vectorISt4pairINSt7__cxx1112basic_stringIcSt11char_traitsIcESaIcEEE8PartModeESaIS8_EE5beginEv
_ZNKSt6vectorISt4pairINSt7__cxx1112basic_stringIcSt11char_traitsIcESaIcEEE8PartModeESaIS8_EE8max_sizeEv
_ZNKSt6vectorIcSaIcEE12_M_check_lenEyPKc
_ZNKSt6vectorIcSaIcEE4sizeEv
_ZNKSt6vectorIcSaIcEE8max_sizeEv
_ZNKSt6vectorIcSaIcEEixEy
_ZNKSt6vectorIiSaIiEE12_M_check_lenEyPKc
_ZNKSt6vectorIiSaIiEE3endEv
_ZNKSt6vectorIiSaIiEE4sizeEv
_ZNKSt6vectorIiSaIiEE5beginEv
_ZNKSt6vectorIiSaIiEE5emptyEv
_ZNKSt6vectorIiSaIiEE8capacityEv
_ZNKSt6vectorIiSaIiEE8max_sizeEv
_ZNKSt6vectorIiSaIiEEixEy
_ZNKSt6vectorItSaItEE12_M_check_lenEyPKc
_ZNKSt6vectorItSaItEE4sizeEv
_ZNKSt6vectorItSaItEE8max_sizeEv
_ZNKSt6vectorItSaItEEixEy
_ZNSaI11ref_pic_setEC2Ev
_ZNSaI11ref_pic_setED2Ev
_ZNSaI11sei_messageEC2Ev
_ZNSaI11sei_messageED2Ev
_ZNSaI12CodingOptionI6enc_tbEEC2Ev
_ZNSaI12CodingOptionI6enc_tbEED2Ev
_ZNSaI17pic_parameter_setEC1ERKS0_
_ZNSaI17pic_parameter_setEC1Ev
_ZNSaI17pic_parameter_setEC2ERKS0_
_ZNSaI17pic_parameter_setED1Ev
_ZNSaI17pic_parameter_setED2Ev
_ZNSaI17seq_parameter_setEC1ERKS0_
_ZNSaI17seq_parameter_setEC1Ev
_ZNSaI17seq_parameter_setEC2ERKS0_
_ZNSaI17seq_parameter_setED1Ev
_ZNSaI17seq_parameter_setED2Ev
_ZNSaI18small_image_bufferEC1ERKS0_
_ZNSaI18small_image_bufferEC1Ev
_ZNSaI18small_image_bufferEC2ERKS0_
_ZNSaI18small_image_bufferED1Ev
_ZNSaI18small_image_bufferED2Ev
_ZNSaI19context_model_tableEC2Ev
_ZNSaI19context_model_tableED2Ev
_ZNSaI19video_parameter_setEC1ERKS0_
_ZNSaI19video_parameter_setEC1Ev
_ZNSaI19video_parameter_setEC2ERKS0_
_ZNSaI19video_parameter_setED1Ev
_ZNSaI19video_parameter_setED2Ev
_ZNSaIN13CodingOptionsI6enc_cbE16CodingOptionDataEEC2Ev
_ZNSaIN13CodingOptionsI6enc_cbE16CodingOptionDataEED2Ev
_ZNSaIN13CodingOptionsI6enc_tbE16CodingOptionDataEEC2Ev
_ZNSaIN13CodingOptionsI6enc_tbE16CodingOptionDataEED2Ev
_ZNSaINSt7__cxx1112basic_stringIcSt11char_traitsIcESaIcEEEEC2Ev
_ZNSaINSt7__cxx1112basic_stringIcSt11char_traitsIcESaIcEEEED2Ev
_ZNSaIP10image_dataEC1ERKS1_
_ZNSaIP10image_dataEC2ERKS1_
_ZNSaIP10image_dataEC2Ev
_ZNSaIP10image_dataED1Ev
_ZNSaIP10image_dataED2Ev
_ZNSaIP10image_unitEC2Ev
_ZNSaIP10image_unitED2Ev
_ZNSaIP10slice_unitEC2Ev
_ZNSaIP10slice_unitED2Ev
_ZNSaIP11de265_imageEC2Ev
_ZNSaIP11de265_imageED2Ev
_ZNSaIP11option_baseEC2Ev
_ZNSaIP11option_baseED2Ev
_ZNSaIP11thread_taskEC2Ev
_ZNSaIP11thread_taskED2Ev
_ZNSaIP12en265_packetEC2Ev
_ZNSaIP12en265_packetED2Ev
_ZNSaIP20slice_segment_headerEC2Ev
_ZNSaIP20slice_segment_headerED2Ev
_ZNSaIP6enc_cbEC2Ev
_ZNSaIP6enc_cbED2Ev
_ZNSaIP8NAL_unitEC2Ev
_ZNSaIP8NAL_unitED2Ev
_ZNSaIPP10image_dataEC1IS0_EERKSaIT_E
_ZNSaIPP10image_dataED1Ev
_ZNSaIPP11de265_imageEC1IS0_EERKSaIT_E
_ZNSaIPP11de265_imageED1Ev
_ZNSaIPP11thread_taskEC1IS0_EERKSaIT_E
_ZNSaIPP11thread_taskED1Ev
_ZNSaIPP12en265_packetEC1IS0_EERKSaIT_E
_ZNSaIPP12en265_packetED1Ev
_ZNSaIPP8NAL_unitEC1IS0_EERKSaIT_E
_ZNSaIPP8NAL_unitED1Ev
_ZNSaIPhEC2Ev
_ZNSaIPhED2Ev
_ZNSaIPvEC2Ev
_ZNSaIPvED2Ev
_ZNSaISt23_Sp_counted_ptr_inplaceI17pic_parameter_setSaIS0_ELN9__gnu_cxx12_Lock_policyE2EEEC1IS0_EERKSaIT_E
_ZNSaISt23_Sp_counted_ptr_inplaceI17pic_parameter_setSaIS0_ELN9__gnu_cxx12_Lock_policyE2EEED1Ev
_ZNSaISt23_Sp_counted_ptr_inplaceI17seq_parameter_setSaIS0_ELN9__gnu_cxx12_Lock_policyE2EEEC1IS0_EERKSaIT_E
_ZNSaISt23_Sp_counted_ptr_inplaceI17seq_parameter_setSaIS0_ELN9__gnu_cxx12_Lock_policyE2EEED1Ev
_ZNSaISt23_Sp_counted_ptr_inplaceI18small_image_bufferSaIS0_ELN9__gnu_cxx12_Lock_policyE2EEEC1IS0_EERKSaIT_E
_ZNSaISt23_Sp_counted_ptr_inplaceI18small_image_bufferSaIS0_ELN9__gnu_cxx12_Lock_policyE2EEED1Ev
_ZNSaISt23_Sp_counted_ptr_inplaceI19video_parameter_setSaIS0_ELN9__gnu_cxx12_Lock_policyE2EEEC1IS0_EERKSaIT_E
_ZNSaISt23_Sp_counted_ptr_inplaceI19video_parameter_setSaIS0_ELN9__gnu_cxx12_Lock_policyE2EEED1Ev
_ZNSaISt4pairI13IntraPredModefEEC2Ev
_ZNSaISt4pairI13IntraPredModefEED2Ev
_ZNSaISt4pairINSt7__cxx1112basic_stringIcSt11char_traitsIcESaIcEEE10MVTestModeEEC2Ev
_ZNSaISt4pairINSt7__cxx1112basic_stringIcSt11char_traitsIcESaIcEEE10MVTestModeEED2Ev
_ZNSaISt4pairINSt7__cxx1112basic_stringIcSt11char_traitsIcESaIcEEE12MVSearchAlgoEEC2Ev
_ZNSaISt4pairINSt7__cxx1112basic_stringIcSt11char_traitsIcESaIcEEE12MVSearchAlgoEED2Ev
_ZNSaISt4pairINSt7__cxx1112basic_stringIcSt11char_traitsIcESaIcEEE13SOP_StructureEEC2Ev
_ZNSaISt4pairINSt7__cxx1112basic_stringIcSt11char_traitsIcESaIcEEE13SOP_StructureEED2Ev
_ZNSaISt4pairINSt7__cxx1112basic_stringIcSt11char_traitsIcESaIcEEE20TBBitrateEstimMethodEEC2Ev
_ZNSaISt4pairINSt7__cxx1112basic_stringIcSt11char_traitsIcESaIcEEE20TBBitrateEstimMethodEED2Ev
_ZNSaISt4pairINSt7__cxx1112basic_stringIcSt11char_traitsIcESaIcEEE21ALGO_CB_IntraPartModeEEC2Ev
_ZNSaISt4pairINSt7__cxx1112basic_stringIcSt11char_traitsIcESaIcEEE21ALGO_CB_IntraPartModeEED2Ev
_ZNSaISt4pairINSt7__cxx1112basic_stringIcSt11char_traitsIcESaIcEEE21ALGO_TB_IntraPredModeEEC2Ev
_ZNSaISt4pairINSt7__cxx1112basic_stringIcSt11char_traitsIcESaIcEEE21ALGO_TB_IntraPredModeEED2Ev
_ZNSaISt4pairINSt7__cxx1112basic_stringIcSt11char_traitsIcESaIcEEE22ALGO_TB_RateEstimationEEC2Ev
_ZNSaISt4pairINSt7__cxx1112basic_stringIcSt11char_traitsIcESaIcEEE22ALGO_TB_RateEstimationEED2Ev
_ZNSaISt4pairINSt7__cxx1112basic_stringIcSt11char_traitsIcESaIcEEE28ALGO_TB_IntraPredMode_SubsetEEC2Ev
_ZNSaISt4pairINSt7__cxx1112basic_stringIcSt11char_traitsIcESaIcEEE28ALGO_TB_IntraPredMode_SubsetEED2Ev
_ZNSaISt4pairINSt7__cxx1112basic_stringIcSt11char_traitsIcESaIcEEE39ALGO_TB_Split_BruteForce_ZeroBlockPruneEEC2Ev
_ZNSaISt4pairINSt7__cxx1112basic_stringIcSt11char_traitsIcESaIcEEE39ALGO_TB_Split_BruteForce_ZeroBlockPruneEED2Ev
_ZNSaISt4pairINSt7__cxx1112basic_stringIcSt11char_traitsIcESaIcEEE6MEModeEEC2Ev
_ZNSaISt4pairINSt7__cxx1112basic_stringIcSt11char_traitsIcESaIcEEE6MEModeEED2Ev
_ZNSaISt4pairINSt7__cxx1112basic_stringIcSt11char_traitsIcESaIcEEE8PartModeEEC2Ev
_ZNSaISt4pairINSt7__cxx1112basic_stringIcSt11char_traitsIcESaIcEEE8PartModeEED2Ev
_ZNSaISt6vectorIcSaIcEEEC2Ev
_ZNSaISt6vectorIcSaIcEEED2Ev
_ZNSaIhEC1Ev
_ZNSaIhEC2ERKS_
_ZNSaIhED1Ev
_ZNSaIhED2Ev
_ZNSaIiEC1Ev
_ZNSaIiEC2ERKS_
_ZNSaIiEC2Ev
_ZNSaIiED1Ev
_ZNSaIiED2Ev
_ZNSaItEC2Ev
_ZNSaItED2Ev
_ZNSt10shared_ptrI11sop_creatorEC1Ev
_ZNSt10shared_ptrI11sop_creatorED1Ev
_ZNSt10shared_ptrI11sop_creatorEaSI22sop_creator_intra_onlyEENSt9enable_ifIXsrSt13is_assignableIRSt12__shared_ptrIS0_LN9__gnu_cxx12_Lock_policyE2EES_IT_EE5valueERS1_E4typeEOSC_
_ZNSt10shared_ptrI11sop_creatorEaSI29sop_creator_trivial_low_delayEENSt9enable_ifIXsrSt13is_assignableIRSt12__shared_ptrIS0_LN9__gnu_cxx12_Lock_policyE2EERKS_IT_EE5valueERS1_E4typeESE_
_ZNSt10shared_ptrI17pic_parameter_setEC1EDn
_ZNSt10shared_ptrI17pic_parameter_setEC1ERKS1_
_ZNSt10shared_ptrI17pic_parameter_setEC1Ev
_ZNSt10shared_ptrI17pic_parameter_setEC1ISaIS0_EJEEESt19_Sp_make_shared_tagRKT_DpOT0_
_ZNSt10shared_ptrI17pic_parameter_setED1Ev
_ZNSt10shared_ptrI17pic_parameter_setEaSEOS1_
_ZNSt10shared_ptrI17pic_parameter_setEaSERKS1_
_ZNSt10shared_ptrI17seq_parameter_setEC1EDn
_ZNSt10shared_ptrI17seq_parameter_setEC1ERKS1_
_ZNSt10shared_ptrI17seq_parameter_setEC1Ev
_ZNSt10shared_ptrI17seq_parameter_setEC1ISaIS0_EJEEESt19_Sp_make_shared_tagRKT_DpOT0_
_ZNSt10shared_ptrI17seq_parameter_setED1Ev
_ZNSt10shared_ptrI17seq_parameter_setEaSEOS1_
_ZNSt10shared_ptrI17seq_parameter_setEaSERKS1_
_ZNSt10shared_ptrI18small_image_bufferEC1ERKS1_
_ZNSt10shared_ptrI18small_image_bufferEC1ISaIS0_EJRiyEEESt19_Sp_make_shared_tagRKT_DpOT0_
_ZNSt10shared_ptrI18small_image_bufferED1Ev
_ZNSt10shared_ptrI18small_image_bufferEaSEOS1_
_ZNSt10shared_ptrI19video_parameter_setEC1EDn
_ZNSt10shared_ptrI19video_parameter_setEC1ERKS1_
_ZNSt10shared_ptrI19video_parameter_setEC1Ev
_ZNSt10shared_ptrI19video_parameter_setEC1ISaIS0_EJEEESt19_Sp_make_shared_tagRKT_DpOT0_
_ZNSt10shared_ptrI19video_parameter_setED1Ev
_ZNSt10shared_ptrI19video_parameter_setEaSEOS1_
_ZNSt10shared_ptrI19video_parameter_setEaSERKS1_
_ZNSt10shared_ptrI22sop_creator_intra_onlyEC1IS0_vEEPT_
_ZNSt10shared_ptrI22sop_creator_intra_onlyED1Ev
_ZNSt10shared_ptrI29sop_creator_trivial_low_delayEC1IS0_vEEPT_
_ZNSt10shared_ptrI29sop_creator_trivial_low_delayED1Ev
_ZNSt10shared_ptrIK17pic_parameter_setEC1Ev
_ZNSt10shared_ptrIK17pic_parameter_setED1Ev
_ZNSt10shared_ptrIK17pic_parameter_setEaSIS0_EENSt9enable_ifIXsrSt13is_assignableIRSt12__shared_ptrIS1_LN9__gnu_cxx12_Lock_policyE2EERKS_IT_EE5valueERS2_E4typeESE_
_ZNSt10shared_ptrIK17seq_parameter_setEC1EDn
_ZNSt10shared_ptrIK17seq_parameter_setEC1ERKS2_
_ZNSt10shared_ptrIK17seq_parameter_setEC1Ev
_ZNSt10shared_ptrIK17seq_parameter_setEC1IS0_vEERKS_IT_E
_ZNSt10shared_ptrIK17seq_parameter_setED1Ev
_ZNSt10shared_ptrIK17seq_parameter_setEaSERKS2_
_ZNSt10shared_ptrIK17seq_parameter_setEaSIS0_EENSt9enable_ifIXsrSt13is_assignableIRSt12__shared_ptrIS1_LN9__gnu_cxx12_Lock_policyE2EERKS_IT_EE5valueERS2_E4typeESE_
_ZNSt10shared_ptrIK19video_parameter_setEC1Ev
_ZNSt10shared_ptrIK19video_parameter_setED1Ev
_ZNSt10shared_ptrIK19video_parameter_setEaSIS0_EENSt9enable_ifIXsrSt13is_assignableIRSt12__shared_ptrIS1_LN9__gnu_cxx12_Lock_policyE2EERKS_IT_EE5valueERS2_E4typeESE_
_ZNSt11_Deque_baseIP10image_dataSaIS1_EE11_Deque_impl12_M_swap_dataERS4_
_ZNSt11_Deque_baseIP10image_dataSaIS1_EE11_Deque_implC1ERKS2_
_ZNSt11_Deque_baseIP10image_dataSaIS1_EE11_Deque_implC1Ev
_ZNSt11_Deque_baseIP10image_dataSaIS1_EE11_Deque_implD1Ev
_ZNSt11_Deque_baseIP10image_dataSaIS1_EE15_M_allocate_mapEy
_ZNSt11_Deque_baseIP10image_dataSaIS1_EE15_M_create_nodesEPPS1_S5_
_ZNSt11_Deque_baseIP10image_dataSaIS1_EE16_M_allocate_nodeEv
_ZNSt11_Deque_baseIP10image_dataSaIS1_EE16_M_destroy_nodesEPPS1_S5_
_ZNSt11_Deque_baseIP10image_dataSaIS1_EE17_M_deallocate_mapEPPS1_y
_ZNSt11_Deque_baseIP10image_dataSaIS1_EE17_M_initialize_mapEy
_ZNSt11_Deque_baseIP10image_dataSaIS1_EE18_M_deallocate_nodeEPS1_
_ZNSt11_Deque_baseIP10image_dataSaIS1_EE19_M_get_Tp_allocatorEv
_ZNSt11_Deque_baseIP10image_dataSaIS1_EEC2ERKS2_y
_ZNSt11_Deque_baseIP10image_dataSaIS1_EEC2Ev
_ZNSt11_Deque_baseIP10image_dataSaIS1_EED2Ev
_ZNSt11_Deque_baseIP11de265_imageSaIS1_EE11_Deque_implC1Ev
_ZNSt11_Deque_baseIP11de265_imageSaIS1_EE11_Deque_implD1Ev
_ZNSt11_Deque_baseIP11de265_imageSaIS1_EE15_M_allocate_mapEy
_ZNSt11_Deque_baseIP11de265_imageSaIS1_EE15_M_create_nodesEPPS1_S5_
_ZNSt11_Deque_baseIP11de265_imageSaIS1_EE16_M_allocate_nodeEv
_ZNSt11_Deque_baseIP11de265_imageSaIS1_EE16_M_destroy_nodesEPPS1_S5_
_ZNSt11_Deque_baseIP11de265_imageSaIS1_EE17_M_deallocate_mapEPPS1_y
_ZNSt11_Deque_baseIP11de265_imageSaIS1_EE17_M_initialize_mapEy
_ZNSt11_Deque_baseIP11de265_imageSaIS1_EE18_M_deallocate_nodeEPS1_
_ZNSt11_Deque_baseIP11de265_imageSaIS1_EE19_M_get_Tp_allocatorEv
_ZNSt11_Deque_baseIP11de265_imageSaIS1_EEC2Ev
_ZNSt11_Deque_baseIP11de265_imageSaIS1_EED2Ev
_ZNSt11_Deque_baseIP11thread_taskSaIS1_EE11_Deque_implC1Ev
_ZNSt11_Deque_baseIP11thread_taskSaIS1_EE11_Deque_implD1Ev
_ZNSt11_Deque_baseIP11thread_taskSaIS1_EE15_M_allocate_mapEy
_ZNSt11_Deque_baseIP11thread_taskSaIS1_EE15_M_create_nodesEPPS1_S5_
_ZNSt11_Deque_baseIP11thread_taskSaIS1_EE16_M_allocate_nodeEv
_ZNSt11_Deque_baseIP11thread_taskSaIS1_EE16_M_destroy_nodesEPPS1_S5_
_ZNSt11_Deque_baseIP11thread_taskSaIS1_EE17_M_deallocate_mapEPPS1_y
_ZNSt11_Deque_baseIP11thread_taskSaIS1_EE17_M_initialize_mapEy
_ZNSt11_Deque_baseIP11thread_taskSaIS1_EE18_M_deallocate_nodeEPS1_
_ZNSt11_Deque_baseIP11thread_taskSaIS1_EE19_M_get_Tp_allocatorEv
_ZNSt11_Deque_baseIP11thread_taskSaIS1_EEC2Ev
_ZNSt11_Deque_baseIP11thread_taskSaIS1_EED2Ev
_ZNSt11_Deque_baseIP12en265_packetSaIS1_EE11_Deque_implC1Ev
_ZNSt11_Deque_baseIP12en265_packetSaIS1_EE11_Deque_implD1Ev
_ZNSt11_Deque_baseIP12en265_packetSaIS1_EE15_M_allocate_mapEy
_ZNSt11_Deque_baseIP12en265_packetSaIS1_EE15_M_create_nodesEPPS1_S5_
_ZNSt11_Deque_baseIP12en265_packetSaIS1_EE16_M_allocate_nodeEv
_ZNSt11_Deque_baseIP12en265_packetSaIS1_EE16_M_destroy_nodesEPPS1_S5_
_ZNSt11_Deque_baseIP12en265_packetSaIS1_EE17_M_deallocate_mapEPPS1_y
_ZNSt11_Deque_baseIP12en265_packetSaIS1_EE17_M_initialize_mapEy
_ZNSt11_Deque_baseIP12en265_packetSaIS1_EE18_M_deallocate_nodeEPS1_
_ZNSt11_Deque_baseIP12en265_packetSaIS1_EE19_M_get_Tp_allocatorEv
_ZNSt11_Deque_baseIP12en265_packetSaIS1_EEC2Ev
_ZNSt11_Deque_baseIP12en265_packetSaIS1_EED2Ev
_ZNSt11_Deque_baseIP8NAL_unitSaIS1_EE11_Deque_implC1Ev
_ZNSt11_Deque_baseIP8NAL_unitSaIS1_EE11_Deque_implD1Ev
_ZNSt11_Deque_baseIP8NAL_unitSaIS1_EE15_M_allocate_mapEy
_ZNSt11_Deque_baseIP8NAL_unitSaIS1_EE15_M_create_nodesEPPS1_S5_
_ZNSt11_Deque_baseIP8NAL_unitSaIS1_EE16_M_allocate_nodeEv
_ZNSt11_Deque_baseIP8NAL_unitSaIS1_EE16_M_destroy_nodesEPPS1_S5_
_ZNSt11_Deque_baseIP8NAL_unitSaIS1_EE17_M_deallocate_mapEPPS1_y
_ZNSt11_Deque_baseIP8NAL_unitSaIS1_EE17_M_initialize_mapEy
_ZNSt11_Deque_baseIP8NAL_unitSaIS1_EE18_M_deallocate_nodeEPS1_
_ZNSt11_Deque_baseIP8NAL_unitSaIS1_EE19_M_get_Tp_allocatorEv
_ZNSt11_Deque_baseIP8NAL_unitSaIS1_EEC2Ev
_ZNSt11_Deque_baseIP8NAL_unitSaIS1_EED2Ev
_ZNSt11__copy_moveILb0ELb0ESt26random_access_iterator_tagE8__copy_mISt15_Deque_iteratorIP10image_dataRKS5_PS6_ES3_IS5_RS5_PS5_EEET0_T_SE_SD_
_ZNSt11__copy_moveILb0ELb1ESt26random_access_iterator_tagE8__copy_mIP10image_dataEEPT_PKS5_S8_S6_
_ZNSt11__copy_moveILb0ELb1ESt26random_access_iterator_tagE8__copy_mIPP10image_dataEEPT_PKS6_S9_S7_
_ZNSt11__copy_moveILb0ELb1ESt26random_access_iterator_tagE8__copy_mIPP11de265_imageEEPT_PKS6_S9_S7_
_ZNSt11__copy_moveILb0ELb1ESt26random_access_iterator_tagE8__copy_mIPP11thread_taskEEPT_PKS6_S9_S7_
_ZNSt11__copy_moveILb0ELb1ESt26random_access_iterator_tagE8__copy_mIPP12en265_packetEEPT_PKS6_S9_S7_
_ZNSt11__copy_moveILb0ELb1ESt26random_access_iterator_tagE8__copy_mIPP8NAL_unitEEPT_PKS6_S9_S7_
_ZNSt11__copy_moveILb0ELb1ESt26random_access_iterator_tagE8__copy_mIiEEPT_PKS3_S6_S4_
_ZNSt11__copy_moveILb1ELb0ESt26random_access_iterator_tagE8__copy_mISt15_Deque_iteratorIP10image_dataRS5_PS5_ES8_EET0_T_SA_S9_
_ZNSt11__copy_moveILb1ELb1ESt26random_access_iterator_tagE8__copy_mI11ref_pic_setEEPT_PKS4_S7_S5_
_ZNSt11__copy_moveILb1ELb1ESt26random_access_iterator_tagE8__copy_mI11sei_messageEEPT_PKS4_S7_S5_
_ZNSt11__copy_moveILb1ELb1ESt26random_access_iterator_tagE8__copy_mIP10image_dataEEPT_PKS5_S8_S6_
_ZNSt11__copy_moveILb1ELb1ESt26random_access_iterator_tagE8__copy_mIP10image_unitEEPT_PKS5_S8_S6_
_ZNSt11__copy_moveILb1ELb1ESt26random_access_iterator_tagE8__copy_mIP10slice_unitEEPT_PKS5_S8_S6_
_ZNSt11__copy_moveILb1ELb1ESt26random_access_iterator_tagE8__copy_mIP11de265_imageEEPT_PKS5_S8_S6_
_ZNSt11__copy_moveILb1ELb1ESt26random_access_iterator_tagE8__copy_mIP11option_baseEEPT_PKS5_S8_S6_
_ZNSt11__copy_moveILb1ELb1ESt26random_access_iterator_tagE8__copy_mIP11thread_taskEEPT_PKS5_S8_S6_
_ZNSt11__copy_moveILb1ELb1ESt26random_access_iterator_tagE8__copy_mIP20slice_segment_headerEEPT_PKS5_S8_S6_
_ZNSt11__copy_moveILb1ELb1ESt26random_access_iterator_tagE8__copy_mIP6enc_cbEEPT_PKS5_S8_S6_
_ZNSt11__copy_moveILb1ELb1ESt26random_access_iterator_tagE8__copy_mIP8NAL_unitEEPT_PKS5_S8_S6_
_ZNSt11__copy_moveILb1ELb1ESt26random_access_iterator_tagE8__copy_mIPhEEPT_PKS4_S7_S5_
_ZNSt11__copy_moveILb1ELb1ESt26random_access_iterator_tagE8__copy_mIPvEEPT_PKS4_S7_S5_
_ZNSt11__copy_moveILb1ELb1ESt26random_access_iterator_tagE8__copy_mIcEEPT_PKS3_S6_S4_
_ZNSt11__copy_moveILb1ELb1ESt26random_access_iterator_tagE8__copy_mIiEEPT_PKS3_S6_S4_
_ZNSt11__copy_moveILb1ELb1ESt26random_access_iterator_tagE8__copy_mItEEPT_PKS3_S6_S4_
_ZNSt11char_traitsIcE7compareEPKcS2_y
_ZNSt12_Destroy_auxILb0EE9__destroyIP19context_model_tableEEvT_S4_
_ZNSt12_Destroy_auxILb0EE9__destroyIPN13CodingOptionsI6enc_cbE16CodingOptionDataEEEvT_S7_
_ZNSt12_Destroy_auxILb0EE9__destroyIPN13CodingOptionsI6enc_tbE16CodingOptionDataEEEvT_S7_
_ZNSt12_Destroy_auxILb0EE9__destroyIPNSt7__cxx1112basic_stringIcSt11char_traitsIcESaIcEEEEEvT_S9_
_ZNSt12_Destroy_auxILb0EE9__destroyIPSt4pairINSt7__cxx1112basic_stringIcSt11char_traitsIcESaIcEEE10MVTestModeEEEvT_SC_
_ZNSt12_Destroy_auxILb0EE9__destroyIPSt4pairINSt7__cxx1112basic_stringIcSt11char_traitsIcESaIcEEE12MVSearchAlgoEEEvT_SC_
_ZNSt12_Destroy_auxILb0EE9__destroyIPSt4pairINSt7__cxx1112basic_stringIcSt11char_traitsIcESaIcEEE13SOP_StructureEEEvT_SC_
_ZNSt12_Destroy_auxILb0EE9__destroyIPSt4pairINSt7__cxx1112basic_stringIcSt11char_traitsIcESaIcEEE20TBBitrateEstimMethodEEEvT_SC_
_ZNSt12_Destroy_auxILb0EE9__destroyIPSt4pairINSt7__cxx1112basic_stringIcSt11char_traitsIcESaIcEEE21ALGO_CB_IntraPartModeEEEvT_SC_
_ZNSt12_Destroy_auxILb0EE9__destroyIPSt4pairINSt7__cxx1112basic_stringIcSt11char_traitsIcESaIcEEE21ALGO_TB_IntraPredModeEEEvT_SC_
_ZNSt12_Destroy_auxILb0EE9__destroyIPSt4pairINSt7__cxx1112basic_stringIcSt11char_traitsIcESaIcEEE22ALGO_TB_RateEstimationEEEvT_SC_
_ZNSt12_Destroy_auxILb0EE9__destroyIPSt4pairINSt7__cxx1112basic_stringIcSt11char_traitsIcESaIcEEE28ALGO_TB_IntraPredMode_SubsetEEEvT_SC_
_ZNSt12_Destroy_auxILb0EE9__destroyIPSt4pairINSt7__cxx1112basic_stringIcSt11char_traitsIcESaIcEEE39ALGO_TB_Split_BruteForce_ZeroBlockPruneEEEvT_SC_
_ZNSt12_Destroy_auxILb0EE9__destroyIPSt4pairINSt7__cxx1112basic_stringIcSt11char_traitsIcESaIcEEE6MEModeEEEvT_SC_
_ZNSt12_Destroy_auxILb0EE9__destroyIPSt4pairINSt7__cxx1112basic_stringIcSt11char_traitsIcESaIcEEE8PartModeEEEvT_SC_
_ZNSt12_Destroy_auxILb0EE9__destroyIPSt6vectorIcSaIcEEEEvT_S6_
_ZNSt12_Destroy_auxILb1EE9__destroyIN9__gnu_cxx17__normal_iteratorIPiSt6vectorIiSaIiEEEEEEvT_S9_
_ZNSt12_Destroy_auxILb1EE9__destroyIP11ref_pic_setEEvT_S4_
_ZNSt12_Destroy_auxILb1EE9__destroyIP11sei_messageEEvT_S4_
_ZNSt12_Destroy_auxILb1EE9__destroyIP12CodingOptionI6enc_tbEEEvT_S6_
_ZNSt12_Destroy_auxILb1EE9__destroyIPP10image_unitEEvT_S5_
_ZNSt12_Destroy_auxILb1EE9__destroyIPP10slice_unitEEvT_S5_
_ZNSt12_Destroy_auxILb1EE9__destroyIPP11de265_imageEEvT_S5_
_ZNSt12_Destroy_auxILb1EE9__destroyIPP11option_baseEEvT_S5_
_ZNSt12_Destroy_auxILb1EE9__destroyIPP11thread_taskEEvT_S5_
_ZNSt12_Destroy_auxILb1EE9__destroyIPP20slice_segment_headerEEvT_S5_
_ZNSt12_Destroy_auxILb1EE9__destroyIPP6enc_cbEEvT_S5_
_ZNSt12_Destroy_auxILb1EE9__destroyIPP8NAL_unitEEvT_S5_
_ZNSt12_Destroy_auxILb1EE9__destroyIPPhEEvT_S4_
_ZNSt12_Destroy_auxILb1EE9__destroyIPPvEEvT_S4_
_ZNSt12_Destroy_auxILb1EE9__destroyIPSt4pairI13IntraPredModefEEEvT_S6_
_ZNSt12_Destroy_auxILb1EE9__destroyIPcEEvT_S3_
_ZNSt12_Destroy_auxILb1EE9__destroyIPhEEvT_S3_
_ZNSt12_Destroy_auxILb1EE9__destroyIPiEEvT_S3_
_ZNSt12_Destroy_auxILb1EE9__destroyIPtEEvT_S3_
_ZNSt12_Destroy_auxILb1EE9__destroyISt15_Deque_iteratorIP10image_dataRS4_PS4_EEEvT_S8_
_ZNSt12_Vector_baseI11ref_pic_setSaIS0_EE11_M_allocateEy
_ZNSt12_Vector_baseI11ref_pic_setSaIS0_EE12_Vector_implC1Ev
_ZNSt12_Vector_baseI11ref_pic_setSaIS0_EE12_Vector_implD1Ev
_ZNSt12_Vector_baseI11ref_pic_setSaIS0_EE13_M_deallocateEPS0_y
_ZNSt12_Vector_baseI11ref_pic_setSaIS0_EE19_M_get_Tp_allocatorEv
_ZNSt12_Vector_baseI11ref_pic_setSaIS0_EEC2Ev
_ZNSt12_Vector_baseI11ref_pic_setSaIS0_EED2Ev
_ZNSt12_Vector_baseI11sei_messageSaIS0_EE11_M_allocateEy
_ZNSt12_Vector_baseI11sei_messageSaIS0_EE12_Vector_implC1Ev
_ZNSt12_Vector_baseI11sei_messageSaIS0_EE12_Vector_implD1Ev
_ZNSt12_Vector_baseI11sei_messageSaIS0_EE13_M_deallocateEPS0_y
_ZNSt12_Vector_baseI11sei_messageSaIS0_EE19_M_get_Tp_allocatorEv
_ZNSt12_Vector_baseI11sei_messageSaIS0_EEC2Ev
_ZNSt12_Vector_baseI11sei_messageSaIS0_EED2Ev
_ZNSt12_Vector_baseI12CodingOptionI6enc_tbESaIS2_EE11_M_allocateEy
_ZNSt12_Vector_baseI12CodingOptionI6enc_tbESaIS2_EE12_Vector_implC1Ev
_ZNSt12_Vector_baseI12CodingOptionI6enc_tbESaIS2_EE12_Vector_implD1Ev
_ZNSt12_Vector_baseI12CodingOptionI6enc_tbESaIS2_EE13_M_deallocateEPS2_y
_ZNSt12_Vector_baseI12CodingOptionI6enc_tbESaIS2_EE19_M_get_Tp_allocatorEv
_ZNSt12_Vector_baseI12CodingOptionI6enc_tbESaIS2_EEC2Ev
_ZNSt12_Vector_baseI12CodingOptionI6enc_tbESaIS2_EED2Ev
_ZNSt12_Vector_baseI19context_model_tableSaIS0_EE11_M_allocateEy
_ZNSt12_Vector_baseI19context_model_tableSaIS0_EE12_Vector_implC1Ev
_ZNSt12_Vector_baseI19context_model_tableSaIS0_EE12_Vector_implD1Ev
_ZNSt12_Vector_baseI19context_model_tableSaIS0_EE13_M_deallocateEPS0_y
_ZNSt12_Vector_baseI19context_model_tableSaIS0_EE19_M_get_Tp_allocatorEv
_ZNSt12_Vector_baseI19context_model_tableSaIS0_EEC2Ev
_ZNSt12_Vector_baseI19context_model_tableSaIS0_EED2Ev
_ZNSt12_Vector_baseIN13CodingOptionsI6enc_cbE16CodingOptionDataESaIS3_EE11_M_allocateEy
_ZNSt12_Vector_baseIN13CodingOptionsI6enc_cbE16CodingOptionDataESaIS3_EE12_Vector_implC1Ev
_ZNSt12_Vector_baseIN13CodingOptionsI6enc_cbE16CodingOptionDataESaIS3_EE12_Vector_implD1Ev
_ZNSt12_Vector_baseIN13CodingOptionsI6enc_cbE16CodingOptionDataESaIS3_EE13_M_deallocateEPS3_y
_ZNSt12_Vector_baseIN13CodingOptionsI6enc_cbE16CodingOptionDataESaIS3_EE19_M_get_Tp_allocatorEv
_ZNSt12_Vector_baseIN13CodingOptionsI6enc_cbE16CodingOptionDataESaIS3_EEC2Ev
_ZNSt12_Vector_baseIN13CodingOptionsI6enc_cbE16CodingOptionDataESaIS3_EED2Ev
_ZNSt12_Vector_baseIN13CodingOptionsI6enc_tbE16CodingOptionDataESaIS3_EE11_M_allocateEy
_ZNSt12_Vector_baseIN13CodingOptionsI6enc_tbE16CodingOptionDataESaIS3_EE12_Vector_implC1Ev
_ZNSt12_Vector_baseIN13CodingOptionsI6enc_tbE16CodingOptionDataESaIS3_EE12_Vector_implD1Ev
_ZNSt12_Vector_baseIN13CodingOptionsI6enc_tbE16CodingOptionDataESaIS3_EE13_M_deallocateEPS3_y
_ZNSt12_Vector_baseIN13CodingOptionsI6enc_tbE16CodingOptionDataESaIS3_EE19_M_get_Tp_allocatorEv
_ZNSt12_Vector_baseIN13CodingOptionsI6enc_tbE16CodingOptionDataESaIS3_EEC2Ev
_ZNSt12_Vector_baseIN13CodingOptionsI6enc_tbE16CodingOptionDataESaIS3_EED2Ev
_ZNSt12_Vector_baseINSt7__cxx1112basic_stringIcSt11char_traitsIcESaIcEEESaIS5_EE11_M_allocateEy
_ZNSt12_Vector_baseINSt7__cxx1112basic_stringIcSt11char_traitsIcESaIcEEESaIS5_EE12_Vector_implC1Ev
_ZNSt12_Vector_baseINSt7__cxx1112basic_stringIcSt11char_traitsIcESaIcEEESaIS5_EE12_Vector_implD1Ev
_ZNSt12_Vector_baseINSt7__cxx1112basic_stringIcSt11char_traitsIcESaIcEEESaIS5_EE13_M_deallocateEPS5_y
_ZNSt12_Vector_baseINSt7__cxx1112basic_stringIcSt11char_traitsIcESaIcEEESaIS5_EE19_M_get_Tp_allocatorEv
_ZNSt12_Vector_baseINSt7__cxx1112basic_stringIcSt11char_traitsIcESaIcEEESaIS5_EEC2Ev
_ZNSt12_Vector_baseINSt7__cxx1112basic_stringIcSt11char_traitsIcESaIcEEESaIS5_EED2Ev
_ZNSt12_Vector_baseIP10image_unitSaIS1_EE11_M_allocateEy
_ZNSt12_Vector_baseIP10image_unitSaIS1_EE12_Vector_implC1Ev
_ZNSt12_Vector_baseIP10image_unitSaIS1_EE12_Vector_implD1Ev
_ZNSt12_Vector_baseIP10image_unitSaIS1_EE13_M_deallocateEPS1_y
_ZNSt12_Vector_baseIP10image_unitSaIS1_EE19_M_get_Tp_allocatorEv
_ZNSt12_Vector_baseIP10image_unitSaIS1_EEC2Ev
_ZNSt12_Vector_baseIP10image_unitSaIS1_EED2Ev
_ZNSt12_Vector_baseIP10slice_unitSaIS1_EE11_M_allocateEy
_ZNSt12_Vector_baseIP10slice_unitSaIS1_EE12_Vector_implC1Ev
_ZNSt12_Vector_baseIP10slice_unitSaIS1_EE12_Vector_implD1Ev
_ZNSt12_Vector_baseIP10slice_unitSaIS1_EE13_M_deallocateEPS1_y
_ZNSt12_Vector_baseIP10slice_unitSaIS1_EE19_M_get_Tp_allocatorEv
_ZNSt12_Vector_baseIP10slice_unitSaIS1_EEC2Ev
_ZNSt12_Vector_baseIP10slice_unitSaIS1_EED2Ev
_ZNSt12_Vector_baseIP11de265_imageSaIS1_EE11_M_allocateEy
_ZNSt12_Vector_baseIP11de265_imageSaIS1_EE12_Vector_implC1Ev
_ZNSt12_Vector_baseIP11de265_imageSaIS1_EE12_Vector_implD1Ev
_ZNSt12_Vector_baseIP11de265_imageSaIS1_EE13_M_deallocateEPS1_y
_ZNSt12_Vector_baseIP11de265_imageSaIS1_EE19_M_get_Tp_allocatorEv
_ZNSt12_Vector_baseIP11de265_imageSaIS1_EEC2Ev
_ZNSt12_Vector_baseIP11de265_imageSaIS1_EED2Ev
_ZNSt12_Vector_baseIP11option_baseSaIS1_EE11_M_allocateEy
_ZNSt12_Vector_baseIP11option_baseSaIS1_EE12_Vector_implC1Ev
_ZNSt12_Vector_baseIP11option_baseSaIS1_EE12_Vector_implD1Ev
_ZNSt12_Vector_baseIP11option_baseSaIS1_EE13_M_deallocateEPS1_y
_ZNSt12_Vector_baseIP11option_baseSaIS1_EE19_M_get_Tp_allocatorEv
_ZNSt12_Vector_baseIP11option_baseSaIS1_EEC2Ev
_ZNSt12_Vector_baseIP11option_baseSaIS1_EED2Ev
_ZNSt12_Vector_baseIP11thread_taskSaIS1_EE11_M_allocateEy
_ZNSt12_Vector_baseIP11thread_taskSaIS1_EE12_Vector_implC1Ev
_ZNSt12_Vector_baseIP11thread_taskSaIS1_EE12_Vector_implD1Ev
_ZNSt12_Vector_baseIP11thread_taskSaIS1_EE13_M_deallocateEPS1_y
_ZNSt12_Vector_baseIP11thread_taskSaIS1_EE19_M_get_Tp_allocatorEv
_ZNSt12_Vector_baseIP11thread_taskSaIS1_EEC2Ev
_ZNSt12_Vector_baseIP11thread_taskSaIS1_EED2Ev
_ZNSt12_Vector_baseIP20slice_segment_headerSaIS1_EE11_M_allocateEy
_ZNSt12_Vector_baseIP20slice_segment_headerSaIS1_EE12_Vector_implC1Ev
_ZNSt12_Vector_baseIP20slice_segment_headerSaIS1_EE12_Vector_implD1Ev
_ZNSt12_Vector_baseIP20slice_segment_headerSaIS1_EE13_M_deallocateEPS1_y
_ZNSt12_Vector_baseIP20slice_segment_headerSaIS1_EE19_M_get_Tp_allocatorEv
_ZNSt12_Vector_baseIP20slice_segment_headerSaIS1_EEC2Ev
_ZNSt12_Vector_baseIP20slice_segment_headerSaIS1_EED2Ev
_ZNSt12_Vector_baseIP6enc_cbSaIS1_EE11_M_allocateEy
_ZNSt12_Vector_baseIP6enc_cbSaIS1_EE12_Vector_implC1Ev
_ZNSt12_Vector_baseIP6enc_cbSaIS1_EE12_Vector_implD1Ev
_ZNSt12_Vector_baseIP6enc_cbSaIS1_EE13_M_deallocateEPS1_y
_ZNSt12_Vector_baseIP6enc_cbSaIS1_EE19_M_get_Tp_allocatorEv
_ZNSt12_Vector_baseIP6enc_cbSaIS1_EEC2Ev
_ZNSt12_Vector_baseIP6enc_cbSaIS1_EED2Ev
_ZNSt12_Vector_baseIP8NAL_unitSaIS1_EE11_M_allocateEy
_ZNSt12_Vector_baseIP8NAL_unitSaIS1_EE12_Vector_implC1Ev
_ZNSt12_Vector_baseIP8NAL_unitSaIS1_EE12_Vector_implD1Ev
_ZNSt12_Vector_baseIP8NAL_unitSaIS1_EE13_M_deallocateEPS1_y
_ZNSt12_Vector_baseIP8NAL_unitSaIS1_EE19_M_get_Tp_allocatorEv
_ZNSt12_Vector_baseIP8NAL_unitSaIS1_EEC2Ev
_ZNSt12_Vector_baseIP8NAL_unitSaIS1_EED2Ev
_ZNSt12_Vector_baseIPhSaIS0_EE11_M_allocateEy
_ZNSt12_Vector_baseIPhSaIS0_EE12_Vector_implC1Ev
_ZNSt12_Vector_baseIPhSaIS0_EE12_Vector_implD1Ev
_ZNSt12_Vector_baseIPhSaIS0_EE13_M_deallocateEPS0_y
_ZNSt12_Vector_baseIPhSaIS0_EE19_M_get_Tp_allocatorEv
_ZNSt12_Vector_baseIPhSaIS0_EEC2Ev
_ZNSt12_Vector_baseIPhSaIS0_EED2Ev
_ZNSt12_Vector_baseIPvSaIS0_EE11_M_allocateEy
_ZNSt12_Vector_baseIPvSaIS0_EE12_Vector_implC1Ev
_ZNSt12_Vector_baseIPvSaIS0_EE12_Vector_implD1Ev
_ZNSt12_Vector_baseIPvSaIS0_EE13_M_deallocateEPS0_y
_ZNSt12_Vector_baseIPvSaIS0_EE19_M_get_Tp_allocatorEv
_ZNSt12_Vector_baseIPvSaIS0_EEC2Ev
_ZNSt12_Vector_baseIPvSaIS0_EED2Ev
_ZNSt12_Vector_baseISt4pairI13IntraPredModefESaIS2_EE11_M_allocateEy
_ZNSt12_Vector_baseISt4pairI13IntraPredModefESaIS2_EE12_Vector_implC1Ev
_ZNSt12_Vector_baseISt4pairI13IntraPredModefESaIS2_EE12_Vector_implD1Ev
_ZNSt12_Vector_baseISt4pairI13IntraPredModefESaIS2_EE13_M_deallocateEPS2_y
_ZNSt12_Vector_baseISt4pairI13IntraPredModefESaIS2_EE19_M_get_Tp_allocatorEv
_ZNSt12_Vector_baseISt4pairI13IntraPredModefESaIS2_EEC2Ev
_ZNSt12_Vector_baseISt4pairI13IntraPredModefESaIS2_EED2Ev
_ZNSt12_Vector_baseISt4pairINSt7__cxx1112basic_stringIcSt11char_traitsIcESaIcEEE10MVTestModeESaIS8_EE11_M_allocateEy
_ZNSt12_Vector_baseISt4pairINSt7__cxx1112basic_stringIcSt11char_traitsIcESaIcEEE10MVTestModeESaIS8_EE12_Vector_implC1Ev
_ZNSt12_Vector_baseISt4pairINSt7__cxx1112basic_stringIcSt11char_traitsIcESaIcEEE10MVTestModeESaIS8_EE12_Vector_implD1Ev
_ZNSt12_Vector_baseISt4pairINSt7__cxx1112basic_stringIcSt11char_traitsIcESaIcEEE10MVTestModeESaIS8_EE13_M_deallocateEPS8_y
_ZNSt12_Vector_baseISt4pairINSt7__cxx1112basic_stringIcSt11char_traitsIcESaIcEEE10MVTestModeESaIS8_EE19_M_get_Tp_allocatorEv
_ZNSt12_Vector_baseISt4pairINSt7__cxx1112basic_stringIcSt11char_traitsIcESaIcEEE10MVTestModeESaIS8_EEC2Ev
_ZNSt12_Vector_baseISt4pairINSt7__cxx1112basic_stringIcSt11char_traitsIcESaIcEEE10MVTestModeESaIS8_EED2Ev
_ZNSt12_Vector_baseISt4pairINSt7__cxx1112basic_stringIcSt11char_traitsIcESaIcEEE12MVSearchAlgoESaIS8_EE11_M_allocateEy
_ZNSt12_Vector_baseISt4pairINSt7__cxx1112basic_stringIcSt11char_traitsIcESaIcEEE12MVSearchAlgoESaIS8_EE12_Vector_implC1Ev
_ZNSt12_Vector_baseISt4pairINSt7__cxx1112basic_stringIcSt11char_traitsIcESaIcEEE12MVSearchAlgoESaIS8_EE12_Vector_implD1Ev
_ZNSt12_Vector_baseISt4pairINSt7__cxx1112basic_stringIcSt11char_traitsIcESaIcEEE12MVSearchAlgoESaIS8_EE13_M_deallocateEPS8_y
_ZNSt12_Vector_baseISt4pairINSt7__cxx1112basic_stringIcSt11char_traitsIcESaIcEEE12MVSearchAlgoESaIS8_EE19_M_get_Tp_allocatorEv
_ZNSt12_Vector_baseISt4pairINSt7__cxx1112basic_stringIcSt11char_traitsIcESaIcEEE12MVSearchAlgoESaIS8_EEC2Ev
_ZNSt12_Vector_baseISt4pairINSt7__cxx1112basic_stringIcSt11char_traitsIcESaIcEEE12MVSearchAlgoESaIS8_EED2Ev
_ZNSt12_Vector_baseISt4pairINSt7__cxx1112basic_stringIcSt11char_traitsIcESaIcEEE13SOP_StructureESaIS8_EE11_M_allocateEy
_ZNSt12_Vector_baseISt4pairINSt7__cxx1112basic_stringIcSt11char_traitsIcESaIcEEE13SOP_StructureESaIS8_EE12_Vector_implC1Ev
_ZNSt12_Vector_baseISt4pairINSt7__cxx1112basic_stringIcSt11char_traitsIcESaIcEEE13SOP_StructureESaIS8_EE12_Vector_implD1Ev
_ZNSt12_Vector_baseISt4pairINSt7__cxx1112basic_stringIcSt11char_traitsIcESaIcEEE13SOP_StructureESaIS8_EE13_M_deallocateEPS8_y
_ZNSt12_Vector_baseISt4pairINSt7__cxx1112basic_stringIcSt11char_traitsIcESaIcEEE13SOP_StructureESaIS8_EE19_M_get_Tp_allocatorEv
_ZNSt12_Vector_baseISt4pairINSt7__cxx1112basic_stringIcSt11char_traitsIcESaIcEEE13SOP_StructureESaIS8_EEC2Ev
_ZNSt12_Vector_baseISt4pairINSt7__cxx1112basic_stringIcSt11char_traitsIcESaIcEEE13SOP_StructureESaIS8_EED2Ev
_ZNSt12_Vector_baseISt4pairINSt7__cxx1112basic_stringIcSt11char_traitsIcESaIcEEE20TBBitrateEstimMethodESaIS8_EE11_M_allocateEy
_ZNSt12_Vector_baseISt4pairINSt7__cxx1112basic_stringIcSt11char_traitsIcESaIcEEE20TBBitrateEstimMethodESaIS8_EE12_Vector_implC1Ev
_ZNSt12_Vector_baseISt4pairINSt7__cxx1112basic_stringIcSt11char_traitsIcESaIcEEE20TBBitrateEstimMethodESaIS8_EE12_Vector_implD1Ev
_ZNSt12_Vector_baseISt4pairINSt7__cxx1112basic_stringIcSt11char_traitsIcESaIcEEE20TBBitrateEstimMethodESaIS8_EE13_M_deallocateEPS8_y
_ZNSt12_Vector_baseISt4pairINSt7__cxx1112basic_stringIcSt11char_traitsIcESaIcEEE20TBBitrateEstimMethodESaIS8_EE19_M_get_Tp_allocatorEv
_ZNSt12_Vector_baseISt4pairINSt7__cxx1112basic_stringIcSt11char_traitsIcESaIcEEE20TBBitrateEstimMethodESaIS8_EEC2Ev
_ZNSt12_Vector_baseISt4pairINSt7__cxx1112basic_stringIcSt11char_traitsIcESaIcEEE20TBBitrateEstimMethodESaIS8_EED2Ev
_ZNSt12_Vector_baseISt4pairINSt7__cxx1112basic_stringIcSt11char_traitsIcESaIcEEE21ALGO_CB_IntraPartModeESaIS8_EE11_M_allocateEy
_ZNSt12_Vector_baseISt4pairINSt7__cxx1112basic_stringIcSt11char_traitsIcESaIcEEE21ALGO_CB_IntraPartModeESaIS8_EE12_Vector_implC1Ev
_ZNSt12_Vector_baseISt4pairINSt7__cxx1112basic_stringIcSt11char_traitsIcESaIcEEE21ALGO_CB_IntraPartModeESaIS8_EE12_Vector_implD1Ev
_ZNSt12_Vector_baseISt4pairINSt7__cxx1112basic_stringIcSt11char_traitsIcESaIcEEE21ALGO_CB_IntraPartModeESaIS8_EE13_M_deallocateEPS8_y
_ZNSt12_Vector_baseISt4pairINSt7__cxx1112basic_stringIcSt11char_traitsIcESaIcEEE21ALGO_CB_IntraPartModeESaIS8_EE19_M_get_Tp_allocatorEv
_ZNSt12_Vector_baseISt4pairINSt7__cxx1112basic_stringIcSt11char_traitsIcESaIcEEE21ALGO_CB_IntraPartModeESaIS8_EEC2Ev
_ZNSt12_Vector_baseISt4pairINSt7__cxx1112basic_stringIcSt11char_traitsIcESaIcEEE21ALGO_CB_IntraPartModeESaIS8_EED2Ev
_ZNSt12_Vector_baseISt4pairINSt7__cxx1112basic_stringIcSt11char_traitsIcESaIcEEE21ALGO_TB_IntraPredModeESaIS8_EE11_M_allocateEy
_ZNSt12_Vector_baseISt4pairINSt7__cxx1112basic_stringIcSt11char_traitsIcESaIcEEE21ALGO_TB_IntraPredModeESaIS8_EE12_Vector_implC1Ev
_ZNSt12_Vector_baseISt4pairINSt7__cxx1112basic_stringIcSt11char_traitsIcESaIcEEE21ALGO_TB_IntraPredModeESaIS8_EE12_Vector_implD1Ev
_ZNSt12_Vector_baseISt4pairINSt7__cxx1112basic_stringIcSt11char_traitsIcESaIcEEE21ALGO_TB_IntraPredModeESaIS8_EE13_M_deallocateEPS8_y
_ZNSt12_Vector_baseISt4pairINSt7__cxx1112basic_stringIcSt11char_traitsIcESaIcEEE21ALGO_TB_IntraPredModeESaIS8_EE19_M_get_Tp_allocatorEv
_ZNSt12_Vector_baseISt4pairINSt7__cxx1112basic_stringIcSt11char_traitsIcESaIcEEE21ALGO_TB_IntraPredModeESaIS8_EEC2Ev
_ZNSt12_Vector_baseISt4pairINSt7__cxx1112basic_stringIcSt11char_traitsIcESaIcEEE21ALGO_TB_IntraPredModeESaIS8_EED2Ev
_ZNSt12_Vector_baseISt4pairINSt7__cxx1112basic_stringIcSt11char_traitsIcESaIcEEE22ALGO_TB_RateEstimationESaIS8_EE11_M_allocateEy
_ZNSt12_Vector_baseISt4pairINSt7__cxx1112basic_stringIcSt11char_traitsIcESaIcEEE22ALGO_TB_RateEstimationESaIS8_EE12_Vector_implC1Ev
_ZNSt12_Vector_baseISt4pairINSt7__cxx1112basic_stringIcSt11char_traitsIcESaIcEEE22ALGO_TB_RateEstimationESaIS8_EE12_Vector_implD1Ev
_ZNSt12_Vector_baseISt4pairINSt7__cxx1112basic_stringIcSt11char_traitsIcESaIcEEE22ALGO_TB_RateEstimationESaIS8_EE13_M_deallocateEPS8_y
_ZNSt12_Vector_baseISt4pairINSt7__cxx1112basic_stringIcSt11char_traitsIcESaIcEEE22ALGO_TB_RateEstimationESaIS8_EE19_M_get_Tp_allocatorEv
_ZNSt12_Vector_baseISt4pairINSt7__cxx1112basic_stringIcSt11char_traitsIcESaIcEEE22ALGO_TB_RateEstimationESaIS8_EEC2Ev
_ZNSt12_Vector_baseISt4pairINSt7__cxx1112basic_stringIcSt11char_traitsIcESaIcEEE22ALGO_TB_RateEstimationESaIS8_EED2Ev
_ZNSt12_Vector_baseISt4pairINSt7__cxx1112basic_stringIcSt11char_traitsIcESaIcEEE28ALGO_TB_IntraPredMode_SubsetESaIS8_EE11_M_allocateEy
_ZNSt12_Vector_baseISt4pairINSt7__cxx1112basic_stringIcSt11char_traitsIcESaIcEEE28ALGO_TB_IntraPredMode_SubsetESaIS8_EE12_Vector_implC1Ev
_ZNSt12_Vector_baseISt4pairINSt7__cxx1112basic_stringIcSt11char_traitsIcESaIcEEE28ALGO_TB_IntraPredMode_SubsetESaIS8_EE12_Vector_implD1Ev
_ZNSt12_Vector_baseISt4pairINSt7__cxx1112basic_stringIcSt11char_traitsIcESaIcEEE28ALGO_TB_IntraPredMode_SubsetESaIS8_EE13_M_deallocateEPS8_y
_ZNSt12_Vector_baseISt4pairINSt7__cxx1112basic_stringIcSt11char_traitsIcESaIcEEE28ALGO_TB_IntraPredMode_SubsetESaIS8_EE19_M_get_Tp_allocatorEv
_ZNSt12_Vector_baseISt4pairINSt7__cxx1112basic_stringIcSt11char_traitsIcESaIcEEE28ALGO_TB_IntraPredMode_SubsetESaIS8_EEC2Ev
_ZNSt12_Vector_baseISt4pairINSt7__cxx1112basic_stringIcSt11char_traitsIcESaIcEEE28ALGO_TB_IntraPredMode_SubsetESaIS8_EED2Ev
_ZNSt12_Vector_baseISt4pairINSt7__cxx1112basic_stringIcSt11char_traitsIcESaIcEEE39ALGO_TB_Split_BruteForce_ZeroBlockPruneESaIS8_EE11_M_allocateEy
_ZNSt12_Vector_baseISt4pairINSt7__cxx1112basic_stringIcSt11char_traitsIcESaIcEEE39ALGO_TB_Split_BruteForce_ZeroBlockPruneESaIS8_EE12_Vector_implC1Ev
_ZNSt12_Vector_baseISt4pairINSt7__cxx1112basic_stringIcSt11char_traitsIcESaIcEEE39ALGO_TB_Split_BruteForce_ZeroBlockPruneESaIS8_EE12_Vector_implD1Ev
_ZNSt12_Vector_baseISt4pairINSt7__cxx1112basic_stringIcSt11char_traitsIcESaIcEEE39ALGO_TB_Split_BruteForce_ZeroBlockPruneESaIS8_EE13_M_deallocateEPS8_y
_ZNSt12_Vector_baseISt4pairINSt7__cxx1112basic_stringIcSt11char_traitsIcESaIcEEE39ALGO_TB_Split_BruteForce_ZeroBlockPruneESaIS8_EE19_M_get_Tp_allocatorEv
_ZNSt12_Vector_baseISt4pairINSt7__cxx1112basic_stringIcSt11char_traitsIcESaIcEEE39ALGO_TB_Split_BruteForce_ZeroBlockPruneESaIS8_EEC2Ev
_ZNSt12_Vector_baseISt4pairINSt7__cxx1112basic_stringIcSt11char_traitsIcESaIcEEE39ALGO_TB_Split_BruteForce_ZeroBlockPruneESaIS8_EED2Ev
_ZNSt12_Vector_baseISt4pairINSt7__cxx1112basic_stringIcSt11char_traitsIcESaIcEEE6MEModeESaIS8_EE11_M_allocateEy
_ZNSt12_Vector_baseISt4pairINSt7__cxx1112basic_stringIcSt11char_traitsIcESaIcEEE6MEModeESaIS8_EE12_Vector_implC1Ev
_ZNSt12_Vector_baseISt4pairINSt7__cxx1112basic_stringIcSt11char_traitsIcESaIcEEE6MEModeESaIS8_EE12_Vector_implD1Ev
_ZNSt12_Vector_baseISt4pairINSt7__cxx1112basic_stringIcSt11char_traitsIcESaIcEEE6MEModeESaIS8_EE13_M_deallocateEPS8_y
_ZNSt12_Vector_baseISt4pairINSt7__cxx1112basic_stringIcSt11char_traitsIcESaIcEEE6MEModeESaIS8_EE19_M_get_Tp_allocatorEv
_ZNSt12_Vector_baseISt4pairINSt7__cxx1112basic_stringIcSt11char_traitsIcESaIcEEE6MEModeESaIS8_EEC2Ev
_ZNSt12_Vector_baseISt4pairINSt7__cxx1112basic_stringIcSt11char_traitsIcESaIcEEE6MEModeESaIS8_EED2Ev
_ZNSt12_Vector_baseISt4pairINSt7__cxx1112basic_stringIcSt11char_traitsIcESaIcEEE8PartModeESaIS8_EE11_M_allocateEy
_ZNSt12_Vector_baseISt4pairINSt7__cxx1112basic_stringIcSt11char_traitsIcESaIcEEE8PartModeESaIS8_EE12_Vector_implC1Ev
_ZNSt12_Vector_baseISt4pairINSt7__cxx1112basic_stringIcSt11char_traitsIcESaIcEEE8PartModeESaIS8_EE12_Vector_implD1Ev
_ZNSt12_Vector_baseISt4pairINSt7__cxx1112basic_stringIcSt11char_traitsIcESaIcEEE8PartModeESaIS8_EE13_M_deallocateEPS8_y
_ZNSt12_Vector_baseISt4pairINSt7__cxx1112basic_stringIcSt11char_traitsIcESaIcEEE8PartModeESaIS8_EE19_M_get_Tp_allocatorEv
_ZNSt12_Vector_baseISt4pairINSt7__cxx1112basic_stringIcSt11char_traitsIcESaIcEEE8PartModeESaIS8_EEC2Ev
_ZNSt12_Vector_baseISt4pairINSt7__cxx1112basic_stringIcSt11char_traitsIcESaIcEEE8PartModeESaIS8_EED2Ev
_ZNSt12_Vector_baseISt6vectorIcSaIcEESaIS2_EE11_M_allocateEy
_ZNSt12_Vector_baseISt6vectorIcSaIcEESaIS2_EE12_Vector_implC1Ev
_ZNSt12_Vector_baseISt6vectorIcSaIcEESaIS2_EE12_Vector_implD1Ev
_ZNSt12_Vector_baseISt6vectorIcSaIcEESaIS2_EE13_M_deallocateEPS2_y
_ZNSt12_Vector_baseISt6vectorIcSaIcEESaIS2_EE19_M_get_Tp_allocatorEv
_ZNSt12_Vector_baseISt6vectorIcSaIcEESaIS2_EEC2Ev
_ZNSt12_Vector_baseISt6vectorIcSaIcEESaIS2_EED2Ev
_ZNSt12_Vector_baseIcSaIcEE11_M_allocateEy
_ZNSt12_Vector_baseIcSaIcEE12_Vector_impl12_M_swap_dataERS2_
_ZNSt12_Vector_baseIcSaIcEE12_Vector_implC1EOS0_
_ZNSt12_Vector_baseIcSaIcEE12_Vector_implC1ERKS0_
_ZNSt12_Vector_baseIcSaIcEE12_Vector_implC1Ev
_ZNSt12_Vector_baseIcSaIcEE12_Vector_implD1Ev
_ZNSt12_Vector_baseIcSaIcEE13_M_deallocateEPcy
_ZNSt12_Vector_baseIcSaIcEE17_M_create_storageEy
_ZNSt12_Vector_baseIcSaIcEE19_M_get_Tp_allocatorEv
_ZNSt12_Vector_baseIcSaIcEEC2EOS1_
_ZNSt12_Vector_baseIcSaIcEEC2Ev
_ZNSt12_Vector_baseIcSaIcEEC2EyRKS0_
_ZNSt12_Vector_baseIcSaIcEED2Ev
_ZNSt12_Vector_baseIhSaIhEE11_M_allocateEy
_ZNSt12_Vector_baseIhSaIhEE12_Vector_implC1ERKS0_
_ZNSt12_Vector_baseIhSaIhEE12_Vector_implD1Ev
_ZNSt12_Vector_baseIhSaIhEE13_M_deallocateEPhy
_ZNSt12_Vector_baseIhSaIhEE17_M_create_storageEy
_ZNSt12_Vector_baseIhSaIhEE19_M_get_Tp_allocatorEv
_ZNSt12_Vector_baseIhSaIhEEC2EyRKS0_
_ZNSt12_Vector_baseIhSaIhEED2Ev
_ZNSt12_Vector_baseIiSaIiEE11_M_allocateEy
_ZNSt12_Vector_baseIiSaIiEE12_Vector_implC1ERKS0_
_ZNSt12_Vector_baseIiSaIiEE12_Vector_implC1Ev
_ZNSt12_Vector_baseIiSaIiEE12_Vector_implD1Ev
_ZNSt12_Vector_baseIiSaIiEE13_M_deallocateEPiy
_ZNSt12_Vector_baseIiSaIiEE17_M_create_storageEy
_ZNSt12_Vector_baseIiSaIiEE19_M_get_Tp_allocatorEv
_ZNSt12_Vector_baseIiSaIiEEC2Ev
_ZNSt12_Vector_baseIiSaIiEEC2EyRKS0_
_ZNSt12_Vector_baseIiSaIiEED2Ev
_ZNSt12_Vector_baseItSaItEE11_M_allocateEy
_ZNSt12_Vector_baseItSaItEE12_Vector_implC1Ev
_ZNSt12_Vector_baseItSaItEE12_Vector_implD1Ev
_ZNSt12_Vector_baseItSaItEE13_M_deallocateEPty
_ZNSt12_Vector_baseItSaItEE19_M_get_Tp_allocatorEv
_ZNSt12_Vector_baseItSaItEEC2Ev
_ZNSt12_Vector_baseItSaItEED2Ev
_ZNSt12__shared_ptrI11sop_creatorLN9__gnu_cxx12_Lock_policyE2EE4swapERS3_
_ZNSt12__shared_ptrI11sop_creatorLN9__gnu_cxx12_Lock_policyE2EEC1I22sop_creator_intra_onlyvEEOS_IT_LS2_2EE
_ZNSt12__shared_ptrI11sop_creatorLN9__gnu_cxx12_Lock_policyE2EEC2Ev
_ZNSt12__shared_ptrI11sop_creatorLN9__gnu_cxx12_Lock_policyE2EED1Ev
_ZNSt12__shared_ptrI11sop_creatorLN9__gnu_cxx12_Lock_policyE2EED2Ev
_ZNSt12__shared_ptrI11sop_creatorLN9__gnu_cxx12_Lock_policyE2EEaSI22sop_creator_intra_onlyEENSt9enable_ifIXsrSt20__sp_compatible_withIPT_PS0_E5valueERS3_E4typeEOS_IS8_LS2_2EE
_ZNSt12__shared_ptrI11sop_creatorLN9__gnu_cxx12_Lock_policyE2EEaSI29sop_creator_trivial_low_delayEENSt9enable_ifIXsrSt20__sp_compatible_withIPT_PS0_E5valueERS3_E4typeERKS_IS8_LS2_2EE
_ZNSt12__shared_ptrI17pic_parameter_setLN9__gnu_cxx12_Lock_policyE2EE31_M_enable_shared_from_this_withIS0_S0_EENSt9enable_ifIXntsrNS3_15__has_esft_baseIT0_vEE5valueEvE4typeEPT_
_ZNSt12__shared_ptrI17pic_parameter_setLN9__gnu_cxx12_Lock_policyE2EE4swapERS3_
_ZNSt12__shared_ptrI17pic_parameter_setLN9__gnu_cxx12_Lock_policyE2EEC1EOS3_
_ZNSt12__shared_ptrI17pic_parameter_setLN9__gnu_cxx12_Lock_policyE2EEC2ERKS3_
_ZNSt12__shared_ptrI17pic_parameter_setLN9__gnu_cxx12_Lock_policyE2EEC2Ev
_ZNSt12__shared_ptrI17pic_parameter_setLN9__gnu_cxx12_Lock_policyE2EEC2ISaIS0_EJEEESt19_Sp_make_shared_tagRKT_DpOT0_
_ZNSt12__shared_ptrI17pic_parameter_setLN9__gnu_cxx12_Lock_policyE2EED1Ev
_ZNSt12__shared_ptrI17pic_parameter_setLN9__gnu_cxx12_Lock_policyE2EED2Ev
_ZNSt12__shared_ptrI17pic_parameter_setLN9__gnu_cxx12_Lock_policyE2EEaSEOS3_
_ZNSt12__shared_ptrI17pic_parameter_setLN9__gnu_cxx12_Lock_policyE2EEaSERKS3_
_ZNSt12__shared_ptrI17seq_parameter_setLN9__gnu_cxx12_Lock_policyE2EE31_M_enable_shared_from_this_withIS0_S0_EENSt9enable_ifIXntsrNS3_15__has_esft_baseIT0_vEE5valueEvE4typeEPT_
_ZNSt12__shared_ptrI17seq_parameter_setLN9__gnu_cxx12_Lock_policyE2EE4swapERS3_
_ZNSt12__shared_ptrI17seq_parameter_setLN9__gnu_cxx12_Lock_policyE2EEC1EOS3_
_ZNSt12__shared_ptrI17seq_parameter_setLN9__gnu_cxx12_Lock_policyE2EEC2ERKS3_
_ZNSt12__shared_ptrI17seq_parameter_setLN9__gnu_cxx12_Lock_policyE2EEC2Ev
_ZNSt12__shared_ptrI17seq_parameter_setLN9__gnu_cxx12_Lock_policyE2EEC2ISaIS0_EJEEESt19_Sp_make_shared_tagRKT_DpOT0_
_ZNSt12__shared_ptrI17seq_parameter_setLN9__gnu_cxx12_Lock_policyE2EED1Ev
_ZNSt12__shared_ptrI17seq_parameter_setLN9__gnu_cxx12_Lock_policyE2EED2Ev
_ZNSt12__shared_ptrI17seq_parameter_setLN9__gnu_cxx12_Lock_policyE2EEaSEOS3_
_ZNSt12__shared_ptrI17seq_parameter_setLN9__gnu_cxx12_Lock_policyE2EEaSERKS3_
_ZNSt12__shared_ptrI18small_image_bufferLN9__gnu_cxx12_Lock_policyE2EE31_M_enable_shared_from_this_withIS0_S0_EENSt9enable_ifIXntsrNS3_15__has_esft_baseIT0_vEE5valueEvE4typeEPT_
_ZNSt12__shared_ptrI18small_image_bufferLN9__gnu_cxx12_Lock_policyE2EE4swapERS3_
_ZNSt12__shared_ptrI18small_image_bufferLN9__gnu_cxx12_Lock_policyE2EEC1EOS3_
_ZNSt12__shared_ptrI18small_image_bufferLN9__gnu_cxx12_Lock_policyE2EEC2ERKS3_
_ZNSt12__shared_ptrI18small_image_bufferLN9__gnu_cxx12_Lock_policyE2EEC2ISaIS0_EJRiyEEESt19_Sp_make_shared_tagRKT_DpOT0_
_ZNSt12__shared_ptrI18small_image_bufferLN9__gnu_cxx12_Lock_policyE2EED1Ev
_ZNSt12__shared_ptrI18small_image_bufferLN9__gnu_cxx12_Lock_policyE2EED2Ev
_ZNSt12__shared_ptrI18small_image_bufferLN9__gnu_cxx12_Lock_policyE2EEaSEOS3_
_ZNSt12__shared_ptrI19video_parameter_setLN9__gnu_cxx12_Lock_policyE2EE31_M_enable_shared_from_this_withIS0_S0_EENSt9enable_ifIXntsrNS3_15__has_esft_baseIT0_vEE5valueEvE4typeEPT_
_ZNSt12__shared_ptrI19video_parameter_setLN9__gnu_cxx12_Lock_policyE2EE4swapERS3_
_ZNSt12__shared_ptrI19video_parameter_setLN9__gnu_cxx12_Lock_policyE2EEC1EOS3_
_ZNSt12__shared_ptrI19video_parameter_setLN9__gnu_cxx12_Lock_policyE2EEC2ERKS3_
_ZNSt12__shared_ptrI19video_parameter_setLN9__gnu_cxx12_Lock_policyE2EEC2Ev
_ZNSt12__shared_ptrI19video_parameter_setLN9__gnu_cxx12_Lock_policyE2EEC2ISaIS0_EJEEESt19_Sp_make_shared_tagRKT_DpOT0_
_ZNSt12__shared_ptrI19video_parameter_setLN9__gnu_cxx12_Lock_policyE2EED1Ev
_ZNSt12__shared_ptrI19video_parameter_setLN9__gnu_cxx12_Lock_policyE2EED2Ev
_ZNSt12__shared_ptrI19video_parameter_setLN9__gnu_cxx12_Lock_policyE2EEaSEOS3_
_ZNSt12__shared_ptrI19video_parameter_setLN9__gnu_cxx12_Lock_policyE2EEaSERKS3_
_ZNSt12__shared_ptrI22sop_creator_intra_onlyLN9__gnu_cxx12_Lock_policyE2EE31_M_enable_shared_from_this_withIS0_S0_EENSt9enable_ifIXntsrNS3_15__has_esft_baseIT0_vEE5valueEvE4typeEPT_
_ZNSt12__shared_ptrI22sop_creator_intra_onlyLN9__gnu_cxx12_Lock_policyE2EEC2IS0_vEEPT_
_ZNSt12__shared_ptrI22sop_creator_intra_onlyLN9__gnu_cxx12_Lock_policyE2EED2Ev
_ZNSt12__shared_ptrI29sop_creator_trivial_low_delayLN9__gnu_cxx12_Lock_policyE2EE31_M_enable_shared_from_this_withIS0_S0_EENSt9enable_ifIXntsrNS3_15__has_esft_baseIT0_vEE5valueEvE4typeEPT_
_ZNSt12__shared_ptrI29sop_creator_trivial_low_delayLN9__gnu_cxx12_Lock_policyE2EEC2IS0_vEEPT_
_ZNSt12__shared_ptrI29sop_creator_trivial_low_delayLN9__gnu_cxx12_Lock_policyE2EED2Ev
_ZNSt12__shared_ptrIK17pic_parameter_setLN9__gnu_cxx12_Lock_policyE2EEC2Ev
_ZNSt12__shared_ptrIK17pic_parameter_setLN9__gnu_cxx12_Lock_policyE2EED2Ev
_ZNSt12__shared_ptrIK17pic_parameter_setLN9__gnu_cxx12_Lock_policyE2EEaSIS0_EENSt9enable_ifIXsrSt20__sp_compatible_withIPT_PS1_E5valueERS4_E4typeERKS_IS8_LS3_2EE
_ZNSt12__shared_ptrIK17seq_parameter_setLN9__gnu_cxx12_Lock_policyE2EEC2ERKS4_
_ZNSt12__shared_ptrIK17seq_parameter_setLN9__gnu_cxx12_Lock_policyE2EEC2Ev
_ZNSt12__shared_ptrIK17seq_parameter_setLN9__gnu_cxx12_Lock_policyE2EEC2IS0_vEERKS_IT_LS3_2EE
_ZNSt12__shared_ptrIK17seq_parameter_setLN9__gnu_cxx12_Lock_policyE2EED2Ev
_ZNSt12__shared_ptrIK17seq_parameter_setLN9__gnu_cxx12_Lock_policyE2EEaSERKS4_
_ZNSt12__shared_ptrIK17seq_parameter_setLN9__gnu_cxx12_Lock_policyE2EEaSIS0_EENSt9enable_ifIXsrSt20__sp_compatible_withIPT_PS1_E5valueERS4_E4typeERKS_IS8_LS3_2EE
_ZNSt12__shared_ptrIK19video_parameter_setLN9__gnu_cxx12_Lock_policyE2EEC2Ev
_ZNSt12__shared_ptrIK19video_parameter_setLN9__gnu_cxx12_Lock_policyE2EED2Ev
_ZNSt12__shared_ptrIK19video_parameter_setLN9__gnu_cxx12_Lock_policyE2EEaSIS0_EENSt9enable_ifIXsrSt20__sp_compatible_withIPT_PS1_E5valueERS4_E4typeERKS_IS8_LS3_2EE
_ZNSt13move_iteratorIP11ref_pic_setEC1ES1_
_ZNSt13move_iteratorIP11sei_messageEC1ES1_
_ZNSt13move_iteratorIP12CodingOptionI6enc_tbEEC1ES3_
_ZNSt13move_iteratorIP12CodingOptionI6enc_tbEEppEv
_ZNSt13move_iteratorIPNSt7__cxx1112basic_stringIcSt11char_traitsIcESaIcEEEEC1ES6_
_ZNSt13move_iteratorIPNSt7__cxx1112basic_stringIcSt11char_traitsIcESaIcEEEEppEv
_ZNSt13move_iteratorIPP10image_unitEC1ES2_
_ZNSt13move_iteratorIPP10slice_unitEC1ES2_
_ZNSt13move_iteratorIPP11de265_imageEC1ES2_
_ZNSt13move_iteratorIPP11option_baseEC1ES2_
_ZNSt13move_iteratorIPP11thread_taskEC1ES2_
_ZNSt13move_iteratorIPP20slice_segment_headerEC1ES2_
_ZNSt13move_iteratorIPP6enc_cbEC1ES2_
_ZNSt13move_iteratorIPP8NAL_unitEC1ES2_
_ZNSt13move_iteratorIPPhEC1ES1_
_ZNSt13move_iteratorIPPvEC1ES1_
_ZNSt13move_iteratorIPSt4pairI13IntraPredModefEEC1ES3_
_ZNSt13move_iteratorIPSt4pairI13IntraPredModefEEppEv
_ZNSt13move_iteratorIPSt4pairINSt7__cxx1112basic_stringIcSt11char_traitsIcESaIcEEE10MVTestModeEEC1ES9_
_ZNSt13move_iteratorIPSt4pairINSt7__cxx1112basic_stringIcSt11char_traitsIcESaIcEEE10MVTestModeEEppEv
_ZNSt13move_iteratorIPSt4pairINSt7__cxx1112basic_stringIcSt11char_traitsIcESaIcEEE12MVSearchAlgoEEC1ES9_
_ZNSt13move_iteratorIPSt4pairINSt7__cxx1112basic_stringIcSt11char_traitsIcESaIcEEE12MVSearchAlgoEEppEv
_ZNSt13move_iteratorIPSt4pairINSt7__cxx1112basic_stringIcSt11char_traitsIcESaIcEEE13SOP_StructureEEC1ES9_
_ZNSt13move_iteratorIPSt4pairINSt7__cxx1112basic_stringIcSt11char_traitsIcESaIcEEE13SOP_StructureEEppEv
_ZNSt13move_iteratorIPSt4pairINSt7__cxx1112basic_stringIcSt11char_traitsIcESaIcEEE20TBBitrateEstimMethodEEC1ES9_
_ZNSt13move_iteratorIPSt4pairINSt7__cxx1112basic_stringIcSt11char_traitsIcESaIcEEE20TBBitrateEstimMethodEEppEv
_ZNSt13move_iteratorIPSt4pairINSt7__cxx1112basic_stringIcSt11char_traitsIcESaIcEEE21ALGO_CB_IntraPartModeEEC1ES9_
_ZNSt13move_iteratorIPSt4pairINSt7__cxx1112basic_stringIcSt11char_traitsIcESaIcEEE21ALGO_CB_IntraPartModeEEppEv
_ZNSt13move_iteratorIPSt4pairINSt7__cxx1112basic_stringIcSt11char_traitsIcESaIcEEE21ALGO_TB_IntraPredModeEEC1ES9_
_ZNSt13move_iteratorIPSt4pairINSt7__cxx1112basic_stringIcSt11char_traitsIcESaIcEEE21ALGO_TB_IntraPredModeEEppEv
_ZNSt13move_iteratorIPSt4pairINSt7__cxx1112basic_stringIcSt11char_traitsIcESaIcEEE22ALGO_TB_RateEstimationEEC1ES9_
_ZNSt13move_iteratorIPSt4pairINSt7__cxx1112basic_stringIcSt11char_traitsIcESaIcEEE22ALGO_TB_RateEstimationEEppEv
_ZNSt13move_iteratorIPSt4pairINSt7__cxx1112basic_stringIcSt11char_traitsIcESaIcEEE28ALGO_TB_IntraPredMode_SubsetEEC1ES9_
_ZNSt13move_iteratorIPSt4pairINSt7__cxx1112basic_stringIcSt11char_traitsIcESaIcEEE28ALGO_TB_IntraPredMode_SubsetEEppEv
_ZNSt13move_iteratorIPSt4pairINSt7__cxx1112basic_stringIcSt11char_traitsIcESaIcEEE39ALGO_TB_Split_BruteForce_ZeroBlockPruneEEC1ES9_
_ZNSt13move_iteratorIPSt4pairINSt7__cxx1112basic_stringIcSt11char_traitsIcESaIcEEE39ALGO_TB_Split_BruteForce_ZeroBlockPruneEEppEv
_ZNSt13move_iteratorIPSt4pairINSt7__cxx1112basic_stringIcSt11char_traitsIcESaIcEEE6MEModeEEC1ES9_
_ZNSt13move_iteratorIPSt4pairINSt7__cxx1112basic_stringIcSt11char_traitsIcESaIcEEE6MEModeEEppEv
_ZNSt13move_iteratorIPSt4pairINSt7__cxx1112basic_stringIcSt11char_traitsIcESaIcEEE8PartModeEEC1ES9_
_ZNSt13move_iteratorIPSt4pairINSt7__cxx1112basic_stringIcSt11char_traitsIcESaIcEEE8PartModeEEppEv
_ZNSt13move_iteratorIPSt6vectorIcSaIcEEEC1ES3_
_ZNSt13move_iteratorIPSt6vectorIcSaIcEEEppEv
_ZNSt13move_iteratorIPcEC1ES0_
_ZNSt13move_iteratorIPiEC1ES0_
_ZNSt13move_iteratorIPtEC1ES0_
_ZNSt13move_iteratorISt15_Deque_iteratorIP10image_dataRS2_PS2_EEC1ERKS6_
_ZNSt13move_iteratorISt15_Deque_iteratorIP10image_dataRS2_PS2_EEC1ES5_
_ZNSt14_Sp_ebo_helperILi0ESaI17pic_parameter_setELb1EE6_S_getERS2_
_ZNSt14_Sp_ebo_helperILi0ESaI17pic_parameter_setELb1EEC2ERKS1_
_ZNSt14_Sp_ebo_helperILi0ESaI17pic_parameter_setELb1EED2Ev
_ZNSt14_Sp_ebo_helperILi0ESaI17seq_parameter_setELb1EE6_S_getERS2_
_ZNSt14_Sp_ebo_helperILi0ESaI17seq_parameter_setELb1EEC2ERKS1_
_ZNSt14_Sp_ebo_helperILi0ESaI17seq_parameter_setELb1EED2Ev
_ZNSt14_Sp_ebo_helperILi0ESaI18small_image_bufferELb1EE6_S_getERS2_
_ZNSt14_Sp_ebo_helperILi0ESaI18small_image_bufferELb1EEC2ERKS1_
_ZNSt14_Sp_ebo_helperILi0ESaI18small_image_bufferELb1EED2Ev
_ZNSt14_Sp_ebo_helperILi0ESaI19video_parameter_setELb1EE6_S_getERS2_
_ZNSt14_Sp_ebo_helperILi0ESaI19video_parameter_setELb1EEC2ERKS1_
_ZNSt14_Sp_ebo_helperILi0ESaI19video_parameter_setELb1EED2Ev
_ZNSt14__shared_countILN9__gnu_cxx12_Lock_policyE2EE7_M_swapERS2_
_ZNSt14__shared_countILN9__gnu_cxx12_Lock_policyE2EEC1ERKS2_
_ZNSt14__shared_countILN9__gnu_cxx12_Lock_policyE2EEC1Ev
_ZNSt14__shared_countILN9__gnu_cxx12_Lock_policyE2EEC1I17pic_parameter_setSaIS4_EJEEESt19_Sp_make_shared_tagPT_RKT0_DpOT1_
_ZNSt14__shared_countILN9__gnu_cxx12_Lock_policyE2EEC1I17seq_parameter_setSaIS4_EJEEESt19_Sp_make_shared_tagPT_RKT0_DpOT1_
_ZNSt14__shared_countILN9__gnu_cxx12_Lock_policyE2EEC1I18small_image_bufferSaIS4_EJRiyEEESt19_Sp_make_shared_tagPT_RKT0_DpOT1_
_ZNSt14__shared_countILN9__gnu_cxx12_Lock_policyE2EEC1I19video_parameter_setSaIS4_EJEEESt19_Sp_make_shared_tagPT_RKT0_DpOT1_
_ZNSt14__shared_countILN9__gnu_cxx12_Lock_policyE2EEC1IP22sop_creator_intra_onlyEET_
_ZNSt14__shared_countILN9__gnu_cxx12_Lock_policyE2EEC1IP22sop_creator_intra_onlyEET_St17integral_constantIbLb0EE
_ZNSt14__shared_countILN9__gnu_cxx12_Lock_policyE2EEC1IP29sop_creator_trivial_low_delayEET_
_ZNSt14__shared_countILN9__gnu_cxx12_Lock_policyE2EEC1IP29sop_creator_trivial_low_delayEET_St17integral_constantIbLb0EE
_ZNSt14__shared_countILN9__gnu_cxx12_Lock_policyE2EED1Ev
_ZNSt14__shared_countILN9__gnu_cxx12_Lock_policyE2EEaSERKS2_
_ZNSt14numeric_limitsIiE3maxEv
_ZNSt14pointer_traitsIPP6enc_cbE10pointer_toERS1_
_ZNSt14pointer_traitsIPcE10pointer_toERc
_ZNSt15_Deque_iteratorIP10image_dataRKS1_PS2_E11_M_set_nodeEPPS1_
_ZNSt15_Deque_iteratorIP10image_dataRKS1_PS2_E14_S_buffer_sizeEv
_ZNSt15_Deque_iteratorIP10image_dataRKS1_PS2_EC1ERKS_IS1_RS1_PS1_E
_ZNSt15_Deque_iteratorIP10image_dataRKS1_PS2_EmIEx
_ZNSt15_Deque_iteratorIP10image_dataRKS1_PS2_EpLEx
_ZNSt15_Deque_iteratorIP10image_dataRKS1_PS2_EppEv
_ZNSt15_Deque_iteratorIP10image_dataRS1_PS1_E11_M_set_nodeEPS3_
_ZNSt15_Deque_iteratorIP10image_dataRS1_PS1_E14_S_buffer_sizeEv
_ZNSt15_Deque_iteratorIP10image_dataRS1_PS1_EC1ERKS4_
_ZNSt15_Deque_iteratorIP10image_dataRS1_PS1_EC1Ev
_ZNSt15_Deque_iteratorIP10image_dataRS1_PS1_EmIEx
_ZNSt15_Deque_iteratorIP10image_dataRS1_PS1_EmmEv
_ZNSt15_Deque_iteratorIP10image_dataRS1_PS1_EpLEx
_ZNSt15_Deque_iteratorIP10image_dataRS1_PS1_EppEv
_ZNSt15_Deque_iteratorIP11de265_imageRKS1_PS2_EC1ERKS_IS1_RS1_PS1_E
_ZNSt15_Deque_iteratorIP11de265_imageRS1_PS1_E11_M_set_nodeEPS3_
_ZNSt15_Deque_iteratorIP11de265_imageRS1_PS1_E14_S_buffer_sizeEv
_ZNSt15_Deque_iteratorIP11de265_imageRS1_PS1_EC1ERKS4_
_ZNSt15_Deque_iteratorIP11de265_imageRS1_PS1_EC1Ev
_ZNSt15_Deque_iteratorIP11thread_taskRS1_PS1_E11_M_set_nodeEPS3_
_ZNSt15_Deque_iteratorIP11thread_taskRS1_PS1_E14_S_buffer_sizeEv
_ZNSt15_Deque_iteratorIP11thread_taskRS1_PS1_EC1ERKS4_
_ZNSt15_Deque_iteratorIP11thread_taskRS1_PS1_EC1Ev
_ZNSt15_Deque_iteratorIP12en265_packetRS1_PS1_E11_M_set_nodeEPS3_
_ZNSt15_Deque_iteratorIP12en265_packetRS1_PS1_E14_S_buffer_sizeEv
_ZNSt15_Deque_iteratorIP12en265_packetRS1_PS1_EC1ERKS4_
_ZNSt15_Deque_iteratorIP12en265_packetRS1_PS1_EC1Ev
_ZNSt15_Deque_iteratorIP8NAL_unitRS1_PS1_E11_M_set_nodeEPS3_
_ZNSt15_Deque_iteratorIP8NAL_unitRS1_PS1_E14_S_buffer_sizeEv
_ZNSt15_Deque_iteratorIP8NAL_unitRS1_PS1_EC1ERKS4_
_ZNSt15_Deque_iteratorIP8NAL_unitRS1_PS1_EC1Ev
_ZNSt15_Sp_counted_ptrIP22sop_creator_intra_onlyLN9__gnu_cxx12_Lock_policyE2EE10_M_destroyEv
_ZNSt15_Sp_counted_ptrIP22sop_creator_intra_onlyLN9__gnu_cxx12_Lock_policyE2EE10_M_disposeEv
_ZNSt15_Sp_counted_ptrIP22sop_creator_intra_onlyLN9__gnu_cxx12_Lock_policyE2EE14_M_get_deleterERKSt9type_info
_ZNSt15_Sp_counted_ptrIP22sop_creator_intra_onlyLN9__gnu_cxx12_Lock_policyE2EEC1ES1_
_ZNSt15_Sp_counted_ptrIP22sop_creator_intra_onlyLN9__gnu_cxx12_Lock_policyE2EED0Ev
_ZNSt15_Sp_counted_ptrIP22sop_creator_intra_onlyLN9__gnu_cxx12_Lock_policyE2EED1Ev
_ZNSt15_Sp_counted_ptrIP29sop_creator_trivial_low_delayLN9__gnu_cxx12_Lock_policyE2EE10_M_destroyEv
_ZNSt15_Sp_counted_ptrIP29sop_creator_trivial_low_delayLN9__gnu_cxx12_Lock_policyE2EE10_M_disposeEv
_ZNSt15_Sp_counted_ptrIP29sop_creator_trivial_low_delayLN9__gnu_cxx12_Lock_policyE2EE14_M_get_deleterERKSt9type_info
_ZNSt15_Sp_counted_ptrIP29sop_creator_trivial_low_delayLN9__gnu_cxx12_Lock_policyE2EEC1ES1_
_ZNSt15_Sp_counted_ptrIP29sop_creator_trivial_low_delayLN9__gnu_cxx12_Lock_policyE2EED0Ev
_ZNSt15_Sp_counted_ptrIP29sop_creator_trivial_low_delayLN9__gnu_cxx12_Lock_policyE2EED1Ev
_ZNSt15__allocated_ptrISaISt23_Sp_counted_ptr_inplaceI17pic_parameter_setSaIS1_ELN9__gnu_cxx12_Lock_policyE2EEEE10_S_raw_ptrEPS5_
_ZNSt15__allocated_ptrISaISt23_Sp_counted_ptr_inplaceI17pic_parameter_setSaIS1_ELN9__gnu_cxx12_Lock_policyE2EEEE3getEv
_ZNSt15__allocated_ptrISaISt23_Sp_counted_ptr_inplaceI17pic_parameter_setSaIS1_ELN9__gnu_cxx12_Lock_policyE2EEEEC1ERS6_PS5_
_ZNSt15__allocated_ptrISaISt23_Sp_counted_ptr_inplaceI17pic_parameter_setSaIS1_ELN9__gnu_cxx12_Lock_policyE2EEEED1Ev
_ZNSt15__allocated_ptrISaISt23_Sp_counted_ptr_inplaceI17pic_parameter_setSaIS1_ELN9__gnu_cxx12_Lock_policyE2EEEEaSEDn
_ZNSt15__allocated_ptrISaISt23_Sp_counted_ptr_inplaceI17seq_parameter_setSaIS1_ELN9__gnu_cxx12_Lock_policyE2EEEE10_S_raw_ptrEPS5_
_ZNSt15__allocated_ptrISaISt23_Sp_counted_ptr_inplaceI17seq_parameter_setSaIS1_ELN9__gnu_cxx12_Lock_policyE2EEEE3getEv
_ZNSt15__allocated_ptrISaISt23_Sp_counted_ptr_inplaceI17seq_parameter_setSaIS1_ELN9__gnu_cxx12_Lock_policyE2EEEEC1ERS6_PS5_
_ZNSt15__allocated_ptrISaISt23_Sp_counted_ptr_inplaceI17seq_parameter_setSaIS1_ELN9__gnu_cxx12_Lock_policyE2EEEED1Ev
_ZNSt15__allocated_ptrISaISt23_Sp_counted_ptr_inplaceI17seq_parameter_setSaIS1_ELN9__gnu_cxx12_Lock_policyE2EEEEaSEDn
_ZNSt15__allocated_ptrISaISt23_Sp_counted_ptr_inplaceI18small_image_bufferSaIS1_ELN9__gnu_cxx12_Lock_policyE2EEEE10_S_raw_ptrEPS5_
_ZNSt15__allocated_ptrISaISt23_Sp_counted_ptr_inplaceI18small_image_bufferSaIS1_ELN9__gnu_cxx12_Lock_policyE2EEEE3getEv
_ZNSt15__allocated_ptrISaISt23_Sp_counted_ptr_inplaceI18small_image_bufferSaIS1_ELN9__gnu_cxx12_Lock_policyE2EEEEC1ERS6_PS5_
_ZNSt15__allocated_ptrISaISt23_Sp_counted_ptr_inplaceI18small_image_bufferSaIS1_ELN9__gnu_cxx12_Lock_policyE2EEEED1Ev
_ZNSt15__allocated_ptrISaISt23_Sp_counted_ptr_inplaceI18small_image_bufferSaIS1_ELN9__gnu_cxx12_Lock_policyE2EEEEaSEDn
_ZNSt15__allocated_ptrISaISt23_Sp_counted_ptr_inplaceI19video_parameter_setSaIS1_ELN9__gnu_cxx12_Lock_policyE2EEEE10_S_raw_ptrEPS5_
_ZNSt15__allocated_ptrISaISt23_Sp_counted_ptr_inplaceI19video_parameter_setSaIS1_ELN9__gnu_cxx12_Lock_policyE2EEEE3getEv
_ZNSt15__allocated_ptrISaISt23_Sp_counted_ptr_inplaceI19video_parameter_setSaIS1_ELN9__gnu_cxx12_Lock_policyE2EEEEC1ERS6_PS5_
_ZNSt15__allocated_ptrISaISt23_Sp_counted_ptr_inplaceI19video_parameter_setSaIS1_ELN9__gnu_cxx12_Lock_policyE2EEEED1Ev
_ZNSt15__allocated_ptrISaISt23_Sp_counted_ptr_inplaceI19video_parameter_setSaIS1_ELN9__gnu_cxx12_Lock_policyE2EEEEaSEDn
_ZNSt16_Sp_counted_baseILN9__gnu_cxx12_Lock_policyE2EE10_M_destroyEv
_ZNSt16_Sp_counted_baseILN9__gnu_cxx12_Lock_policyE2EE10_M_releaseEv
_ZNSt16_Sp_counted_baseILN9__gnu_cxx12_Lock_policyE2EE15_M_add_ref_copyEv
_ZNSt16_Sp_counted_baseILN9__gnu_cxx12_Lock_policyE2EEC2Ev
_ZNSt16_Sp_counted_baseILN9__gnu_cxx12_Lock_policyE2EED2Ev
_ZNSt16allocator_traitsISaI11ref_pic_setEE10deallocateERS1_PS0_y
_ZNSt16allocator_traitsISaI11ref_pic_setEE7destroyIS0_EEvRS1_PT_
_ZNSt16allocator_traitsISaI11ref_pic_setEE8allocateERS1_y
_ZNSt16allocator_traitsISaI11ref_pic_setEE8max_sizeERKS1_
_ZNSt16allocator_traitsISaI11ref_pic_setEE9constructIS0_JRKS0_EEEvRS1_PT_DpOT0_
_ZNSt16allocator_traitsISaI11sei_messageEE10deallocateERS1_PS0_y
_ZNSt16allocator_traitsISaI11sei_messageEE7destroyIS0_EEvRS1_PT_
_ZNSt16allocator_traitsISaI11sei_messageEE8allocateERS1_y
_ZNSt16allocator_traitsISaI11sei_messageEE8max_sizeERKS1_
_ZNSt16allocator_traitsISaI11sei_messageEE9constructIS0_JRKS0_EEEvRS1_PT_DpOT0_
_ZNSt16allocator_traitsISaI12CodingOptionI6enc_tbEEE10deallocateERS3_PS2_y
_ZNSt16allocator_traitsISaI12CodingOptionI6enc_tbEEE7destroyIS2_EEvRS3_PT_
_ZNSt16allocator_traitsISaI12CodingOptionI6enc_tbEEE8allocateERS3_y
_ZNSt16allocator_traitsISaI12CodingOptionI6enc_tbEEE8max_sizeERKS3_
_ZNSt16allocator_traitsISaI12CodingOptionI6enc_tbEEE9constructIS2_JRKS2_EEEvRS3_PT_DpOT0_
_ZNSt16allocator_traitsISaI17pic_parameter_setEE7destroyIS0_EEvRS1_PT_
_ZNSt16allocator_traitsISaI17pic_parameter_setEE9constructIS0_JEEEvRS1_PT_DpOT0_
_ZNSt16allocator_traitsISaI17seq_parameter_setEE7destroyIS0_EEvRS1_PT_
_ZNSt16allocator_traitsISaI17seq_parameter_setEE9constructIS0_JEEEvRS1_PT_DpOT0_
_ZNSt16allocator_traitsISaI18small_image_bufferEE7destroyIS0_EEvRS1_PT_
_ZNSt16allocator_traitsISaI18small_image_bufferEE9constructIS0_JRiyEEEvRS1_PT_DpOT0_
_ZNSt16allocator_traitsISaI19context_model_tableEE10deallocateERS1_PS0_y
_ZNSt16allocator_traitsISaI19context_model_tableEE8allocateERS1_y
_ZNSt16allocator_traitsISaI19context_model_tableEE8max_sizeERKS1_
_ZNSt16allocator_traitsISaI19video_parameter_setEE7destroyIS0_EEvRS1_PT_
_ZNSt16allocator_traitsISaI19video_parameter_setEE9constructIS0_JEEEvRS1_PT_DpOT0_
_ZNSt16allocator_traitsISaIN13CodingOptionsI6enc_cbE16CodingOptionDataEEE10deallocateERS4_PS3_y
_ZNSt16allocator_traitsISaIN13CodingOptionsI6enc_cbE16CodingOptionDataEEE7destroyIS3_EEvRS4_PT_
_ZNSt16allocator_traitsISaIN13CodingOptionsI6enc_cbE16CodingOptionDataEEE8allocateERS4_y
_ZNSt16allocator_traitsISaIN13CodingOptionsI6enc_cbE16CodingOptionDataEEE8max_sizeERKS4_
_ZNSt16allocator_traitsISaIN13CodingOptionsI6enc_cbE16CodingOptionDataEEE9constructIS3_JS3_EEEvRS4_PT_DpOT0_
_ZNSt16allocator_traitsISaIN13CodingOptionsI6enc_tbE16CodingOptionDataEEE10deallocateERS4_PS3_y
_ZNSt16allocator_traitsISaIN13CodingOptionsI6enc_tbE16CodingOptionDataEEE7destroyIS3_EEvRS4_PT_
_ZNSt16allocator_traitsISaIN13CodingOptionsI6enc_tbE16CodingOptionDataEEE8allocateERS4_y
_ZNSt16allocator_traitsISaIN13CodingOptionsI6enc_tbE16CodingOptionDataEEE8max_sizeERKS4_
_ZNSt16allocator_traitsISaIN13CodingOptionsI6enc_tbE16CodingOptionDataEEE9constructIS3_JS3_EEEvRS4_PT_DpOT0_
_ZNSt16allocator_traitsISaINSt7__cxx1112basic_stringIcSt11char_traitsIcESaIcEEEEE10deallocateERS6_PS5_y
_ZNSt16allocator_traitsISaINSt7__cxx1112basic_stringIcSt11char_traitsIcESaIcEEEEE7destroyIS5_EEvRS6_PT_
_ZNSt16allocator_traitsISaINSt7__cxx1112basic_stringIcSt11char_traitsIcESaIcEEEEE8allocateERS6_y
_ZNSt16allocator_traitsISaINSt7__cxx1112basic_stringIcSt11char_traitsIcESaIcEEEEE8max_sizeERKS6_
_ZNSt16allocator_traitsISaINSt7__cxx1112basic_stringIcSt11char_traitsIcESaIcEEEEE9constructIS5_JRKS5_EEEvRS6_PT_DpOT0_
_ZNSt16allocator_traitsISaINSt7__cxx1112basic_stringIcSt11char_traitsIcESaIcEEEEE9constructIS5_JS5_EEEvRS6_PT_DpOT0_
_ZNSt16allocator_traitsISaIP10image_dataEE10deallocateERS2_PS1_y
_ZNSt16allocator_traitsISaIP10image_dataEE7destroyIS1_EEvRS2_PT_
_ZNSt16allocator_traitsISaIP10image_dataEE8allocateERS2_y
_ZNSt16allocator_traitsISaIP10image_dataEE8max_sizeERKS2_
_ZNSt16allocator_traitsISaIP10image_dataEE9constructIS1_JRKS1_EEEvRS2_PT_DpOT0_
_ZNSt16allocator_traitsISaIP10image_unitEE10deallocateERS2_PS1_y
_ZNSt16allocator_traitsISaIP10image_unitEE7destroyIS1_EEvRS2_PT_
_ZNSt16allocator_traitsISaIP10image_unitEE8allocateERS2_y
_ZNSt16allocator_traitsISaIP10image_unitEE8max_sizeERKS2_
_ZNSt16allocator_traitsISaIP10image_unitEE9constructIS1_JRKS1_EEEvRS2_PT_DpOT0_
_ZNSt16allocator_traitsISaIP10slice_unitEE10deallocateERS2_PS1_y
_ZNSt16allocator_traitsISaIP10slice_unitEE7destroyIS1_EEvRS2_PT_
_ZNSt16allocator_traitsISaIP10slice_unitEE8allocateERS2_y
_ZNSt16allocator_traitsISaIP10slice_unitEE8max_sizeERKS2_
_ZNSt16allocator_traitsISaIP10slice_unitEE9constructIS1_JRKS1_EEEvRS2_PT_DpOT0_
_ZNSt16allocator_traitsISaIP11de265_imageEE10deallocateERS2_PS1_y
_ZNSt16allocator_traitsISaIP11de265_imageEE7destroyIS1_EEvRS2_PT_
_ZNSt16allocator_traitsISaIP11de265_imageEE8allocateERS2_y
_ZNSt16allocator_traitsISaIP11de265_imageEE8max_sizeERKS2_
_ZNSt16allocator_traitsISaIP11de265_imageEE9constructIS1_JRKS1_EEEvRS2_PT_DpOT0_
_ZNSt16allocator_traitsISaIP11de265_imageEE9constructIS1_JS1_EEEvRS2_PT_DpOT0_
_ZNSt16allocator_traitsISaIP11option_baseEE10deallocateERS2_PS1_y
_ZNSt16allocator_traitsISaIP11option_baseEE7destroyIS1_EEvRS2_PT_
_ZNSt16allocator_traitsISaIP11option_baseEE8allocateERS2_y
_ZNSt16allocator_traitsISaIP11option_baseEE8max_sizeERKS2_
_ZNSt16allocator_traitsISaIP11option_baseEE9constructIS1_JRKS1_EEEvRS2_PT_DpOT0_
_ZNSt16allocator_traitsISaIP11thread_taskEE10deallocateERS2_PS1_y
_ZNSt16allocator_traitsISaIP11thread_taskEE7destroyIS1_EEvRS2_PT_
_ZNSt16allocator_traitsISaIP11thread_taskEE8allocateERS2_y
_ZNSt16allocator_traitsISaIP11thread_taskEE8max_sizeERKS2_
_ZNSt16allocator_traitsISaIP11thread_taskEE9constructIS1_JRKS1_EEEvRS2_PT_DpOT0_
_ZNSt16allocator_traitsISaIP11thread_taskEE9constructIS1_JS1_EEEvRS2_PT_DpOT0_
_ZNSt16allocator_traitsISaIP12en265_packetEE10deallocateERS2_PS1_y
_ZNSt16allocator_traitsISaIP12en265_packetEE7destroyIS1_EEvRS2_PT_
_ZNSt16allocator_traitsISaIP12en265_packetEE8allocateERS2_y
_ZNSt16allocator_traitsISaIP12en265_packetEE9constructIS1_JRKS1_EEEvRS2_PT_DpOT0_
_ZNSt16allocator_traitsISaIP20slice_segment_headerEE10deallocateERS2_PS1_y
_ZNSt16allocator_traitsISaIP20slice_segment_headerEE7destroyIS1_EEvRS2_PT_
_ZNSt16allocator_traitsISaIP20slice_segment_headerEE8allocateERS2_y
_ZNSt16allocator_traitsISaIP20slice_segment_headerEE8max_sizeERKS2_
_ZNSt16allocator_traitsISaIP20slice_segment_headerEE9constructIS1_JRKS1_EEEvRS2_PT_DpOT0_
_ZNSt16allocator_traitsISaIP6enc_cbEE10deallocateERS2_PS1_y
_ZNSt16allocator_traitsISaIP6enc_cbEE7destroyIS1_EEvRS2_PT_
_ZNSt16allocator_traitsISaIP6enc_cbEE8allocateERS2_y
_ZNSt16allocator_traitsISaIP6enc_cbEE8max_sizeERKS2_
_ZNSt16allocator_traitsISaIP6enc_cbEE9constructIS1_JRKS1_EEEvRS2_PT_DpOT0_
_ZNSt16allocator_traitsISaIP8NAL_unitEE10deallocateERS2_PS1_y
_ZNSt16allocator_traitsISaIP8NAL_unitEE7destroyIS1_EEvRS2_PT_
_ZNSt16allocator_traitsISaIP8NAL_unitEE8allocateERS2_y
_ZNSt16allocator_traitsISaIP8NAL_unitEE8max_sizeERKS2_
_ZNSt16allocator_traitsISaIP8NAL_unitEE9constructIS1_JRKS1_EEEvRS2_PT_DpOT0_
_ZNSt16allocator_traitsISaIPP10image_dataEE10deallocateERS3_PS2_y
_ZNSt16allocator_traitsISaIPP10image_dataEE8allocateERS3_y
_ZNSt16allocator_traitsISaIPP11de265_imageEE10deallocateERS3_PS2_y
_ZNSt16allocator_traitsISaIPP11de265_imageEE8allocateERS3_y
_ZNSt16allocator_traitsISaIPP11thread_taskEE10deallocateERS3_PS2_y
_ZNSt16allocator_traitsISaIPP11thread_taskEE8allocateERS3_y
_ZNSt16allocator_traitsISaIPP12en265_packetEE10deallocateERS3_PS2_y
_ZNSt16allocator_traitsISaIPP12en265_packetEE8allocateERS3_y
_ZNSt16allocator_traitsISaIPP8NAL_unitEE10deallocateERS3_PS2_y
_ZNSt16allocator_traitsISaIPP8NAL_unitEE8allocateERS3_y
_ZNSt16allocator_traitsISaIPhEE10deallocateERS1_PS0_y
_ZNSt16allocator_traitsISaIPhEE7destroyIS0_EEvRS1_PT_
_ZNSt16allocator_traitsISaIPhEE8allocateERS1_y
_ZNSt16allocator_traitsISaIPhEE8max_sizeERKS1_
_ZNSt16allocator_traitsISaIPhEE9constructIS0_JRKS0_EEEvRS1_PT_DpOT0_
_ZNSt16allocator_traitsISaIPvEE10deallocateERS1_PS0_y
_ZNSt16allocator_traitsISaIPvEE7destroyIS0_EEvRS1_PT_
_ZNSt16allocator_traitsISaIPvEE8allocateERS1_y
_ZNSt16allocator_traitsISaIPvEE8max_sizeERKS1_
_ZNSt16allocator_traitsISaIPvEE9constructIS0_JRKS0_EEEvRS1_PT_DpOT0_
_ZNSt16allocator_traitsISaIPvEE9constructIS0_JS0_EEEvRS1_PT_DpOT0_
_ZNSt16allocator_traitsISaISt23_Sp_counted_ptr_inplaceI17pic_parameter_setSaIS1_ELN9__gnu_cxx12_Lock_policyE2EEEE10deallocateERS6_PS5_y
_ZNSt16allocator_traitsISaISt23_Sp_counted_ptr_inplaceI17pic_parameter_setSaIS1_ELN9__gnu_cxx12_Lock_policyE2EEEE8allocateERS6_y
_ZNSt16allocator_traitsISaISt23_Sp_counted_ptr_inplaceI17seq_parameter_setSaIS1_ELN9__gnu_cxx12_Lock_policyE2EEEE10deallocateERS6_PS5_y
_ZNSt16allocator_traitsISaISt23_Sp_counted_ptr_inplaceI17seq_parameter_setSaIS1_ELN9__gnu_cxx12_Lock_policyE2EEEE8allocateERS6_y
_ZNSt16allocator_traitsISaISt23_Sp_counted_ptr_inplaceI18small_image_bufferSaIS1_ELN9__gnu_cxx12_Lock_policyE2EEEE10deallocateERS6_PS5_y
_ZNSt16allocator_traitsISaISt23_Sp_counted_ptr_inplaceI18small_image_bufferSaIS1_ELN9__gnu_cxx12_Lock_policyE2EEEE8allocateERS6_y
_ZNSt16allocator_traitsISaISt23_Sp_counted_ptr_inplaceI19video_parameter_setSaIS1_ELN9__gnu_cxx12_Lock_policyE2EEEE10deallocateERS6_PS5_y
_ZNSt16allocator_traitsISaISt23_Sp_counted_ptr_inplaceI19video_parameter_setSaIS1_ELN9__gnu_cxx12_Lock_policyE2EEEE8allocateERS6_y
_ZNSt16allocator_traitsISaISt4pairI13IntraPredModefEEE10deallocateERS3_PS2_y
_ZNSt16allocator_traitsISaISt4pairI13IntraPredModefEEE7destroyIS2_EEvRS3_PT_
_ZNSt16allocator_traitsISaISt4pairI13IntraPredModefEEE8allocateERS3_y
_ZNSt16allocator_traitsISaISt4pairI13IntraPredModefEEE8max_sizeERKS3_
_ZNSt16allocator_traitsISaISt4pairI13IntraPredModefEEE9constructIS2_JS2_EEEvRS3_PT_DpOT0_
_ZNSt16allocator_traitsISaISt4pairINSt7__cxx1112basic_stringIcSt11char_traitsIcESaIcEEE10MVTestModeEEE10deallocateERS9_PS8_y
_ZNSt16allocator_traitsISaISt4pairINSt7__cxx1112basic_stringIcSt11char_traitsIcESaIcEEE10MVTestModeEEE7destroyIS8_EEvRS9_PT_
_ZNSt16allocator_traitsISaISt4pairINSt7__cxx1112basic_stringIcSt11char_traitsIcESaIcEEE10MVTestModeEEE8allocateERS9_y
_ZNSt16allocator_traitsISaISt4pairINSt7__cxx1112basic_stringIcSt11char_traitsIcESaIcEEE10MVTestModeEEE8max_sizeERKS9_
_ZNSt16allocator_traitsISaISt4pairINSt7__cxx1112basic_stringIcSt11char_traitsIcESaIcEEE10MVTestModeEEE9constructIS8_JS8_EEEvRS9_PT_DpOT0_
_ZNSt16allocator_traitsISaISt4pairINSt7__cxx1112basic_stringIcSt11char_traitsIcESaIcEEE12MVSearchAlgoEEE10deallocateERS9_PS8_y
_ZNSt16allocator_traitsISaISt4pairINSt7__cxx1112basic_stringIcSt11char_traitsIcESaIcEEE12MVSearchAlgoEEE7destroyIS8_EEvRS9_PT_
_ZNSt16allocator_traitsISaISt4pairINSt7__cxx1112basic_stringIcSt11char_traitsIcESaIcEEE12MVSearchAlgoEEE8allocateERS9_y
_ZNSt16allocator_traitsISaISt4pairINSt7__cxx1112basic_stringIcSt11char_traitsIcESaIcEEE12MVSearchAlgoEEE8max_sizeERKS9_
_ZNSt16allocator_traitsISaISt4pairINSt7__cxx1112basic_stringIcSt11char_traitsIcESaIcEEE12MVSearchAlgoEEE9constructIS8_JS8_EEEvRS9_PT_DpOT0_
_ZNSt16allocator_traitsISaISt4pairINSt7__cxx1112basic_stringIcSt11char_traitsIcESaIcEEE13SOP_StructureEEE10deallocateERS9_PS8_y
_ZNSt16allocator_traitsISaISt4pairINSt7__cxx1112basic_stringIcSt11char_traitsIcESaIcEEE13SOP_StructureEEE7destroyIS8_EEvRS9_PT_
_ZNSt16allocator_traitsISaISt4pairINSt7__cxx1112basic_stringIcSt11char_traitsIcESaIcEEE13SOP_StructureEEE8allocateERS9_y
_ZNSt16allocator_traitsISaISt4pairINSt7__cxx1112basic_stringIcSt11char_traitsIcESaIcEEE13SOP_StructureEEE8max_sizeERKS9_
_ZNSt16allocator_traitsISaISt4pairINSt7__cxx1112basic_stringIcSt11char_traitsIcESaIcEEE13SOP_StructureEEE9constructIS8_JS8_EEEvRS9_PT_DpOT0_
_ZNSt16allocator_traitsISaISt4pairINSt7__cxx1112basic_stringIcSt11char_traitsIcESaIcEEE20TBBitrateEstimMethodEEE10deallocateERS9_PS8_y
_ZNSt16allocator_traitsISaISt4pairINSt7__cxx1112basic_stringIcSt11char_traitsIcESaIcEEE20TBBitrateEstimMethodEEE7destroyIS8_EEvRS9_PT_
_ZNSt16allocator_traitsISaISt4pairINSt7__cxx1112basic_stringIcSt11char_traitsIcESaIcEEE20TBBitrateEstimMethodEEE8allocateERS9_y
_ZNSt16allocator_traitsISaISt4pairINSt7__cxx1112basic_stringIcSt11char_traitsIcESaIcEEE20TBBitrateEstimMethodEEE8max_sizeERKS9_
_ZNSt16allocator_traitsISaISt4pairINSt7__cxx1112basic_stringIcSt11char_traitsIcESaIcEEE20TBBitrateEstimMethodEEE9constructIS8_JS8_EEEvRS9_PT_DpOT0_
_ZNSt16allocator_traitsISaISt4pairINSt7__cxx1112basic_stringIcSt11char_traitsIcESaIcEEE21ALGO_CB_IntraPartModeEEE10deallocateERS9_PS8_y
_ZNSt16allocator_traitsISaISt4pairINSt7__cxx1112basic_stringIcSt11char_traitsIcESaIcEEE21ALGO_CB_IntraPartModeEEE7destroyIS8_EEvRS9_PT_
_ZNSt16allocator_traitsISaISt4pairINSt7__cxx1112basic_stringIcSt11char_traitsIcESaIcEEE21ALGO_CB_IntraPartModeEEE8allocateERS9_y
_ZNSt16allocator_traitsISaISt4pairINSt7__cxx1112basic_stringIcSt11char_traitsIcESaIcEEE21ALGO_CB_IntraPartModeEEE8max_sizeERKS9_
_ZNSt16allocator_traitsISaISt4pairINSt7__cxx1112basic_stringIcSt11char_traitsIcESaIcEEE21ALGO_CB_IntraPartModeEEE9constructIS8_JS8_EEEvRS9_PT_DpOT0_
_ZNSt16allocator_traitsISaISt4pairINSt7__cxx1112basic_stringIcSt11char_traitsIcESaIcEEE21ALGO_TB_IntraPredModeEEE10deallocateERS9_PS8_y
_ZNSt16allocator_traitsISaISt4pairINSt7__cxx1112basic_stringIcSt11char_traitsIcESaIcEEE21ALGO_TB_IntraPredModeEEE7destroyIS8_EEvRS9_PT_
_ZNSt16allocator_traitsISaISt4pairINSt7__cxx1112basic_stringIcSt11char_traitsIcESaIcEEE21ALGO_TB_IntraPredModeEEE8allocateERS9_y
_ZNSt16allocator_traitsISaISt4pairINSt7__cxx1112basic_stringIcSt11char_traitsIcESaIcEEE21ALGO_TB_IntraPredModeEEE8max_sizeERKS9_
_ZNSt16allocator_traitsISaISt4pairINSt7__cxx1112basic_stringIcSt11char_traitsIcESaIcEEE21ALGO_TB_IntraPredModeEEE9constructIS8_JS8_EEEvRS9_PT_DpOT0_
_ZNSt16allocator_traitsISaISt4pairINSt7__cxx1112basic_stringIcSt11char_traitsIcESaIcEEE22ALGO_TB_RateEstimationEEE10deallocateERS9_PS8_y
_ZNSt16allocator_traitsISaISt4pairINSt7__cxx1112basic_stringIcSt11char_traitsIcESaIcEEE22ALGO_TB_RateEstimationEEE7destroyIS8_EEvRS9_PT_
_ZNSt16allocator_traitsISaISt4pairINSt7__cxx1112basic_stringIcSt11char_traitsIcESaIcEEE22ALGO_TB_RateEstimationEEE8allocateERS9_y
_ZNSt16allocator_traitsISaISt4pairINSt7__cxx1112basic_stringIcSt11char_traitsIcESaIcEEE22ALGO_TB_RateEstimationEEE8max_sizeERKS9_
_ZNSt16allocator_traitsISaISt4pairINSt7__cxx1112basic_stringIcSt11char_traitsIcESaIcEEE22ALGO_TB_RateEstimationEEE9constructIS8_JS8_EEEvRS9_PT_DpOT0_
_ZNSt16allocator_traitsISaISt4pairINSt7__cxx1112basic_stringIcSt11char_traitsIcESaIcEEE28ALGO_TB_IntraPredMode_SubsetEEE10deallocateERS9_PS8_y
_ZNSt16allocator_traitsISaISt4pairINSt7__cxx1112basic_stringIcSt11char_traitsIcESaIcEEE28ALGO_TB_IntraPredMode_SubsetEEE7destroyIS8_EEvRS9_PT_
_ZNSt16allocator_traitsISaISt4pairINSt7__cxx1112basic_stringIcSt11char_traitsIcESaIcEEE28ALGO_TB_IntraPredMode_SubsetEEE8allocateERS9_y
_ZNSt16allocator_traitsISaISt4pairINSt7__cxx1112basic_stringIcSt11char_traitsIcESaIcEEE28ALGO_TB_IntraPredMode_SubsetEEE8max_sizeERKS9_
_ZNSt16allocator_traitsISaISt4pairINSt7__cxx1112basic_stringIcSt11char_traitsIcESaIcEEE28ALGO_TB_IntraPredMode_SubsetEEE9constructIS8_JS8_EEEvRS9_PT_DpOT0_
_ZNSt16allocator_traitsISaISt4pairINSt7__cxx1112basic_stringIcSt11char_traitsIcESaIcEEE39ALGO_TB_Split_BruteForce_ZeroBlockPruneEEE10deallocateERS9_PS8_y
_ZNSt16allocator_traitsISaISt4pairINSt7__cxx1112basic_stringIcSt11char_traitsIcESaIcEEE39ALGO_TB_Split_BruteForce_ZeroBlockPruneEEE7destroyIS8_EEvRS9_PT_
_ZNSt16allocator_traitsISaISt4pairINSt7__cxx1112basic_stringIcSt11char_traitsIcESaIcEEE39ALGO_TB_Split_BruteForce_ZeroBlockPruneEEE8allocateERS9_y
_ZNSt16allocator_traitsISaISt4pairINSt7__cxx1112basic_stringIcSt11char_traitsIcESaIcEEE39ALGO_TB_Split_BruteForce_ZeroBlockPruneEEE8max_sizeERKS9_
_ZNSt16allocator_traitsISaISt4pairINSt7__cxx1112basic_stringIcSt11char_traitsIcESaIcEEE39ALGO_TB_Split_BruteForce_ZeroBlockPruneEEE9constructIS8_JS8_EEEvRS9_PT_DpOT0_
_ZNSt16allocator_traitsISaISt4pairINSt7__cxx1112basic_stringIcSt11char_traitsIcESaIcEEE6MEModeEEE10deallocateERS9_PS8_y
_ZNSt16allocator_traitsISaISt4pairINSt7__cxx1112basic_stringIcSt11char_traitsIcESaIcEEE6MEModeEEE7destroyIS8_EEvRS9_PT_
_ZNSt16allocator_traitsISaISt4pairINSt7__cxx1112basic_stringIcSt11char_traitsIcESaIcEEE6MEModeEEE8allocateERS9_y
_ZNSt16allocator_traitsISaISt4pairINSt7__cxx1112basic_stringIcSt11char_traitsIcESaIcEEE6MEModeEEE8max_sizeERKS9_
_ZNSt16allocator_traitsISaISt4pairINSt7__cxx1112basic_stringIcSt11char_traitsIcESaIcEEE6MEModeEEE9constructIS8_JS8_EEEvRS9_PT_DpOT0_
_ZNSt16allocator_traitsISaISt4pairINSt7__cxx1112basic_stringIcSt11char_traitsIcESaIcEEE8PartModeEEE10deallocateERS9_PS8_y
_ZNSt16allocator_traitsISaISt4pairINSt7__cxx1112basic_stringIcSt11char_traitsIcESaIcEEE8PartModeEEE7destroyIS8_EEvRS9_PT_
_ZNSt16allocator_traitsISaISt4pairINSt7__cxx1112basic_stringIcSt11char_traitsIcESaIcEEE8PartModeEEE8allocateERS9_y
_ZNSt16allocator_traitsISaISt4pairINSt7__cxx1112basic_stringIcSt11char_traitsIcESaIcEEE8PartModeEEE8max_sizeERKS9_
_ZNSt16allocator_traitsISaISt4pairINSt7__cxx1112basic_stringIcSt11char_traitsIcESaIcEEE8PartModeEEE9constructIS8_JS8_EEEvRS9_PT_DpOT0_
_ZNSt16allocator_traitsISaISt6vectorIcSaIcEEEE10deallocateERS3_PS2_y
_ZNSt16allocator_traitsISaISt6vectorIcSaIcEEEE8allocateERS3_y
_ZNSt16allocator_traitsISaISt6vectorIcSaIcEEEE8max_sizeERKS3_
_ZNSt16allocator_traitsISaIcEE10deallocateERS0_Pcy
_ZNSt16allocator_traitsISaIcEE7destroyIcEEvRS0_PT_
_ZNSt16allocator_traitsISaIcEE8allocateERS0_y
_ZNSt16allocator_traitsISaIcEE8max_sizeERKS0_
_ZNSt16allocator_traitsISaIcEE9constructIcJRKcEEEvRS0_PT_DpOT0_
_ZNSt16allocator_traitsISaIhEE10deallocateERS0_Phy
_ZNSt16allocator_traitsISaIhEE8allocateERS0_y
_ZNSt16allocator_traitsISaIiEE10deallocateERS0_Piy
_ZNSt16allocator_traitsISaIiEE7destroyIiEEvRS0_PT_
_ZNSt16allocator_traitsISaIiEE8allocateERS0_y
_ZNSt16allocator_traitsISaIiEE8max_sizeERKS0_
_ZNSt16allocator_traitsISaIiEE9constructIiJRKiEEEvRS0_PT_DpOT0_
_ZNSt16allocator_traitsISaIiEE9constructIiJiEEEvRS0_PT_DpOT0_
_ZNSt16allocator_traitsISaItEE10deallocateERS0_Pty
_ZNSt16allocator_traitsISaItEE8allocateERS0_y
_ZNSt16allocator_traitsISaItEE8max_sizeERKS0_
_ZNSt20__copy_move_backwardILb0ELb1ESt26random_access_iterator_tagE13__copy_move_bIPP10image_dataEEPT_PKS6_S9_S7_
_ZNSt20__copy_move_backwardILb0ELb1ESt26random_access_iterator_tagE13__copy_move_bIPP11de265_imageEEPT_PKS6_S9_S7_
_ZNSt20__copy_move_backwardILb0ELb1ESt26random_access_iterator_tagE13__copy_move_bIPP11thread_taskEEPT_PKS6_S9_S7_
_ZNSt20__copy_move_backwardILb0ELb1ESt26random_access_iterator_tagE13__copy_move_bIPP12en265_packetEEPT_PKS6_S9_S7_
_ZNSt20__copy_move_backwardILb0ELb1ESt26random_access_iterator_tagE13__copy_move_bIPP8NAL_unitEEPT_PKS6_S9_S7_
_ZNSt20__copy_move_backwardILb1ELb0ESt26random_access_iterator_tagE13__copy_move_bIPSt4pairI13IntraPredModefES6_EET0_T_S8_S7_
_ZNSt20__copy_move_backwardILb1ELb1ESt26random_access_iterator_tagE13__copy_move_bIP10image_dataEEPT_PKS5_S8_S6_
_ZNSt20__copy_move_backwardILb1ELb1ESt26random_access_iterator_tagE13__copy_move_bIP6enc_cbEEPT_PKS5_S8_S6_
_ZNSt20__copy_move_backwardILb1ELb1ESt26random_access_iterator_tagE13__copy_move_bIcEEPT_PKS3_S6_S4_
_ZNSt20__uninitialized_copyILb0EE13__uninit_copyIPK19context_model_tablePS2_EET0_T_S7_S6_
_ZNSt20__uninitialized_copyILb0EE13__uninit_copyIPKN13CodingOptionsI6enc_cbE16CodingOptionDataEPS5_EET0_T_SA_S9_
_ZNSt20__uninitialized_copyILb0EE13__uninit_copyIPKN13CodingOptionsI6enc_tbE16CodingOptionDataEPS5_EET0_T_SA_S9_
_ZNSt20__uninitialized_copyILb0EE13__uninit_copyISt13move_iteratorIP12CodingOptionI6enc_tbEES6_EET0_T_S9_S8_
_ZNSt20__uninitialized_copyILb0EE13__uninit_copyISt13move_iteratorIPNSt7__cxx1112basic_stringIcSt11char_traitsIcESaIcEEEES9_EET0_T_SC_SB_
_ZNSt20__uninitialized_copyILb0EE13__uninit_copyISt13move_iteratorIPSt4pairI13IntraPredModefEES6_EET0_T_S9_S8_
_ZNSt20__uninitialized_copyILb0EE13__uninit_copyISt13move_iteratorIPSt4pairINSt7__cxx1112basic_stringIcSt11char_traitsIcESaIcEEE10MVTestModeEESC_EET0_T_SF_SE_
_ZNSt20__uninitialized_copyILb0EE13__uninit_copyISt13move_iteratorIPSt4pairINSt7__cxx1112basic_stringIcSt11char_traitsIcESaIcEEE12MVSearchAlgoEESC_EET0_T_SF_SE_
_ZNSt20__uninitialized_copyILb0EE13__uninit_copyISt13move_iteratorIPSt4pairINSt7__cxx1112basic_stringIcSt11char_traitsIcESaIcEEE13SOP_StructureEESC_EET0_T_SF_SE_
_ZNSt20__uninitialized_copyILb0EE13__uninit_copyISt13move_iteratorIPSt4pairINSt7__cxx1112basic_stringIcSt11char_traitsIcESaIcEEE20TBBitrateEstimMethodEESC_EET0_T_SF_SE_
_ZNSt20__uninitialized_copyILb0EE13__uninit_copyISt13move_iteratorIPSt4pairINSt7__cxx1112basic_stringIcSt11char_traitsIcESaIcEEE21ALGO_CB_IntraPartModeEESC_EET0_T_SF_SE_
_ZNSt20__uninitialized_copyILb0EE13__uninit_copyISt13move_iteratorIPSt4pairINSt7__cxx1112basic_stringIcSt11char_traitsIcESaIcEEE21ALGO_TB_IntraPredModeEESC_EET0_T_SF_SE_
_ZNSt20__uninitialized_copyILb0EE13__uninit_copyISt13move_iteratorIPSt4pairINSt7__cxx1112basic_stringIcSt11char_traitsIcESaIcEEE22ALGO_TB_RateEstimationEESC_EET0_T_SF_SE_
_ZNSt20__uninitialized_copyILb0EE13__uninit_copyISt13move_iteratorIPSt4pairINSt7__cxx1112basic_stringIcSt11char_traitsIcESaIcEEE28ALGO_TB_IntraPredMode_SubsetEESC_EET0_T_SF_SE_
_ZNSt20__uninitialized_copyILb0EE13__uninit_copyISt13move_iteratorIPSt4pairINSt7__cxx1112basic_stringIcSt11char_traitsIcESaIcEEE39ALGO_TB_Split_BruteForce_ZeroBlockPruneEESC_EET0_T_SF_SE_
_ZNSt20__uninitialized_copyILb0EE13__uninit_copyISt13move_iteratorIPSt4pairINSt7__cxx1112basic_stringIcSt11char_traitsIcESaIcEEE6MEModeEESC_EET0_T_SF_SE_
_ZNSt20__uninitialized_copyILb0EE13__uninit_copyISt13move_iteratorIPSt4pairINSt7__cxx1112basic_stringIcSt11char_traitsIcESaIcEEE8PartModeEESC_EET0_T_SF_SE_
_ZNSt20__uninitialized_copyILb0EE13__uninit_copyISt13move_iteratorIPSt6vectorIcSaIcEEES6_EET0_T_S9_S8_
_ZNSt20__uninitialized_copyILb1EE13__uninit_copyIN9__gnu_cxx17__normal_iteratorIPKiSt6vectorIiSaIiEEEEPiEET0_T_SC_SB_
_ZNSt20__uninitialized_copyILb1EE13__uninit_copyIPiS2_EET0_T_S4_S3_
_ZNSt20__uninitialized_copyILb1EE13__uninit_copyISt13move_iteratorIP11ref_pic_setES4_EET0_T_S7_S6_
_ZNSt20__uninitialized_copyILb1EE13__uninit_copyISt13move_iteratorIP11sei_messageES4_EET0_T_S7_S6_
_ZNSt20__uninitialized_copyILb1EE13__uninit_copyISt13move_iteratorIPP10image_unitES5_EET0_T_S8_S7_
_ZNSt20__uninitialized_copyILb1EE13__uninit_copyISt13move_iteratorIPP10slice_unitES5_EET0_T_S8_S7_
_ZNSt20__uninitialized_copyILb1EE13__uninit_copyISt13move_iteratorIPP11de265_imageES5_EET0_T_S8_S7_
_ZNSt20__uninitialized_copyILb1EE13__uninit_copyISt13move_iteratorIPP11option_baseES5_EET0_T_S8_S7_
_ZNSt20__uninitialized_copyILb1EE13__uninit_copyISt13move_iteratorIPP11thread_taskES5_EET0_T_S8_S7_
_ZNSt20__uninitialized_copyILb1EE13__uninit_copyISt13move_iteratorIPP20slice_segment_headerES5_EET0_T_S8_S7_
_ZNSt20__uninitialized_copyILb1EE13__uninit_copyISt13move_iteratorIPP6enc_cbES5_EET0_T_S8_S7_
_ZNSt20__uninitialized_copyILb1EE13__uninit_copyISt13move_iteratorIPP8NAL_unitES5_EET0_T_S8_S7_
_ZNSt20__uninitialized_copyILb1EE13__uninit_copyISt13move_iteratorIPPhES4_EET0_T_S7_S6_
_ZNSt20__uninitialized_copyILb1EE13__uninit_copyISt13move_iteratorIPPvES4_EET0_T_S7_S6_
_ZNSt20__uninitialized_copyILb1EE13__uninit_copyISt13move_iteratorIPcES3_EET0_T_S6_S5_
_ZNSt20__uninitialized_copyILb1EE13__uninit_copyISt13move_iteratorIPiES3_EET0_T_S6_S5_
_ZNSt20__uninitialized_copyILb1EE13__uninit_copyISt13move_iteratorIPtES3_EET0_T_S6_S5_
_ZNSt20__uninitialized_copyILb1EE13__uninit_copyISt13move_iteratorISt15_Deque_iteratorIP10image_dataRS5_PS5_EES8_EET0_T_SB_SA_
_ZNSt20__uninitialized_copyILb1EE13__uninit_copyISt15_Deque_iteratorIP10image_dataRKS4_PS5_ES2_IS4_RS4_PS4_EEET0_T_SD_SC_
_ZNSt22__uninitialized_fill_nILb1EE15__uninit_fill_nIPP6enc_cbyS3_EET_S5_T0_RKT1_
_ZNSt22__uninitialized_fill_nILb1EE15__uninit_fill_nIPcycEET_S3_T0_RKT1_
_ZNSt23_Sp_counted_ptr_inplaceI17pic_parameter_setSaIS0_ELN9__gnu_cxx12_Lock_policyE2EE10_M_destroyEv
_ZNSt23_Sp_counted_ptr_inplaceI17pic_parameter_setSaIS0_ELN9__gnu_cxx12_Lock_policyE2EE10_M_disposeEv
_ZNSt23_Sp_counted_ptr_inplaceI17pic_parameter_setSaIS0_ELN9__gnu_cxx12_Lock_policyE2EE14_M_get_deleterERKSt9type_info
_ZNSt23_Sp_counted_ptr_inplaceI17pic_parameter_setSaIS0_ELN9__gnu_cxx12_Lock_policyE2EE5_Impl8_M_allocEv
_ZNSt23_Sp_counted_ptr_inplaceI17pic_parameter_setSaIS0_ELN9__gnu_cxx12_Lock_policyE2EE5_ImplC1ES1_
_ZNSt23_Sp_counted_ptr_inplaceI17pic_parameter_setSaIS0_ELN9__gnu_cxx12_Lock_policyE2EE5_ImplD1Ev
_ZNSt23_Sp_counted_ptr_inplaceI17pic_parameter_setSaIS0_ELN9__gnu_cxx12_Lock_policyE2EE6_M_ptrEv
_ZNSt23_Sp_counted_ptr_inplaceI17pic_parameter_setSaIS0_ELN9__gnu_cxx12_Lock_policyE2EEC1IJEEES1_DpOT_
_ZNSt23_Sp_counted_ptr_inplaceI17pic_parameter_setSaIS0_ELN9__gnu_cxx12_Lock_policyE2EED0Ev
_ZNSt23_Sp_counted_ptr_inplaceI17pic_parameter_setSaIS0_ELN9__gnu_cxx12_Lock_policyE2EED1Ev
_ZNSt23_Sp_counted_ptr_inplaceI17seq_parameter_setSaIS0_ELN9__gnu_cxx12_Lock_policyE2EE10_M_destroyEv
_ZNSt23_Sp_counted_ptr_inplaceI17seq_parameter_setSaIS0_ELN9__gnu_cxx12_Lock_policyE2EE10_M_disposeEv
_ZNSt23_Sp_counted_ptr_inplaceI17seq_parameter_setSaIS0_ELN9__gnu_cxx12_Lock_policyE2EE14_M_get_deleterERKSt9type_info
_ZNSt23_Sp_counted_ptr_inplaceI17seq_parameter_setSaIS0_ELN9__gnu_cxx12_Lock_policyE2EE5_Impl8_M_allocEv
_ZNSt23_Sp_counted_ptr_inplaceI17seq_parameter_setSaIS0_ELN9__gnu_cxx12_Lock_policyE2EE5_ImplC1ES1_
_ZNSt23_Sp_counted_ptr_inplaceI17seq_parameter_setSaIS0_ELN9__gnu_cxx12_Lock_policyE2EE5_ImplD1Ev
_ZNSt23_Sp_counted_ptr_inplaceI17seq_parameter_setSaIS0_ELN9__gnu_cxx12_Lock_policyE2EE6_M_ptrEv
_ZNSt23_Sp_counted_ptr_inplaceI17seq_parameter_setSaIS0_ELN9__gnu_cxx12_Lock_policyE2EEC1IJEEES1_DpOT_
_ZNSt23_Sp_counted_ptr_inplaceI17seq_parameter_setSaIS0_ELN9__gnu_cxx12_Lock_policyE2EED0Ev
_ZNSt23_Sp_counted_ptr_inplaceI17seq_parameter_setSaIS0_ELN9__gnu_cxx12_Lock_policyE2EED1Ev
_ZNSt23_Sp_counted_ptr_inplaceI18small_image_bufferSaIS0_ELN9__gnu_cxx12_Lock_policyE2EE10_M_destroyEv
_ZNSt23_Sp_counted_ptr_inplaceI18small_image_bufferSaIS0_ELN9__gnu_cxx12_Lock_policyE2EE10_M_disposeEv
_ZNSt23_Sp_counted_ptr_inplaceI18small_image_bufferSaIS0_ELN9__gnu_cxx12_Lock_policyE2EE14_M_get_deleterERKSt9type_info
_ZNSt23_Sp_counted_ptr_inplaceI18small_image_bufferSaIS0_ELN9__gnu_cxx12_Lock_policyE2EE5_Impl8_M_allocEv
_ZNSt23_Sp_counted_ptr_inplaceI18small_image_bufferSaIS0_ELN9__gnu_cxx12_Lock_policyE2EE5_ImplC1ES1_
_ZNSt23_Sp_counted_ptr_inplaceI18small_image_bufferSaIS0_ELN9__gnu_cxx12_Lock_policyE2EE5_ImplD1Ev
_ZNSt23_Sp_counted_ptr_inplaceI18small_image_bufferSaIS0_ELN9__gnu_cxx12_Lock_policyE2EE6_M_ptrEv
_ZNSt23_Sp_counted_ptr_inplaceI18small_image_bufferSaIS0_ELN9__gnu_cxx12_Lock_policyE2EEC1IJRiyEEES1_DpOT_
_ZNSt23_Sp_counted_ptr_inplaceI18small_image_bufferSaIS0_ELN9__gnu_cxx12_Lock_policyE2EED0Ev
_ZNSt23_Sp_counted_ptr_inplaceI18small_image_bufferSaIS0_ELN9__gnu_cxx12_Lock_policyE2EED1Ev
_ZNSt23_Sp_counted_ptr_inplaceI19video_parameter_setSaIS0_ELN9__gnu_cxx12_Lock_policyE2EE10_M_destroyEv
_ZNSt23_Sp_counted_ptr_inplaceI19video_parameter_setSaIS0_ELN9__gnu_cxx12_Lock_policyE2EE10_M_disposeEv
_ZNSt23_Sp_counted_ptr_inplaceI19video_parameter_setSaIS0_ELN9__gnu_cxx12_Lock_policyE2EE14_M_get_deleterERKSt9type_info
_ZNSt23_Sp_counted_ptr_inplaceI19video_parameter_setSaIS0_ELN9__gnu_cxx12_Lock_policyE2EE5_Impl8_M_allocEv
_ZNSt23_Sp_counted_ptr_inplaceI19video_parameter_setSaIS0_ELN9__gnu_cxx12_Lock_policyE2EE5_ImplC1ES1_
_ZNSt23_Sp_counted_ptr_inplaceI19video_parameter_setSaIS0_ELN9__gnu_cxx12_Lock_policyE2EE5_ImplD1Ev
_ZNSt23_Sp_counted_ptr_inplaceI19video_parameter_setSaIS0_ELN9__gnu_cxx12_Lock_policyE2EE6_M_ptrEv
_ZNSt23_Sp_counted_ptr_inplaceI19video_parameter_setSaIS0_ELN9__gnu_cxx12_Lock_policyE2EEC1IJEEES1_DpOT_
_ZNSt23_Sp_counted_ptr_inplaceI19video_parameter_setSaIS0_ELN9__gnu_cxx12_Lock_policyE2EED0Ev
_ZNSt23_Sp_counted_ptr_inplaceI19video_parameter_setSaIS0_ELN9__gnu_cxx12_Lock_policyE2EED1Ev
_ZNSt27__uninitialized_default_n_1ILb0EE18__uninit_default_nIP19context_model_tableyEET_S4_T0_
_ZNSt27__uninitialized_default_n_1ILb0EE18__uninit_default_nIPSt4pairI13IntraPredModefEyEET_S6_T0_
_ZNSt27__uninitialized_default_n_1ILb0EE18__uninit_default_nIPSt6vectorIcSaIcEEyEET_S6_T0_
_ZNSt27__uninitialized_default_n_1ILb1EE18__uninit_default_nIP11ref_pic_setyEET_S4_T0_
_ZNSt27__uninitialized_default_n_1ILb1EE18__uninit_default_nIPcyEET_S3_T0_
_ZNSt27__uninitialized_default_n_1ILb1EE18__uninit_default_nIPhyEET_S3_T0_
_ZNSt27__uninitialized_default_n_1ILb1EE18__uninit_default_nIPiyEET_S3_T0_
_ZNSt27__uninitialized_default_n_1ILb1EE18__uninit_default_nIPtyEET_S3_T0_
_ZNSt4pairI13IntraPredModefE4swapERS1_
_ZNSt4pairI13IntraPredModefEC1IS0_RfLb1EEEOT_OT0_
_ZNSt4pairI13IntraPredModefEC1IS0_fLb1EEEv
_ZNSt4pairI13IntraPredModefEC1IS0_iLb1EEEOS_IT_T0_E
_ZNSt4pairI13IntraPredModefEaSEOS1_
_ZNSt4pairI13IntraPredModeiEC1IS0_iLb1EEEOT_OT0_
_ZNSt4pairINSt7__cxx1112basic_stringIcSt11char_traitsIcESaIcEEE10MVTestModeEC1EOS7_
_ZNSt4pairINSt7__cxx1112basic_stringIcSt11char_traitsIcESaIcEEE10MVTestModeEC1ERKS7_
_ZNSt4pairINSt7__cxx1112basic_stringIcSt11char_traitsIcESaIcEEE10MVTestModeEC1IRS6_Lb1EEERKS5_OT_
_ZNSt4pairINSt7__cxx1112basic_stringIcSt11char_traitsIcESaIcEEE10MVTestModeED1Ev
_ZNSt4pairINSt7__cxx1112basic_stringIcSt11char_traitsIcESaIcEEE12MVSearchAlgoEC1EOS7_
_ZNSt4pairINSt7__cxx1112basic_stringIcSt11char_traitsIcESaIcEEE12MVSearchAlgoEC1ERKS7_
_ZNSt4pairINSt7__cxx1112basic_stringIcSt11char_traitsIcESaIcEEE12MVSearchAlgoEC1IRS6_Lb1EEERKS5_OT_
_ZNSt4pairINSt7__cxx1112basic_stringIcSt11char_traitsIcESaIcEEE12MVSearchAlgoED1Ev
_ZNSt4pairINSt7__cxx1112basic_stringIcSt11char_traitsIcESaIcEEE13SOP_StructureEC1EOS7_
_ZNSt4pairINSt7__cxx1112basic_stringIcSt11char_traitsIcESaIcEEE13SOP_StructureEC1ERKS7_
_ZNSt4pairINSt7__cxx1112basic_stringIcSt11char_traitsIcESaIcEEE13SOP_StructureEC1IRS6_Lb1EEERKS5_OT_
_ZNSt4pairINSt7__cxx1112basic_stringIcSt11char_traitsIcESaIcEEE13SOP_StructureED1Ev
_ZNSt4pairINSt7__cxx1112basic_stringIcSt11char_traitsIcESaIcEEE20TBBitrateEstimMethodEC1EOS7_
_ZNSt4pairINSt7__cxx1112basic_stringIcSt11char_traitsIcESaIcEEE20TBBitrateEstimMethodEC1ERKS7_
_ZNSt4pairINSt7__cxx1112basic_stringIcSt11char_traitsIcESaIcEEE20TBBitrateEstimMethodEC1IRS6_Lb1EEERKS5_OT_
_ZNSt4pairINSt7__cxx1112basic_stringIcSt11char_traitsIcESaIcEEE20TBBitrateEstimMethodED1Ev
_ZNSt4pairINSt7__cxx1112basic_stringIcSt11char_traitsIcESaIcEEE21ALGO_CB_IntraPartModeEC1EOS7_
_ZNSt4pairINSt7__cxx1112basic_stringIcSt11char_traitsIcESaIcEEE21ALGO_CB_IntraPartModeEC1ERKS7_
_ZNSt4pairINSt7__cxx1112basic_stringIcSt11char_traitsIcESaIcEEE21ALGO_CB_IntraPartModeEC1IRS6_Lb1EEERKS5_OT_
_ZNSt4pairINSt7__cxx1112basic_stringIcSt11char_traitsIcESaIcEEE21ALGO_CB_IntraPartModeED1Ev
_ZNSt4pairINSt7__cxx1112basic_stringIcSt11char_traitsIcESaIcEEE21ALGO_TB_IntraPredModeEC1EOS7_
_ZNSt4pairINSt7__cxx1112basic_stringIcSt11char_traitsIcESaIcEEE21ALGO_TB_IntraPredModeEC1ERKS7_
_ZNSt4pairINSt7__cxx1112basic_stringIcSt11char_traitsIcESaIcEEE21ALGO_TB_IntraPredModeEC1IRS6_Lb1EEERKS5_OT_
_ZNSt4pairINSt7__cxx1112basic_stringIcSt11char_traitsIcESaIcEEE21ALGO_TB_IntraPredModeED1Ev
_ZNSt4pairINSt7__cxx1112basic_stringIcSt11char_traitsIcESaIcEEE22ALGO_TB_RateEstimationEC1EOS7_
_ZNSt4pairINSt7__cxx1112basic_stringIcSt11char_traitsIcESaIcEEE22ALGO_TB_RateEstimationEC1ERKS7_
_ZNSt4pairINSt7__cxx1112basic_stringIcSt11char_traitsIcESaIcEEE22ALGO_TB_RateEstimationEC1IRS6_Lb1EEERKS5_OT_
_ZNSt4pairINSt7__cxx1112basic_stringIcSt11char_traitsIcESaIcEEE22ALGO_TB_RateEstimationED1Ev
_ZNSt4pairINSt7__cxx1112basic_stringIcSt11char_traitsIcESaIcEEE28ALGO_TB_IntraPredMode_SubsetEC1EOS7_
_ZNSt4pairINSt7__cxx1112basic_stringIcSt11char_traitsIcESaIcEEE28ALGO_TB_IntraPredMode_SubsetEC1ERKS7_
_ZNSt4pairINSt7__cxx1112basic_stringIcSt11char_traitsIcESaIcEEE28ALGO_TB_IntraPredMode_SubsetEC1IRS6_Lb1EEERKS5_OT_
_ZNSt4pairINSt7__cxx1112basic_stringIcSt11char_traitsIcESaIcEEE28ALGO_TB_IntraPredMode_SubsetED1Ev
_ZNSt4pairINSt7__cxx1112basic_stringIcSt11char_traitsIcESaIcEEE39ALGO_TB_Split_BruteForce_ZeroBlockPruneEC1EOS7_
_ZNSt4pairINSt7__cxx1112basic_stringIcSt11char_traitsIcESaIcEEE39ALGO_TB_Split_BruteForce_ZeroBlockPruneEC1ERKS7_
_ZNSt4pairINSt7__cxx1112basic_stringIcSt11char_traitsIcESaIcEEE39ALGO_TB_Split_BruteForce_ZeroBlockPruneEC1IRS6_Lb1EEERKS5_OT_
_ZNSt4pairINSt7__cxx1112basic_stringIcSt11char_traitsIcESaIcEEE39ALGO_TB_Split_BruteForce_ZeroBlockPruneED1Ev
_ZNSt4pairINSt7__cxx1112basic_stringIcSt11char_traitsIcESaIcEEE6MEModeEC1EOS7_
_ZNSt4pairINSt7__cxx1112basic_stringIcSt11char_traitsIcESaIcEEE6MEModeEC1ERKS7_
_ZNSt4pairINSt7__cxx1112basic_stringIcSt11char_traitsIcESaIcEEE6MEModeEC1IRS6_Lb1EEERKS5_OT_
_ZNSt4pairINSt7__cxx1112basic_stringIcSt11char_traitsIcESaIcEEE6MEModeED1Ev
_ZNSt4pairINSt7__cxx1112basic_stringIcSt11char_traitsIcESaIcEEE8PartModeEC1EOS7_
_ZNSt4pairINSt7__cxx1112basic_stringIcSt11char_traitsIcESaIcEEE8PartModeEC1ERKS7_
_ZNSt4pairINSt7__cxx1112basic_stringIcSt11char_traitsIcESaIcEEE8PartModeEC1IRS6_Lb1EEERKS5_OT_
_ZNSt4pairINSt7__cxx1112basic_stringIcSt11char_traitsIcESaIcEEE8PartModeED1Ev
_ZNSt5dequeIP10image_dataSaIS1_EE13_M_insert_auxISt15_Deque_iteratorIS1_RKS1_PS6_EEEvS5_IS1_RS1_PS1_ET_SD_y
_ZNSt5dequeIP10image_dataSaIS1_EE14_M_replace_mapIJRKS3_S2_EEEvDpOT_
_ZNSt5dequeIP10image_dataSaIS1_EE14_S_buffer_sizeEv
_ZNSt5dequeIP10image_dataSaIS1_EE15_M_destroy_dataESt15_Deque_iteratorIS1_RS1_PS1_ES7_RKS2_
_ZNSt5dequeIP10image_dataSaIS1_EE15_M_erase_at_endESt15_Deque_iteratorIS1_RS1_PS1_E
_ZNSt5dequeIP10image_dataSaIS1_EE16_M_pop_front_auxEv
_ZNSt5dequeIP10image_dataSaIS1_EE16_M_push_back_auxIJRKS1_EEEvDpOT_
_ZNSt5dequeIP10image_dataSaIS1_EE17_M_reallocate_mapEyb
_ZNSt5dequeIP10image_dataSaIS1_EE19_M_range_insert_auxISt15_Deque_iteratorIS1_RKS1_PS6_EEEvS5_IS1_RS1_PS1_ET_SD_St20forward_iterator_tag
_ZNSt5dequeIP10image_dataSaIS1_EE22_M_reserve_map_at_backEy
_ZNSt5dequeIP10image_dataSaIS1_EE23_M_new_elements_at_backEy
_ZNSt5dequeIP10image_dataSaIS1_EE23_M_reserve_map_at_frontEy
_ZNSt5dequeIP10image_dataSaIS1_EE24_M_new_elements_at_frontEy
_ZNSt5dequeIP10image_dataSaIS1_EE27_M_reserve_elements_at_backEy
_ZNSt5dequeIP10image_dataSaIS1_EE28_M_reserve_elements_at_frontEy
_ZNSt5dequeIP10image_dataSaIS1_EE3endEv
_ZNSt5dequeIP10image_dataSaIS1_EE4backEv
_ZNSt5dequeIP10image_dataSaIS1_EE5beginEv
_ZNSt5dequeIP10image_dataSaIS1_EE5clearEv
_ZNSt5dequeIP10image_dataSaIS1_EE5frontEv
_ZNSt5dequeIP10image_dataSaIS1_EE9pop_frontEv
_ZNSt5dequeIP10image_dataSaIS1_EE9push_backERKS1_
_ZNSt5dequeIP10image_dataSaIS1_EEC1ERKS3_RKS2_
_ZNSt5dequeIP10image_dataSaIS1_EEC1Ev
_ZNSt5dequeIP10image_dataSaIS1_EED1Ev
_ZNSt5dequeIP10image_dataSaIS1_EEaSERKS3_
_ZNSt5dequeIP10image_dataSaIS1_EEixEy
_ZNSt5dequeIP11de265_imageSaIS1_EE15_M_destroy_dataESt15_Deque_iteratorIS1_RS1_PS1_ES7_RKS2_
_ZNSt5dequeIP11de265_imageSaIS1_EE15_M_erase_at_endESt15_Deque_iteratorIS1_RS1_PS1_E
_ZNSt5dequeIP11de265_imageSaIS1_EE16_M_pop_front_auxEv
_ZNSt5dequeIP11de265_imageSaIS1_EE16_M_push_back_auxIJRKS1_EEEvDpOT_
_ZNSt5dequeIP11de265_imageSaIS1_EE17_M_reallocate_mapEyb
_ZNSt5dequeIP11de265_imageSaIS1_EE22_M_reserve_map_at_backEy
_ZNSt5dequeIP11de265_imageSaIS1_EE3endEv
_ZNSt5dequeIP11de265_imageSaIS1_EE5beginEv
_ZNSt5dequeIP11de265_imageSaIS1_EE5clearEv
_ZNSt5dequeIP11de265_imageSaIS1_EE9pop_frontEv
_ZNSt5dequeIP11de265_imageSaIS1_EE9push_backERKS1_
_ZNSt5dequeIP11de265_imageSaIS1_EEC1Ev
_ZNSt5dequeIP11de265_imageSaIS1_EED1Ev
_ZNSt5dequeIP11thread_taskSaIS1_EE15_M_destroy_dataESt15_Deque_iteratorIS1_RS1_PS1_ES7_RKS2_
_ZNSt5dequeIP11thread_taskSaIS1_EE16_M_pop_front_auxEv
_ZNSt5dequeIP11thread_taskSaIS1_EE16_M_push_back_auxIJRKS1_EEEvDpOT_
_ZNSt5dequeIP11thread_taskSaIS1_EE17_M_reallocate_mapEyb
_ZNSt5dequeIP11thread_taskSaIS1_EE22_M_reserve_map_at_backEy
_ZNSt5dequeIP11thread_taskSaIS1_EE3endEv
_ZNSt5dequeIP11thread_taskSaIS1_EE5beginEv
_ZNSt5dequeIP11thread_taskSaIS1_EE5frontEv
_ZNSt5dequeIP11thread_taskSaIS1_EE9pop_frontEv
_ZNSt5dequeIP11thread_taskSaIS1_EE9push_backERKS1_
_ZNSt5dequeIP11thread_taskSaIS1_EEC1Ev
_ZNSt5dequeIP11thread_taskSaIS1_EED1Ev
_ZNSt5dequeIP12en265_packetSaIS1_EE15_M_destroy_dataESt15_Deque_iteratorIS1_RS1_PS1_ES7_RKS2_
_ZNSt5dequeIP12en265_packetSaIS1_EE16_M_pop_front_auxEv
_ZNSt5dequeIP12en265_packetSaIS1_EE16_M_push_back_auxIJRKS1_EEEvDpOT_
_ZNSt5dequeIP12en265_packetSaIS1_EE17_M_reallocate_mapEyb
_ZNSt5dequeIP12en265_packetSaIS1_EE22_M_reserve_map_at_backEy
_ZNSt5dequeIP12en265_packetSaIS1_EE3endEv
_ZNSt5dequeIP12en265_packetSaIS1_EE5beginEv
_ZNSt5dequeIP12en265_packetSaIS1_EE5frontEv
_ZNSt5dequeIP12en265_packetSaIS1_EE9pop_frontEv
_ZNSt5dequeIP12en265_packetSaIS1_EE9push_backERKS1_
_ZNSt5dequeIP12en265_packetSaIS1_EEC1Ev
_ZNSt5dequeIP12en265_packetSaIS1_EED1Ev
_ZNSt5dequeIP8NAL_unitSaIS1_EE15_M_destroy_dataESt15_Deque_iteratorIS1_RS1_PS1_ES7_RKS2_
_ZNSt5dequeIP8NAL_unitSaIS1_EE16_M_pop_front_auxEv
_ZNSt5dequeIP8NAL_unitSaIS1_EE16_M_push_back_auxIJRKS1_EEEvDpOT_
_ZNSt5dequeIP8NAL_unitSaIS1_EE17_M_reallocate_mapEyb
_ZNSt5dequeIP8NAL_unitSaIS1_EE22_M_reserve_map_at_backEy
_ZNSt5dequeIP8NAL_unitSaIS1_EE3endEv
_ZNSt5dequeIP8NAL_unitSaIS1_EE5beginEv
_ZNSt5dequeIP8NAL_unitSaIS1_EE5frontEv
_ZNSt5dequeIP8NAL_unitSaIS1_EE9pop_frontEv
_ZNSt5dequeIP8NAL_unitSaIS1_EE9push_backERKS1_
_ZNSt5dequeIP8NAL_unitSaIS1_EEC1Ev
_ZNSt5dequeIP8NAL_unitSaIS1_EED1Ev
_ZNSt5queueIP8NAL_unitSt5dequeIS1_SaIS1_EEE3popEv
_ZNSt5queueIP8NAL_unitSt5dequeIS1_SaIS1_EEE4pushERKS1_
_ZNSt5queueIP8NAL_unitSt5dequeIS1_SaIS1_EEE5frontEv
_ZNSt5queueIP8NAL_unitSt5dequeIS1_SaIS1_EEEC1IS4_vEEv
_ZNSt5queueIP8NAL_unitSt5dequeIS1_SaIS1_EEED1Ev
_ZNSt6vectorI11ref_pic_setSaIS0_EE15_M_erase_at_endEPS0_
_ZNSt6vectorI11ref_pic_setSaIS0_EE17_M_default_appendEy
_ZNSt6vectorI11ref_pic_setSaIS0_EE17_M_realloc_insertIJRKS0_EEEvN9__gnu_cxx17__normal_iteratorIPS0_S2_EEDpOT_
_ZNSt6vectorI11ref_pic_setSaIS0_EE3endEv
_ZNSt6vectorI11ref_pic_setSaIS0_EE5beginEv
_ZNSt6vectorI11ref_pic_setSaIS0_EE5clearEv
_ZNSt6vectorI11ref_pic_setSaIS0_EE6resizeEy
_ZNSt6vectorI11ref_pic_setSaIS0_EE9push_backERKS0_
_ZNSt6vectorI11ref_pic_setSaIS0_EEC1Ev
_ZNSt6vectorI11ref_pic_setSaIS0_EED1Ev
_ZNSt6vectorI11ref_pic_setSaIS0_EEixEy
_ZNSt6vectorI11sei_messageSaIS0_EE17_M_realloc_insertIJRKS0_EEEvN9__gnu_cxx17__normal_iteratorIPS0_S2_EEDpOT_
_ZNSt6vectorI11sei_messageSaIS0_EE3endEv
_ZNSt6vectorI11sei_messageSaIS0_EE5beginEv
_ZNSt6vectorI11sei_messageSaIS0_EE9push_backERKS0_
_ZNSt6vectorI11sei_messageSaIS0_EEC1Ev
_ZNSt6vectorI11sei_messageSaIS0_EED1Ev
_ZNSt6vectorI11sei_messageSaIS0_EEixEy
_ZNSt6vectorI12CodingOptionI6enc_tbESaIS2_EE17_M_realloc_insertIJRKS2_EEEvN9__gnu_cxx17__normal_iteratorIPS2_S4_EEDpOT_
_ZNSt6vectorI12CodingOptionI6enc_tbESaIS2_EE3endEv
_ZNSt6vectorI12CodingOptionI6enc_tbESaIS2_EE5beginEv
_ZNSt6vectorI12CodingOptionI6enc_tbESaIS2_EE9push_backERKS2_
_ZNSt6vectorI12CodingOptionI6enc_tbESaIS2_EEC1Ev
_ZNSt6vectorI12CodingOptionI6enc_tbESaIS2_EED1Ev
_ZNSt6vectorI12CodingOptionI6enc_tbESaIS2_EEixEy
_ZNSt6vectorI19context_model_tableSaIS0_EE15_M_erase_at_endEPS0_
_ZNSt6vectorI19context_model_tableSaIS0_EE17_M_default_appendEy
_ZNSt6vectorI19context_model_tableSaIS0_EE6resizeEy
_ZNSt6vectorI19context_model_tableSaIS0_EEC1Ev
_ZNSt6vectorI19context_model_tableSaIS0_EED1Ev
_ZNSt6vectorI19context_model_tableSaIS0_EEixEy
_ZNSt6vectorIN13CodingOptionsI6enc_cbE16CodingOptionDataESaIS3_EE12emplace_backIJS3_EEEvDpOT_
_ZNSt6vectorIN13CodingOptionsI6enc_cbE16CodingOptionDataESaIS3_EE17_M_realloc_insertIJS3_EEEvN9__gnu_cxx17__normal_iteratorIPS3_S5_EEDpOT_
_ZNSt6vectorIN13CodingOptionsI6enc_cbE16CodingOptionDataESaIS3_EE3endEv
_ZNSt6vectorIN13CodingOptionsI6enc_cbE16CodingOptionDataESaIS3_EE5beginEv
_ZNSt6vectorIN13CodingOptionsI6enc_cbE16CodingOptionDataESaIS3_EE9push_backEOS3_
_ZNSt6vectorIN13CodingOptionsI6enc_cbE16CodingOptionDataESaIS3_EEC1Ev
_ZNSt6vectorIN13CodingOptionsI6enc_cbE16CodingOptionDataESaIS3_EED1Ev
_ZNSt6vectorIN13CodingOptionsI6enc_cbE16CodingOptionDataESaIS3_EEixEy
_ZNSt6vectorIN13CodingOptionsI6enc_tbE16CodingOptionDataESaIS3_EE12emplace_backIJS3_EEEvDpOT_
_ZNSt6vectorIN13CodingOptionsI6enc_tbE16CodingOptionDataESaIS3_EE17_M_realloc_insertIJS3_EEEvN9__gnu_cxx17__normal_iteratorIPS3_S5_EEDpOT_
_ZNSt6vectorIN13CodingOptionsI6enc_tbE16CodingOptionDataESaIS3_EE3endEv
_ZNSt6vectorIN13CodingOptionsI6enc_tbE16CodingOptionDataESaIS3_EE5beginEv
_ZNSt6vectorIN13CodingOptionsI6enc_tbE16CodingOptionDataESaIS3_EE9push_backEOS3_
_ZNSt6vectorIN13CodingOptionsI6enc_tbE16CodingOptionDataESaIS3_EEC1Ev
_ZNSt6vectorIN13CodingOptionsI6enc_tbE16CodingOptionDataESaIS3_EED1Ev
_ZNSt6vectorIN13CodingOptionsI6enc_tbE16CodingOptionDataESaIS3_EEixEy
_ZNSt6vectorINSt7__cxx1112basic_stringIcSt11char_traitsIcESaIcEEESaIS5_EE12emplace_backIJS5_EEEvDpOT_
_ZNSt6vectorINSt7__cxx1112basic_stringIcSt11char_traitsIcESaIcEEESaIS5_EE17_M_realloc_insertIJRKS5_EEEvN9__gnu_cxx17__normal_iteratorIPS5_S7_EEDpOT_
_ZNSt6vectorINSt7__cxx1112basic_stringIcSt11char_traitsIcESaIcEEESaIS5_EE17_M_realloc_insertIJS5_EEEvN9__gnu_cxx17__normal_iteratorIPS5_S7_EEDpOT_
_ZNSt6vectorINSt7__cxx1112basic_stringIcSt11char_traitsIcESaIcEEESaIS5_EE3endEv
_ZNSt6vectorINSt7__cxx1112basic_stringIcSt11char_traitsIcESaIcEEESaIS5_EE5beginEv
_ZNSt6vectorINSt7__cxx1112basic_stringIcSt11char_traitsIcESaIcEEESaIS5_EE9push_backEOS5_
_ZNSt6vectorINSt7__cxx1112basic_stringIcSt11char_traitsIcESaIcEEESaIS5_EE9push_backERKS5_
_ZNSt6vectorINSt7__cxx1112basic_stringIcSt11char_traitsIcESaIcEEESaIS5_EEC1Ev
_ZNSt6vectorINSt7__cxx1112basic_stringIcSt11char_traitsIcESaIcEEESaIS5_EED1Ev
_ZNSt6vectorIP10image_unitSaIS1_EE17_M_realloc_insertIJRKS1_EEEvN9__gnu_cxx17__normal_iteratorIPS1_S3_EEDpOT_
_ZNSt6vectorIP10image_unitSaIS1_EE3endEv
_ZNSt6vectorIP10image_unitSaIS1_EE4backEv
_ZNSt6vectorIP10image_unitSaIS1_EE5beginEv
_ZNSt6vectorIP10image_unitSaIS1_EE8pop_backEv
_ZNSt6vectorIP10image_unitSaIS1_EE9push_backERKS1_
_ZNSt6vectorIP10image_unitSaIS1_EEC1Ev
_ZNSt6vectorIP10image_unitSaIS1_EED1Ev
_ZNSt6vectorIP10image_unitSaIS1_EEixEy
_ZNSt6vectorIP10slice_unitSaIS1_EE17_M_realloc_insertIJRKS1_EEEvN9__gnu_cxx17__normal_iteratorIPS1_S3_EEDpOT_
_ZNSt6vectorIP10slice_unitSaIS1_EE3endEv
_ZNSt6vectorIP10slice_unitSaIS1_EE5beginEv
_ZNSt6vectorIP10slice_unitSaIS1_EE9push_backERKS1_
_ZNSt6vectorIP10slice_unitSaIS1_EEC1Ev
_ZNSt6vectorIP10slice_unitSaIS1_EED1Ev
_ZNSt6vectorIP10slice_unitSaIS1_EEixEy
_ZNSt6vectorIP11de265_imageSaIS1_EE12emplace_backIJS1_EEEvDpOT_
_ZNSt6vectorIP11de265_imageSaIS1_EE15_M_erase_at_endEPS1_
_ZNSt6vectorIP11de265_imageSaIS1_EE17_M_realloc_insertIJRKS1_EEEvN9__gnu_cxx17__normal_iteratorIPS1_S3_EEDpOT_
_ZNSt6vectorIP11de265_imageSaIS1_EE17_M_realloc_insertIJS1_EEEvN9__gnu_cxx17__normal_iteratorIPS1_S3_EEDpOT_
_ZNSt6vectorIP11de265_imageSaIS1_EE3endEv
_ZNSt6vectorIP11de265_imageSaIS1_EE4backEv
_ZNSt6vectorIP11de265_imageSaIS1_EE5beginEv
_ZNSt6vectorIP11de265_imageSaIS1_EE5clearEv
_ZNSt6vectorIP11de265_imageSaIS1_EE8pop_backEv
_ZNSt6vectorIP11de265_imageSaIS1_EE9push_backEOS1_
_ZNSt6vectorIP11de265_imageSaIS1_EE9push_backERKS1_
_ZNSt6vectorIP11de265_imageSaIS1_EEC1Ev
_ZNSt6vectorIP11de265_imageSaIS1_EED1Ev
_ZNSt6vectorIP11de265_imageSaIS1_EEixEy
_ZNSt6vectorIP11option_baseSaIS1_EE17_M_realloc_insertIJRKS1_EEEvN9__gnu_cxx17__normal_iteratorIPS1_S3_EEDpOT_
_ZNSt6vectorIP11option_baseSaIS1_EE3endEv
_ZNSt6vectorIP11option_baseSaIS1_EE5beginEv
_ZNSt6vectorIP11option_baseSaIS1_EE9push_backERKS1_
_ZNSt6vectorIP11option_baseSaIS1_EEC1Ev
_ZNSt6vectorIP11option_baseSaIS1_EED1Ev
_ZNSt6vectorIP11option_baseSaIS1_EEixEy
_ZNSt6vectorIP11thread_taskSaIS1_EE12emplace_backIJS1_EEEvDpOT_
_ZNSt6vectorIP11thread_taskSaIS1_EE15_M_erase_at_endEPS1_
_ZNSt6vectorIP11thread_taskSaIS1_EE17_M_realloc_insertIJS1_EEEvN9__gnu_cxx17__normal_iteratorIPS1_S3_EEDpOT_
_ZNSt6vectorIP11thread_taskSaIS1_EE3endEv
_ZNSt6vectorIP11thread_taskSaIS1_EE5beginEv
_ZNSt6vectorIP11thread_taskSaIS1_EE5clearEv
_ZNSt6vectorIP11thread_taskSaIS1_EE9push_backEOS1_
_ZNSt6vectorIP11thread_taskSaIS1_EEC1Ev
_ZNSt6vectorIP11thread_taskSaIS1_EED1Ev
_ZNSt6vectorIP11thread_taskSaIS1_EEixEy
_ZNSt6vectorIP20slice_segment_headerSaIS1_EE15_M_erase_at_endEPS1_
_ZNSt6vectorIP20slice_segment_headerSaIS1_EE17_M_realloc_insertIJRKS1_EEEvN9__gnu_cxx17__normal_iteratorIPS1_S3_EEDpOT_
_ZNSt6vectorIP20slice_segment_headerSaIS1_EE3endEv
_ZNSt6vectorIP20slice_segment_headerSaIS1_EE5beginEv
_ZNSt6vectorIP20slice_segment_headerSaIS1_EE5clearEv
_ZNSt6vectorIP20slice_segment_headerSaIS1_EE9push_backERKS1_
_ZNSt6vectorIP20slice_segment_headerSaIS1_EEC1Ev
_ZNSt6vectorIP20slice_segment_headerSaIS1_EED1Ev
_ZNSt6vectorIP20slice_segment_headerSaIS1_EEixEy
_ZNSt6vectorIP6enc_cbSaIS1_EE14_M_fill_insertEN9__gnu_cxx17__normal_iteratorIPS1_S3_EEyRKS1_
_ZNSt6vectorIP6enc_cbSaIS1_EE15_M_erase_at_endEPS1_
_ZNSt6vectorIP6enc_cbSaIS1_EE16_Temporary_value6_M_ptrEv
_ZNSt6vectorIP6enc_cbSaIS1_EE16_Temporary_value6_M_valEv
_ZNSt6vectorIP6enc_cbSaIS1_EE16_Temporary_valueC1IJRKS1_EEEPS3_DpOT_
_ZNSt6vectorIP6enc_cbSaIS1_EE16_Temporary_valueD1Ev
_ZNSt6vectorIP6enc_cbSaIS1_EE3endEv
_ZNSt6vectorIP6enc_cbSaIS1_EE5beginEv
_ZNSt6vectorIP6enc_cbSaIS1_EE6resizeEyRKS1_
_ZNSt6vectorIP6enc_cbSaIS1_EEC1Ev
_ZNSt6vectorIP6enc_cbSaIS1_EED1Ev
_ZNSt6vectorIP6enc_cbSaIS1_EEixEy
_ZNSt6vectorIP8NAL_unitSaIS1_EE17_M_realloc_insertIJRKS1_EEEvN9__gnu_cxx17__normal_iteratorIPS1_S3_EEDpOT_
_ZNSt6vectorIP8NAL_unitSaIS1_EE3endEv
_ZNSt6vectorIP8NAL_unitSaIS1_EE4backEv
_ZNSt6vectorIP8NAL_unitSaIS1_EE5beginEv
_ZNSt6vectorIP8NAL_unitSaIS1_EE8pop_backEv
_ZNSt6vectorIP8NAL_unitSaIS1_EE9push_backERKS1_
_ZNSt6vectorIP8NAL_unitSaIS1_EEC1Ev
_ZNSt6vectorIP8NAL_unitSaIS1_EED1Ev
_ZNSt6vectorIP8NAL_unitSaIS1_EEixEy
_ZNSt6vectorIPhSaIS0_EE17_M_realloc_insertIJRKS0_EEEvN9__gnu_cxx17__normal_iteratorIPS0_S2_EEDpOT_
_ZNSt6vectorIPhSaIS0_EE20_M_allocate_and_copyISt13move_iteratorIPS0_EEES5_yT_S7_
_ZNSt6vectorIPhSaIS0_EE3endEv
_ZNSt6vectorIPhSaIS0_EE5beginEv
_ZNSt6vectorIPhSaIS0_EE7reserveEy
_ZNSt6vectorIPhSaIS0_EE9push_backERKS0_
_ZNSt6vectorIPhSaIS0_EEC1Ev
_ZNSt6vectorIPhSaIS0_EED1Ev
_ZNSt6vectorIPvSaIS0_EE12emplace_backIJS0_EEEvDpOT_
_ZNSt6vectorIPvSaIS0_EE17_M_realloc_insertIJRKS0_EEEvN9__gnu_cxx17__normal_iteratorIPS0_S2_EEDpOT_
_ZNSt6vectorIPvSaIS0_EE17_M_realloc_insertIJS0_EEEvN9__gnu_cxx17__normal_iteratorIPS0_S2_EEDpOT_
_ZNSt6vectorIPvSaIS0_EE20_M_allocate_and_copyISt13move_iteratorIPS0_EEES5_yT_S7_
_ZNSt6vectorIPvSaIS0_EE3endEv
_ZNSt6vectorIPvSaIS0_EE4backEv
_ZNSt6vectorIPvSaIS0_EE5beginEv
_ZNSt6vectorIPvSaIS0_EE7reserveEy
_ZNSt6vectorIPvSaIS0_EE8pop_backEv
_ZNSt6vectorIPvSaIS0_EE9push_backEOS0_
_ZNSt6vectorIPvSaIS0_EE9push_backERKS0_
_ZNSt6vectorIPvSaIS0_EEC1Ev
_ZNSt6vectorIPvSaIS0_EED1Ev
_ZNSt6vectorIS_IcSaIcEESaIS1_EE15_M_erase_at_endEPS1_
_ZNSt6vectorIS_IcSaIcEESaIS1_EE17_M_default_appendEy
_ZNSt6vectorIS_IcSaIcEESaIS1_EE6resizeEy
_ZNSt6vectorIS_IcSaIcEESaIS1_EEC1Ev
_ZNSt6vectorIS_IcSaIcEESaIS1_EED1Ev
_ZNSt6vectorIS_IcSaIcEESaIS1_EEixEy
_ZNSt6vectorISt4pairI13IntraPredModefESaIS2_EE12emplace_backIJS2_EEEvDpOT_
_ZNSt6vectorISt4pairI13IntraPredModefESaIS2_EE15_M_erase_at_endEPS2_
_ZNSt6vectorISt4pairI13IntraPredModefESaIS2_EE17_M_default_appendEy
_ZNSt6vectorISt4pairI13IntraPredModefESaIS2_EE17_M_realloc_insertIJS2_EEEvN9__gnu_cxx17__normal_iteratorIPS2_S4_EEDpOT_
_ZNSt6vectorISt4pairI13IntraPredModefESaIS2_EE3endEv
_ZNSt6vectorISt4pairI13IntraPredModefESaIS2_EE5beginEv
_ZNSt6vectorISt4pairI13IntraPredModefESaIS2_EE6resizeEy
_ZNSt6vectorISt4pairI13IntraPredModefESaIS2_EE9push_backEOS2_
_ZNSt6vectorISt4pairI13IntraPredModefESaIS2_EEC1Ev
_ZNSt6vectorISt4pairI13IntraPredModefESaIS2_EED1Ev
_ZNSt6vectorISt4pairI13IntraPredModefESaIS2_EEixEy
_ZNSt6vectorISt4pairINSt7__cxx1112basic_stringIcSt11char_traitsIcESaIcEEE10MVTestModeESaIS8_EE12emplace_backIJS8_EEEvDpOT_
_ZNSt6vectorISt4pairINSt7__cxx1112basic_stringIcSt11char_traitsIcESaIcEEE10MVTestModeESaIS8_EE17_M_realloc_insertIJS8_EEEvN9__gnu_cxx17__normal_iteratorIPS8_SA_EEDpOT_
_ZNSt6vectorISt4pairINSt7__cxx1112basic_stringIcSt11char_traitsIcESaIcEEE10MVTestModeESaIS8_EE3endEv
_ZNSt6vectorISt4pairINSt7__cxx1112basic_stringIcSt11char_traitsIcESaIcEEE10MVTestModeESaIS8_EE5beginEv
_ZNSt6vectorISt4pairINSt7__cxx1112basic_stringIcSt11char_traitsIcESaIcEEE10MVTestModeESaIS8_EE9push_backEOS8_
_ZNSt6vectorISt4pairINSt7__cxx1112basic_stringIcSt11char_traitsIcESaIcEEE10MVTestModeESaIS8_EEC1Ev
_ZNSt6vectorISt4pairINSt7__cxx1112basic_stringIcSt11char_traitsIcESaIcEEE10MVTestModeESaIS8_EED1Ev
_ZNSt6vectorISt4pairINSt7__cxx1112basic_stringIcSt11char_traitsIcESaIcEEE12MVSearchAlgoESaIS8_EE12emplace_backIJS8_EEEvDpOT_
_ZNSt6vectorISt4pairINSt7__cxx1112basic_stringIcSt11char_traitsIcESaIcEEE12MVSearchAlgoESaIS8_EE17_M_realloc_insertIJS8_EEEvN9__gnu_cxx17__normal_iteratorIPS8_SA_EEDpOT_
_ZNSt6vectorISt4pairINSt7__cxx1112basic_stringIcSt11char_traitsIcESaIcEEE12MVSearchAlgoESaIS8_EE3endEv
_ZNSt6vectorISt4pairINSt7__cxx1112basic_stringIcSt11char_traitsIcESaIcEEE12MVSearchAlgoESaIS8_EE5beginEv
_ZNSt6vectorISt4pairINSt7__cxx1112basic_stringIcSt11char_traitsIcESaIcEEE12MVSearchAlgoESaIS8_EE9push_backEOS8_
_ZNSt6vectorISt4pairINSt7__cxx1112basic_stringIcSt11char_traitsIcESaIcEEE12MVSearchAlgoESaIS8_EEC1Ev
_ZNSt6vectorISt4pairINSt7__cxx1112basic_stringIcSt11char_traitsIcESaIcEEE12MVSearchAlgoESaIS8_EED1Ev
_ZNSt6vectorISt4pairINSt7__cxx1112basic_stringIcSt11char_traitsIcESaIcEEE13SOP_StructureESaIS8_EE12emplace_backIJS8_EEEvDpOT_
_ZNSt6vectorISt4pairINSt7__cxx1112basic_stringIcSt11char_traitsIcESaIcEEE13SOP_StructureESaIS8_EE17_M_realloc_insertIJS8_EEEvN9__gnu_cxx17__normal_iteratorIPS8_SA_EEDpOT_
_ZNSt6vectorISt4pairINSt7__cxx1112basic_stringIcSt11char_traitsIcESaIcEEE13SOP_StructureESaIS8_EE3endEv
_ZNSt6vectorISt4pairINSt7__cxx1112basic_stringIcSt11char_traitsIcESaIcEEE13SOP_StructureESaIS8_EE5beginEv
_ZNSt6vectorISt4pairINSt7__cxx1112basic_stringIcSt11char_traitsIcESaIcEEE13SOP_StructureESaIS8_EE9push_backEOS8_
_ZNSt6vectorISt4pairINSt7__cxx1112basic_stringIcSt11char_traitsIcESaIcEEE13SOP_StructureESaIS8_EEC1Ev
_ZNSt6vectorISt4pairINSt7__cxx1112basic_stringIcSt11char_traitsIcESaIcEEE13SOP_StructureESaIS8_EED1Ev
_ZNSt6vectorISt4pairINSt7__cxx1112basic_stringIcSt11char_traitsIcESaIcEEE20TBBitrateEstimMethodESaIS8_EE12emplace_backIJS8_EEEvDpOT_
_ZNSt6vectorISt4pairINSt7__cxx1112basic_stringIcSt11char_traitsIcESaIcEEE20TBBitrateEstimMethodESaIS8_EE17_M_realloc_insertIJS8_EEEvN9__gnu_cxx17__normal_iteratorIPS8_SA_EEDpOT_
_ZNSt6vectorISt4pairINSt7__cxx1112basic_stringIcSt11char_traitsIcESaIcEEE20TBBitrateEstimMethodESaIS8_EE3endEv
_ZNSt6vectorISt4pairINSt7__cxx1112basic_stringIcSt11char_traitsIcESaIcEEE20TBBitrateEstimMethodESaIS8_EE5beginEv
_ZNSt6vectorISt4pairINSt7__cxx1112basic_stringIcSt11char_traitsIcESaIcEEE20TBBitrateEstimMethodESaIS8_EE9push_backEOS8_
_ZNSt6vectorISt4pairINSt7__cxx1112basic_stringIcSt11char_traitsIcESaIcEEE20TBBitrateEstimMethodESaIS8_EEC1Ev
_ZNSt6vectorISt4pairINSt7__cxx1112basic_stringIcSt11char_traitsIcESaIcEEE20TBBitrateEstimMethodESaIS8_EED1Ev
_ZNSt6vectorISt4pairINSt7__cxx1112basic_stringIcSt11char_traitsIcESaIcEEE21ALGO_CB_IntraPartModeESaIS8_EE12emplace_backIJS8_EEEvDpOT_
_ZNSt6vectorISt4pairINSt7__cxx1112basic_stringIcSt11char_traitsIcESaIcEEE21ALGO_CB_IntraPartModeESaIS8_EE17_M_realloc_insertIJS8_EEEvN9__gnu_cxx17__normal_iteratorIPS8_SA_EEDpOT_
_ZNSt6vectorISt4pairINSt7__cxx1112basic_stringIcSt11char_traitsIcESaIcEEE21ALGO_CB_IntraPartModeESaIS8_EE3endEv
_ZNSt6vectorISt4pairINSt7__cxx1112basic_stringIcSt11char_traitsIcESaIcEEE21ALGO_CB_IntraPartModeESaIS8_EE5beginEv
_ZNSt6vectorISt4pairINSt7__cxx1112basic_stringIcSt11char_traitsIcESaIcEEE21ALGO_CB_IntraPartModeESaIS8_EE9push_backEOS8_
_ZNSt6vectorISt4pairINSt7__cxx1112basic_stringIcSt11char_traitsIcESaIcEEE21ALGO_CB_IntraPartModeESaIS8_EEC1Ev
_ZNSt6vectorISt4pairINSt7__cxx1112basic_stringIcSt11char_traitsIcESaIcEEE21ALGO_CB_IntraPartModeESaIS8_EED1Ev
_ZNSt6vectorISt4pairINSt7__cxx1112basic_stringIcSt11char_traitsIcESaIcEEE21ALGO_TB_IntraPredModeESaIS8_EE12emplace_backIJS8_EEEvDpOT_
_ZNSt6vectorISt4pairINSt7__cxx1112basic_stringIcSt11char_traitsIcESaIcEEE21ALGO_TB_IntraPredModeESaIS8_EE17_M_realloc_insertIJS8_EEEvN9__gnu_cxx17__normal_iteratorIPS8_SA_EEDpOT_
_ZNSt6vectorISt4pairINSt7__cxx1112basic_stringIcSt11char_traitsIcESaIcEEE21ALGO_TB_IntraPredModeESaIS8_EE3endEv
_ZNSt6vectorISt4pairINSt7__cxx1112basic_stringIcSt11char_traitsIcESaIcEEE21ALGO_TB_IntraPredModeESaIS8_EE5beginEv
_ZNSt6vectorISt4pairINSt7__cxx1112basic_stringIcSt11char_traitsIcESaIcEEE21ALGO_TB_IntraPredModeESaIS8_EE9push_backEOS8_
_ZNSt6vectorISt4pairINSt7__cxx1112basic_stringIcSt11char_traitsIcESaIcEEE21ALGO_TB_IntraPredModeESaIS8_EEC1Ev
_ZNSt6vectorISt4pairINSt7__cxx1112basic_stringIcSt11char_traitsIcESaIcEEE21ALGO_TB_IntraPredModeESaIS8_EED1Ev
_ZNSt6vectorISt4pairINSt7__cxx1112basic_stringIcSt11char_traitsIcESaIcEEE22ALGO_TB_RateEstimationESaIS8_EE12emplace_backIJS8_EEEvDpOT_
_ZNSt6vectorISt4pairINSt7__cxx1112basic_stringIcSt11char_traitsIcESaIcEEE22ALGO_TB_RateEstimationESaIS8_EE17_M_realloc_insertIJS8_EEEvN9__gnu_cxx17__normal_iteratorIPS8_SA_EEDpOT_
_ZNSt6vectorISt4pairINSt7__cxx1112basic_stringIcSt11char_traitsIcESaIcEEE22ALGO_TB_RateEstimationESaIS8_EE3endEv
_ZNSt6vectorISt4pairINSt7__cxx1112basic_stringIcSt11char_traitsIcESaIcEEE22ALGO_TB_RateEstimationESaIS8_EE5beginEv
_ZNSt6vectorISt4pairINSt7__cxx1112basic_stringIcSt11char_traitsIcESaIcEEE22ALGO_TB_RateEstimationESaIS8_EE9push_backEOS8_
_ZNSt6vectorISt4pairINSt7__cxx1112basic_stringIcSt11char_traitsIcESaIcEEE22ALGO_TB_RateEstimationESaIS8_EEC1Ev
_ZNSt6vectorISt4pairINSt7__cxx1112basic_stringIcSt11char_traitsIcESaIcEEE22ALGO_TB_RateEstimationESaIS8_EED1Ev
_ZNSt6vectorISt4pairINSt7__cxx1112basic_stringIcSt11char_traitsIcESaIcEEE28ALGO_TB_IntraPredMode_SubsetESaIS8_EE12emplace_backIJS8_EEEvDpOT_
_ZNSt6vectorISt4pairINSt7__cxx1112basic_stringIcSt11char_traitsIcESaIcEEE28ALGO_TB_IntraPredMode_SubsetESaIS8_EE17_M_realloc_insertIJS8_EEEvN9__gnu_cxx17__normal_iteratorIPS8_SA_EEDpOT_
_ZNSt6vectorISt4pairINSt7__cxx1112basic_stringIcSt11char_traitsIcESaIcEEE28ALGO_TB_IntraPredMode_SubsetESaIS8_EE3endEv
_ZNSt6vectorISt4pairINSt7__cxx1112basic_stringIcSt11char_traitsIcESaIcEEE28ALGO_TB_IntraPredMode_SubsetESaIS8_EE5beginEv
_ZNSt6vectorISt4pairINSt7__cxx1112basic_stringIcSt11char_traitsIcESaIcEEE28ALGO_TB_IntraPredMode_SubsetESaIS8_EE9push_backEOS8_
_ZNSt6vectorISt4pairINSt7__cxx1112basic_stringIcSt11char_traitsIcESaIcEEE28ALGO_TB_IntraPredMode_SubsetESaIS8_EEC1Ev
_ZNSt6vectorISt4pairINSt7__cxx1112basic_stringIcSt11char_traitsIcESaIcEEE28ALGO_TB_IntraPredMode_SubsetESaIS8_EED1Ev
_ZNSt6vectorISt4pairINSt7__cxx1112basic_stringIcSt11char_traitsIcESaIcEEE39ALGO_TB_Split_BruteForce_ZeroBlockPruneESaIS8_EE12emplace_backIJS8_EEEvDpOT_
_ZNSt6vectorISt4pairINSt7__cxx1112basic_stringIcSt11char_traitsIcESaIcEEE39ALGO_TB_Split_BruteForce_ZeroBlockPruneESaIS8_EE17_M_realloc_insertIJS8_EEEvN9__gnu_cxx17__normal_iteratorIPS8_SA_EEDpOT_
_ZNSt6vectorISt4pairINSt7__cxx1112basic_stringIcSt11char_traitsIcESaIcEEE39ALGO_TB_Split_BruteForce_ZeroBlockPruneESaIS8_EE3endEv
_ZNSt6vectorISt4pairINSt7__cxx1112basic_stringIcSt11char_traitsIcESaIcEEE39ALGO_TB_Split_BruteForce_ZeroBlockPruneESaIS8_EE5beginEv
_ZNSt6vectorISt4pairINSt7__cxx1112basic_stringIcSt11char_traitsIcESaIcEEE39ALGO_TB_Split_BruteForce_ZeroBlockPruneESaIS8_EE9push_backEOS8_
_ZNSt6vectorISt4pairINSt7__cxx1112basic_stringIcSt11char_traitsIcESaIcEEE39ALGO_TB_Split_BruteForce_ZeroBlockPruneESaIS8_EEC1Ev
_ZNSt6vectorISt4pairINSt7__cxx1112basic_stringIcSt11char_traitsIcESaIcEEE39ALGO_TB_Split_BruteForce_ZeroBlockPruneESaIS8_EED1Ev
_ZNSt6vectorISt4pairINSt7__cxx1112basic_stringIcSt11char_traitsIcESaIcEEE6MEModeESaIS8_EE12emplace_backIJS8_EEEvDpOT_
_ZNSt6vectorISt4pairINSt7__cxx1112basic_stringIcSt11char_traitsIcESaIcEEE6MEModeESaIS8_EE17_M_realloc_insertIJS8_EEEvN9__gnu_cxx17__normal_iteratorIPS8_SA_EEDpOT_
_ZNSt6vectorISt4pairINSt7__cxx1112basic_stringIcSt11char_traitsIcESaIcEEE6MEModeESaIS8_EE3endEv
_ZNSt6vectorISt4pairINSt7__cxx1112basic_stringIcSt11char_traitsIcESaIcEEE6MEModeESaIS8_EE5beginEv
_ZNSt6vectorISt4pairINSt7__cxx1112basic_stringIcSt11char_traitsIcESaIcEEE6MEModeESaIS8_EE9push_backEOS8_
_ZNSt6vectorISt4pairINSt7__cxx1112basic_stringIcSt11char_traitsIcESaIcEEE6MEModeESaIS8_EEC1Ev
_ZNSt6vectorISt4pairINSt7__cxx1112basic_stringIcSt11char_traitsIcESaIcEEE6MEModeESaIS8_EED1Ev
_ZNSt6vectorISt4pairINSt7__cxx1112basic_stringIcSt11char_traitsIcESaIcEEE8PartModeESaIS8_EE12emplace_backIJS8_EEEvDpOT_
_ZNSt6vectorISt4pairINSt7__cxx1112basic_stringIcSt11char_traitsIcESaIcEEE8PartModeESaIS8_EE17_M_realloc_insertIJS8_EEEvN9__gnu_cxx17__normal_iteratorIPS8_SA_EEDpOT_
_ZNSt6vectorISt4pairINSt7__cxx1112basic_stringIcSt11char_traitsIcESaIcEEE8PartModeESaIS8_EE3endEv
_ZNSt6vectorISt4pairINSt7__cxx1112basic_stringIcSt11char_traitsIcESaIcEEE8PartModeESaIS8_EE5beginEv
_ZNSt6vectorISt4pairINSt7__cxx1112basic_stringIcSt11char_traitsIcESaIcEEE8PartModeESaIS8_EE9push_backEOS8_
_ZNSt6vectorISt4pairINSt7__cxx1112basic_stringIcSt11char_traitsIcESaIcEEE8PartModeESaIS8_EEC1Ev
_ZNSt6vectorISt4pairINSt7__cxx1112basic_stringIcSt11char_traitsIcESaIcEEE8PartModeESaIS8_EED1Ev
_ZNSt6vectorIcSaIcEE14_M_fill_insertEN9__gnu_cxx17__normal_iteratorIPcS1_EEyRKc
_ZNSt6vectorIcSaIcEE15_M_erase_at_endEPc
_ZNSt6vectorIcSaIcEE16_Temporary_value6_M_ptrEv
_ZNSt6vectorIcSaIcEE16_Temporary_value6_M_valEv
_ZNSt6vectorIcSaIcEE16_Temporary_valueC1IJRKcEEEPS1_DpOT_
_ZNSt6vectorIcSaIcEE16_Temporary_valueD1Ev
_ZNSt6vectorIcSaIcEE17_M_default_appendEy
_ZNSt6vectorIcSaIcEE18_M_fill_initializeEyRKc
_ZNSt6vectorIcSaIcEE3endEv
_ZNSt6vectorIcSaIcEE5beginEv
_ZNSt6vectorIcSaIcEE6resizeEy
_ZNSt6vectorIcSaIcEE6resizeEyRKc
_ZNSt6vectorIcSaIcEEC1EOS1_
_ZNSt6vectorIcSaIcEEC1Ev
_ZNSt6vectorIcSaIcEEC1EyRKcRKS0_
_ZNSt6vectorIcSaIcEED1Ev
_ZNSt6vectorIcSaIcEEixEy
_ZNSt6vectorIhSaIhEE21_M_default_initializeEy
_ZNSt6vectorIhSaIhEEC1EyRKS0_
_ZNSt6vectorIhSaIhEED1Ev
_ZNSt6vectorIhSaIhEEixEy
_ZNSt6vectorIiSaIiEE12emplace_backIJiEEEvDpOT_
_ZNSt6vectorIiSaIiEE15_M_erase_at_endEPi
_ZNSt6vectorIiSaIiEE17_M_default_appendEy
_ZNSt6vectorIiSaIiEE17_M_realloc_insertIJRKiEEEvN9__gnu_cxx17__normal_iteratorIPiS1_EEDpOT_
_ZNSt6vectorIiSaIiEE17_M_realloc_insertIJiEEEvN9__gnu_cxx17__normal_iteratorIPiS1_EEDpOT_
_ZNSt6vectorIiSaIiEE20_M_allocate_and_copyIN9__gnu_cxx17__normal_iteratorIPKiS1_EEEEPiyT_S9_
_ZNSt6vectorIiSaIiEE21_M_default_initializeEy
_ZNSt6vectorIiSaIiEE3endEv
_ZNSt6vectorIiSaIiEE5beginEv
_ZNSt6vectorIiSaIiEE5clearEv
_ZNSt6vectorIiSaIiEE6resizeEy
_ZNSt6vectorIiSaIiEE9push_backEOi
_ZNSt6vectorIiSaIiEE9push_backERKi
_ZNSt6vectorIiSaIiEEC1Ev
_ZNSt6vectorIiSaIiEEC1EyRKS0_
_ZNSt6vectorIiSaIiEED1Ev
_ZNSt6vectorIiSaIiEEaSERKS1_
_ZNSt6vectorIiSaIiEEixEy
_ZNSt6vectorItSaItEE15_M_erase_at_endEPt
_ZNSt6vectorItSaItEE17_M_default_appendEy
_ZNSt6vectorItSaItEE6resizeEy
_ZNSt6vectorItSaItEEC1Ev
_ZNSt6vectorItSaItEED1Ev
_ZNSt6vectorItSaItEEixEy
_ZNSt8ios_base4setfESt13_Ios_FmtflagsS0_
_ZSt10_ConstructI12CodingOptionI6enc_tbEJS2_EEvPT_DpOT0_
_ZSt10_ConstructI19context_model_tableJEEvPT_DpOT0_
_ZSt10_ConstructI19context_model_tableJRKS0_EEvPT_DpOT0_
_ZSt10_ConstructIN13CodingOptionsI6enc_cbE16CodingOptionDataEJRKS3_EEvPT_DpOT0_
_ZSt10_ConstructIN13CodingOptionsI6enc_tbE16CodingOptionDataEJRKS3_EEvPT_DpOT0_
_ZSt10_ConstructINSt7__cxx1112basic_stringIcSt11char_traitsIcESaIcEEEJS5_EEvPT_DpOT0_
_ZSt10_ConstructISt4pairI13IntraPredModefEJEEvPT_DpOT0_
_ZSt10_ConstructISt4pairI13IntraPredModefEJS2_EEvPT_DpOT0_
_ZSt10_ConstructISt4pairINSt7__cxx1112basic_stringIcSt11char_traitsIcESaIcEEE10MVTestModeEJS8_EEvPT_DpOT0_
_ZSt10_ConstructISt4pairINSt7__cxx1112basic_stringIcSt11char_traitsIcESaIcEEE12MVSearchAlgoEJS8_EEvPT_DpOT0_
_ZSt10_ConstructISt4pairINSt7__cxx1112basic_stringIcSt11char_traitsIcESaIcEEE13SOP_StructureEJS8_EEvPT_DpOT0_
_ZSt10_ConstructISt4pairINSt7__cxx1112basic_stringIcSt11char_traitsIcESaIcEEE20TBBitrateEstimMethodEJS8_EEvPT_DpOT0_
_ZSt10_ConstructISt4pairINSt7__cxx1112basic_stringIcSt11char_traitsIcESaIcEEE21ALGO_CB_IntraPartModeEJS8_EEvPT_DpOT0_
_ZSt10_ConstructISt4pairINSt7__cxx1112basic_stringIcSt11char_traitsIcESaIcEEE21ALGO_TB_IntraPredModeEJS8_EEvPT_DpOT0_
_ZSt10_ConstructISt4pairINSt7__cxx1112basic_stringIcSt11char_traitsIcESaIcEEE22ALGO_TB_RateEstimationEJS8_EEvPT_DpOT0_
_ZSt10_ConstructISt4pairINSt7__cxx1112basic_stringIcSt11char_traitsIcESaIcEEE28ALGO_TB_IntraPredMode_SubsetEJS8_EEvPT_DpOT0_
_ZSt10_ConstructISt4pairINSt7__cxx1112basic_stringIcSt11char_traitsIcESaIcEEE39ALGO_TB_Split_BruteForce_ZeroBlockPruneEJS8_EEvPT_DpOT0_
_ZSt10_ConstructISt4pairINSt7__cxx1112basic_stringIcSt11char_traitsIcESaIcEEE6MEModeEJS8_EEvPT_DpOT0_
_ZSt10_ConstructISt4pairINSt7__cxx1112basic_stringIcSt11char_traitsIcESaIcEEE8PartModeEJS8_EEvPT_DpOT0_
_ZSt10_ConstructISt6vectorIcSaIcEEJEEvPT_DpOT0_
_ZSt10_ConstructISt6vectorIcSaIcEEJS2_EEvPT_DpOT0_
_ZSt10__distanceISt15_Deque_iteratorIP10image_dataRKS2_PS3_EENSt15iterator_traitsIT_E15difference_typeES8_S8_St26random_access_iterator_tag
_ZSt10__fill_n_aIP11ref_pic_setyS0_EN9__gnu_cxx11__enable_ifIXntsrSt11__is_scalarIT1_E7__valueET_E6__typeES7_T0_RKS5_
_ZSt10__fill_n_aIPP6enc_cbyS1_EN9__gnu_cxx11__enable_ifIXsrSt11__is_scalarIT1_E7__valueET_E6__typeES8_T0_RKS6_
_ZSt10__fill_n_aIPiyiEN9__gnu_cxx11__enable_ifIXsrSt11__is_scalarIT1_E7__valueET_E6__typeES6_T0_RKS4_
_ZSt10__fill_n_aIPtytEN9__gnu_cxx11__enable_ifIXsrSt11__is_scalarIT1_E7__valueET_E6__typeES6_T0_RKS4_
_ZSt10__fill_n_aIycEN9__gnu_cxx11__enable_ifIXsrSt9__is_byteIT0_E7__valueEPS3_E6__typeES5_T_RKS3_
_ZSt10__fill_n_aIyhEN9__gnu_cxx11__enable_ifIXsrSt9__is_byteIT0_E7__valueEPS3_E6__typeES5_T_RKS3_
_ZSt10__pop_heapIN9__gnu_cxx17__normal_iteratorIPSt4pairI13IntraPredModefESt6vectorIS4_SaIS4_EEEENS0_5__ops15_Iter_comp_iterIPFbS4_S4_EEEEvT_SF_SF_RT0_
_ZSt11__addressofI12CodingOptionI6enc_tbEEPT_RS3_
_ZSt11__addressofI19context_model_tableEPT_RS1_
_ZSt11__addressofIN13CodingOptionsI6enc_cbE16CodingOptionDataEEPT_RS4_
_ZSt11__addressofIN13CodingOptionsI6enc_tbE16CodingOptionDataEEPT_RS4_
_ZSt11__addressofINSt7__cxx1112basic_stringIcSt11char_traitsIcESaIcEEEEPT_RS6_
_ZSt11__addressofIP6enc_cbEPT_RS2_
_ZSt11__addressofISaISt23_Sp_counted_ptr_inplaceI17pic_parameter_setSaIS1_ELN9__gnu_cxx12_Lock_policyE2EEEEPT_RS7_
_ZSt11__addressofISaISt23_Sp_counted_ptr_inplaceI17seq_parameter_setSaIS1_ELN9__gnu_cxx12_Lock_policyE2EEEEPT_RS7_
_ZSt11__addressofISaISt23_Sp_counted_ptr_inplaceI18small_image_bufferSaIS1_ELN9__gnu_cxx12_Lock_policyE2EEEEPT_RS7_
_ZSt11__addressofISaISt23_Sp_counted_ptr_inplaceI19video_parameter_setSaIS1_ELN9__gnu_cxx12_Lock_policyE2EEEEPT_RS7_
_ZSt11__addressofISt4pairI13IntraPredModefEEPT_RS3_
_ZSt11__addressofISt4pairINSt7__cxx1112basic_stringIcSt11char_traitsIcESaIcEEE10MVTestModeEEPT_RS9_
_ZSt11__addressofISt4pairINSt7__cxx1112basic_stringIcSt11char_traitsIcESaIcEEE12MVSearchAlgoEEPT_RS9_
_ZSt11__addressofISt4pairINSt7__cxx1112basic_stringIcSt11char_traitsIcESaIcEEE13SOP_StructureEEPT_RS9_
_ZSt11__addressofISt4pairINSt7__cxx1112basic_stringIcSt11char_traitsIcESaIcEEE20TBBitrateEstimMethodEEPT_RS9_
_ZSt11__addressofISt4pairINSt7__cxx1112basic_stringIcSt11char_traitsIcESaIcEEE21ALGO_CB_IntraPartModeEEPT_RS9_
_ZSt11__addressofISt4pairINSt7__cxx1112basic_stringIcSt11char_traitsIcESaIcEEE21ALGO_TB_IntraPredModeEEPT_RS9_
_ZSt11__addressofISt4pairINSt7__cxx1112basic_stringIcSt11char_traitsIcESaIcEEE22ALGO_TB_RateEstimationEEPT_RS9_
_ZSt11__addressofISt4pairINSt7__cxx1112basic_stringIcSt11char_traitsIcESaIcEEE28ALGO_TB_IntraPredMode_SubsetEEPT_RS9_
_ZSt11__addressofISt4pairINSt7__cxx1112basic_stringIcSt11char_traitsIcESaIcEEE39ALGO_TB_Split_BruteForce_ZeroBlockPruneEEPT_RS9_
_ZSt11__addressofISt4pairINSt7__cxx1112basic_stringIcSt11char_traitsIcESaIcEEE6MEModeEEPT_RS9_
_ZSt11__addressofISt4pairINSt7__cxx1112basic_stringIcSt11char_traitsIcESaIcEEE8PartModeEEPT_RS9_
_ZSt11__addressofISt6vectorIcSaIcEEEPT_RS3_
_ZSt11__addressofIcEPT_RS0_
_ZSt11__make_heapIN9__gnu_cxx17__normal_iteratorIPSt4pairI13IntraPredModefESt6vectorIS4_SaIS4_EEEENS0_5__ops15_Iter_comp_iterIPFbS4_S4_EEEEvT_SF_RT0_
_ZSt11__push_heapIN9__gnu_cxx17__normal_iteratorIPSt4pairI13IntraPredModefESt6vectorIS4_SaIS4_EEEExS4_NS0_5__ops14_Iter_comp_valIPFbS4_S4_EEEEvT_T0_SG_T1_RT2_
_ZSt11__sort_heapIN9__gnu_cxx17__normal_iteratorIPSt4pairI13IntraPredModefESt6vectorIS4_SaIS4_EEEENS0_5__ops15_Iter_comp_iterIPFbS4_S4_EEEEvT_SF_RT0_
_ZSt11make_sharedI17pic_parameter_setJEESt10shared_ptrIT_EDpOT0_
_ZSt11make_sharedI17seq_parameter_setJEESt10shared_ptrIT_EDpOT0_
_ZSt11make_sharedI18small_image_bufferJRiyEESt10shared_ptrIT_EDpOT0_
_ZSt11make_sharedI19video_parameter_setJEESt10shared_ptrIT_EDpOT0_
_ZSt12__miter_baseIN9__gnu_cxx17__normal_iteratorIPKiSt6vectorIiSaIiEEEEET_S8_
_ZSt12__miter_baseIN9__gnu_cxx17__normal_iteratorIPSt4pairI13IntraPredModefESt6vectorIS4_SaIS4_EEEEET_SA_
_ZSt12__miter_baseIP11ref_pic_setEDTcl12__miter_basecldtfp_4baseEEESt13move_iteratorIT_E
_ZSt12__miter_baseIP11ref_pic_setET_S2_
_ZSt12__miter_baseIP11sei_messageEDTcl12__miter_basecldtfp_4baseEEESt13move_iteratorIT_E
_ZSt12__miter_baseIP11sei_messageET_S2_
_ZSt12__miter_baseIPP10image_dataET_S3_
_ZSt12__miter_baseIPP10image_unitEDTcl12__miter_basecldtfp_4baseEEESt13move_iteratorIT_E
_ZSt12__miter_baseIPP10image_unitET_S3_
_ZSt12__miter_baseIPP10slice_unitEDTcl12__miter_basecldtfp_4baseEEESt13move_iteratorIT_E
_ZSt12__miter_baseIPP10slice_unitET_S3_
_ZSt12__miter_baseIPP11de265_imageEDTcl12__miter_basecldtfp_4baseEEESt13move_iteratorIT_E
_ZSt12__miter_baseIPP11de265_imageET_S3_
_ZSt12__miter_baseIPP11option_baseEDTcl12__miter_basecldtfp_4baseEEESt13move_iteratorIT_E
_ZSt12__miter_baseIPP11option_baseET_S3_
_ZSt12__miter_baseIPP11thread_taskEDTcl12__miter_basecldtfp_4baseEEESt13move_iteratorIT_E
_ZSt12__miter_baseIPP11thread_taskET_S3_
_ZSt12__miter_baseIPP20slice_segment_headerEDTcl12__miter_basecldtfp_4baseEEESt13move_iteratorIT_E
_ZSt12__miter_baseIPP20slice_segment_headerET_S3_
_ZSt12__miter_baseIPP6enc_cbEDTcl12__miter_basecldtfp_4baseEEESt13move_iteratorIT_E
_ZSt12__miter_baseIPP6enc_cbET_S3_
_ZSt12__miter_baseIPP8NAL_unitEDTcl12__miter_basecldtfp_4baseEEESt13move_iteratorIT_E
_ZSt12__miter_baseIPP8NAL_unitET_S3_
_ZSt12__miter_baseIPPP10image_dataET_S4_
_ZSt12__miter_baseIPPP11de265_imageET_S4_
_ZSt12__miter_baseIPPP11thread_taskET_S4_
_ZSt12__miter_baseIPPP12en265_packetET_S4_
_ZSt12__miter_baseIPPP8NAL_unitET_S4_
_ZSt12__miter_baseIPPhEDTcl12__miter_basecldtfp_4baseEEESt13move_iteratorIT_E
_ZSt12__miter_baseIPPhET_S2_
_ZSt12__miter_baseIPPvEDTcl12__miter_basecldtfp_4baseEEESt13move_iteratorIT_E
_ZSt12__miter_baseIPPvET_S2_
_ZSt12__miter_baseIPcEDTcl12__miter_basecldtfp_4baseEEESt13move_iteratorIT_E
_ZSt12__miter_baseIPcET_S1_
_ZSt12__miter_baseIPiEDTcl12__miter_basecldtfp_4baseEEESt13move_iteratorIT_E
_ZSt12__miter_baseIPiET_S1_
_ZSt12__miter_baseIPtEDTcl12__miter_basecldtfp_4baseEEESt13move_iteratorIT_E
_ZSt12__miter_baseIPtET_S1_
_ZSt12__miter_baseISt15_Deque_iteratorIP10image_dataRKS2_PS3_EET_S7_
_ZSt12__miter_baseISt15_Deque_iteratorIP10image_dataRS2_PS2_EEDTcl12__miter_basecldtfp_4baseEEESt13move_iteratorIT_E
_ZSt12__miter_baseISt15_Deque_iteratorIP10image_dataRS2_PS2_EET_S6_
_ZSt12__niter_baseIP11ref_pic_setET_S2_
_ZSt12__niter_baseIP11sei_messageET_S2_
_ZSt12__niter_baseIPKiSt6vectorIiSaIiEEET_N9__gnu_cxx17__normal_iteratorIS5_T0_EE
_ZSt12__niter_baseIPP10image_dataET_S3_
_ZSt12__niter_baseIPP10image_unitET_S3_
_ZSt12__niter_baseIPP10slice_unitET_S3_
_ZSt12__niter_baseIPP11de265_imageET_S3_
_ZSt12__niter_baseIPP11option_baseET_S3_
_ZSt12__niter_baseIPP11thread_taskET_S3_
_ZSt12__niter_baseIPP20slice_segment_headerET_S3_
_ZSt12__niter_baseIPP6enc_cbET_S3_
_ZSt12__niter_baseIPP8NAL_unitET_S3_
_ZSt12__niter_baseIPPP10image_dataET_S4_
_ZSt12__niter_baseIPPP11de265_imageET_S4_
_ZSt12__niter_baseIPPP11thread_taskET_S4_
_ZSt12__niter_baseIPPP12en265_packetET_S4_
_ZSt12__niter_baseIPPP8NAL_unitET_S4_
_ZSt12__niter_baseIPPhET_S2_
_ZSt12__niter_baseIPPvET_S2_
_ZSt12__niter_baseIPSt4pairI13IntraPredModefESt6vectorIS2_SaIS2_EEET_N9__gnu_cxx17__normal_iteratorIS7_T0_EE
_ZSt12__niter_baseIPcET_S1_
_ZSt12__niter_baseIPhET_S1_
_ZSt12__niter_baseIPiET_S1_
_ZSt12__niter_baseIPiSt6vectorIiSaIiEEET_N9__gnu_cxx17__normal_iteratorIS4_T0_EE
_ZSt12__niter_baseIPtET_S1_
_ZSt12__niter_baseISt15_Deque_iteratorIP10image_dataRKS2_PS3_EET_S7_
_ZSt12__niter_baseISt15_Deque_iteratorIP10image_dataRS2_PS2_EET_S6_
_ZSt13__adjust_heapIN9__gnu_cxx17__normal_iteratorIPSt4pairI13IntraPredModefESt6vectorIS4_SaIS4_EEEExS4_NS0_5__ops15_Iter_comp_iterIPFbS4_S4_EEEEvT_T0_SG_T1_T2_
_ZSt13__copy_move_aILb0EPKiPiET1_T0_S4_S3_
_ZSt13__copy_move_aILb0EPP10image_dataS2_ET1_T0_S4_S3_
_ZSt13__copy_move_aILb0EPPP10image_dataS3_ET1_T0_S5_S4_
_ZSt13__copy_move_aILb0EPPP11de265_imageS3_ET1_T0_S5_S4_
_ZSt13__copy_move_aILb0EPPP11thread_taskS3_ET1_T0_S5_S4_
_ZSt13__copy_move_aILb0EPPP12en265_packetS3_ET1_T0_S5_S4_
_ZSt13__copy_move_aILb0EPPP8NAL_unitS3_ET1_T0_S5_S4_
_ZSt13__copy_move_aILb0EPiS0_ET1_T0_S2_S1_
_ZSt13__copy_move_aILb0ESt15_Deque_iteratorIP10image_dataRKS2_PS3_ES0_IS2_RS2_PS2_EET1_T0_SB_SA_
_ZSt13__copy_move_aILb1EP11ref_pic_setS1_ET1_T0_S3_S2_
_ZSt13__copy_move_aILb1EP11sei_messageS1_ET1_T0_S3_S2_
_ZSt13__copy_move_aILb1EPP10image_dataS2_ET1_T0_S4_S3_
_ZSt13__copy_move_aILb1EPP10image_unitS2_ET1_T0_S4_S3_
_ZSt13__copy_move_aILb1EPP10slice_unitS2_ET1_T0_S4_S3_
_ZSt13__copy_move_aILb1EPP11de265_imageS2_ET1_T0_S4_S3_
_ZSt13__copy_move_aILb1EPP11option_baseS2_ET1_T0_S4_S3_
_ZSt13__copy_move_aILb1EPP11thread_taskS2_ET1_T0_S4_S3_
_ZSt13__copy_move_aILb1EPP20slice_segment_headerS2_ET1_T0_S4_S3_
_ZSt13__copy_move_aILb1EPP6enc_cbS2_ET1_T0_S4_S3_
_ZSt13__copy_move_aILb1EPP8NAL_unitS2_ET1_T0_S4_S3_
_ZSt13__copy_move_aILb1EPPhS1_ET1_T0_S3_S2_
_ZSt13__copy_move_aILb1EPPvS1_ET1_T0_S3_S2_
_ZSt13__copy_move_aILb1EPcS0_ET1_T0_S2_S1_
_ZSt13__copy_move_aILb1EPiS0_ET1_T0_S2_S1_
_ZSt13__copy_move_aILb1EPtS0_ET1_T0_S2_S1_
_ZSt13__copy_move_aILb1ESt15_Deque_iteratorIP10image_dataRS2_PS2_ES5_ET1_T0_S7_S6_
_ZSt13__heap_selectIN9__gnu_cxx17__normal_iteratorIPSt4pairI13IntraPredModefESt6vectorIS4_SaIS4_EEEENS0_5__ops15_Iter_comp_iterIPFbS4_S4_EEEEvT_SF_SF_T0_
_ZSt13copy_backwardIPPP10image_dataS3_ET0_T_S5_S4_
_ZSt13copy_backwardIPPP11de265_imageS3_ET0_T_S5_S4_
_ZSt13copy_backwardIPPP11thread_taskS3_ET0_T_S5_S4_
_ZSt13copy_backwardIPPP12en265_packetS3_ET0_T_S5_S4_
_ZSt13copy_backwardIPPP8NAL_unitS3_ET0_T_S5_S4_
_ZSt13move_backwardIN9__gnu_cxx17__normal_iteratorIPSt4pairI13IntraPredModefESt6vectorIS4_SaIS4_EEEES9_ET0_T_SB_SA_
_ZSt13move_backwardIP10image_dataESt15_Deque_iteratorIT_RS3_PS3_ES2_IS3_RKS3_PS7_ESA_S6_
_ZSt13move_backwardIP10image_dataESt15_Deque_iteratorIT_RS3_PS3_ES6_S6_S6_
_ZSt13move_backwardIPP10image_dataS2_ET0_T_S4_S3_
_ZSt13move_backwardIPP6enc_cbS2_ET0_T_S4_S3_
_ZSt13move_backwardIPcS0_ET0_T_S2_S1_
_ZSt14__copy_move_a2ILb0EN9__gnu_cxx17__normal_iteratorIPKiSt6vectorIiSaIiEEEENS1_IPiS6_EEET1_T0_SB_SA_
_ZSt14__copy_move_a2ILb0EN9__gnu_cxx17__normal_iteratorIPKiSt6vectorIiSaIiEEEEPiET1_T0_SA_S9_
_ZSt14__copy_move_a2ILb0EPP10image_dataS2_ET1_T0_S4_S3_
_ZSt14__copy_move_a2ILb0EPPP10image_dataS3_ET1_T0_S5_S4_
_ZSt14__copy_move_a2ILb0EPPP11de265_imageS3_ET1_T0_S5_S4_
_ZSt14__copy_move_a2ILb0EPPP11thread_taskS3_ET1_T0_S5_S4_
_ZSt14__copy_move_a2ILb0EPPP12en265_packetS3_ET1_T0_S5_S4_
_ZSt14__copy_move_a2ILb0EPPP8NAL_unitS3_ET1_T0_S5_S4_
_ZSt14__copy_move_a2ILb0EPiS0_ET1_T0_S2_S1_
_ZSt14__copy_move_a2ILb0ESt15_Deque_iteratorIP10image_dataRKS2_PS3_ES0_IS2_RS2_PS2_EET1_T0_SB_SA_
_ZSt14__copy_move_a2ILb1EP11ref_pic_setS1_ET1_T0_S3_S2_
_ZSt14__copy_move_a2ILb1EP11sei_messageS1_ET1_T0_S3_S2_
_ZSt14__copy_move_a2ILb1EPP10image_dataS2_ET1_T0_S4_S3_
_ZSt14__copy_move_a2ILb1EPP10image_unitS2_ET1_T0_S4_S3_
_ZSt14__copy_move_a2ILb1EPP10slice_unitS2_ET1_T0_S4_S3_
_ZSt14__copy_move_a2ILb1EPP11de265_imageS2_ET1_T0_S4_S3_
_ZSt14__copy_move_a2ILb1EPP11option_baseS2_ET1_T0_S4_S3_
_ZSt14__copy_move_a2ILb1EPP11thread_taskS2_ET1_T0_S4_S3_
_ZSt14__copy_move_a2ILb1EPP20slice_segment_headerS2_ET1_T0_S4_S3_
_ZSt14__copy_move_a2ILb1EPP6enc_cbS2_ET1_T0_S4_S3_
_ZSt14__copy_move_a2ILb1EPP8NAL_unitS2_ET1_T0_S4_S3_
_ZSt14__copy_move_a2ILb1EPPhS1_ET1_T0_S3_S2_
_ZSt14__copy_move_a2ILb1EPPvS1_ET1_T0_S3_S2_
_ZSt14__copy_move_a2ILb1EPcS0_ET1_T0_S2_S1_
_ZSt14__copy_move_a2ILb1EPiS0_ET1_T0_S2_S1_
_ZSt14__copy_move_a2ILb1EPtS0_ET1_T0_S2_S1_
_ZSt14__copy_move_a2ILb1ESt15_Deque_iteratorIP10image_dataRS2_PS2_ES5_ET1_T0_S7_S6_
_ZSt14__partial_sortIN9__gnu_cxx17__normal_iteratorIPSt4pairI13IntraPredModefESt6vectorIS4_SaIS4_EEEENS0_5__ops15_Iter_comp_iterIPFbS4_S4_EEEEvT_SF_SF_T0_
_ZSt15__alloc_on_copyISaIP10image_dataEEvRT_RKS3_
_ZSt15__alloc_on_copyISaIiEEvRT_RKS1_
_ZSt15allocate_sharedI17pic_parameter_setSaIS0_EJEESt10shared_ptrIT_ERKT0_DpOT1_
_ZSt15allocate_sharedI17seq_parameter_setSaIS0_EJEESt10shared_ptrIT_ERKT0_DpOT1_
_ZSt15allocate_sharedI18small_image_bufferSaIS0_EJRiyEESt10shared_ptrIT_ERKT0_DpOT1_
_ZSt15allocate_sharedI19video_parameter_setSaIS0_EJEESt10shared_ptrIT_ERKT0_DpOT1_
_ZSt16__deque_buf_sizey
_ZSt16__insertion_sortIN9__gnu_cxx17__normal_iteratorIPSt4pairI13IntraPredModefESt6vectorIS4_SaIS4_EEEENS0_5__ops15_Iter_comp_iterIPFbS4_S4_EEEEvT_SF_T0_
_ZSt16__introsort_loopIN9__gnu_cxx17__normal_iteratorIPSt4pairI13IntraPredModefESt6vectorIS4_SaIS4_EEEExNS0_5__ops15_Iter_comp_iterIPFbS4_S4_EEEEvT_SF_T0_T1_
_ZSt16atomic_fetch_addIiET_PSt13__atomic_baseIS0_ES0_
_ZSt16atomic_fetch_subIiET_PSt13__atomic_baseIS0_ES0_
_ZSt18__allocate_guardedISaISt23_Sp_counted_ptr_inplaceI17pic_parameter_setSaIS1_ELN9__gnu_cxx12_Lock_policyE2EEEESt15__allocated_ptrIT_ERS8_
_ZSt18__allocate_guardedISaISt23_Sp_counted_ptr_inplaceI17seq_parameter_setSaIS1_ELN9__gnu_cxx12_Lock_policyE2EEEESt15__allocated_ptrIT_ERS8_
_ZSt18__allocate_guardedISaISt23_Sp_counted_ptr_inplaceI18small_image_bufferSaIS1_ELN9__gnu_cxx12_Lock_policyE2EEEESt15__allocated_ptrIT_ERS8_
_ZSt18__allocate_guardedISaISt23_Sp_counted_ptr_inplaceI19video_parameter_setSaIS1_ELN9__gnu_cxx12_Lock_policyE2EEEESt15__allocated_ptrIT_ERS8_
_ZSt18__do_alloc_on_copyISaIP10image_dataEEvRT_RKS3_St17integral_constantIbLb0EE
_ZSt18__do_alloc_on_copyISaIiEEvRT_RKS1_St17integral_constantIbLb0EE
_ZSt18make_move_iteratorIPP6enc_cbESt13move_iteratorIT_ES4_
_ZSt18make_move_iteratorIPcESt13move_iteratorIT_ES2_
_ZSt18make_move_iteratorISt15_Deque_iteratorIP10image_dataRS2_PS2_EESt13move_iteratorIT_ES7_
_ZSt18uninitialized_copyIN9__gnu_cxx17__normal_iteratorIPKiSt6vectorIiSaIiEEEEPiET0_T_SA_S9_
_ZSt18uninitialized_copyIPK19context_model_tablePS0_ET0_T_S5_S4_
_ZSt18uninitialized_copyIPKN13CodingOptionsI6enc_cbE16CodingOptionDataEPS3_ET0_T_S8_S7_
_ZSt18uninitialized_copyIPKN13CodingOptionsI6enc_tbE16CodingOptionDataEPS3_ET0_T_S8_S7_
_ZSt18uninitialized_copyIPiS0_ET0_T_S2_S1_
_ZSt18uninitialized_copyISt13move_iteratorIP11ref_pic_setES2_ET0_T_S5_S4_
_ZSt18uninitialized_copyISt13move_iteratorIP11sei_messageES2_ET0_T_S5_S4_
_ZSt18uninitialized_copyISt13move_iteratorIP12CodingOptionI6enc_tbEES4_ET0_T_S7_S6_
_ZSt18uninitialized_copyISt13move_iteratorIPNSt7__cxx1112basic_stringIcSt11char_traitsIcESaIcEEEES7_ET0_T_SA_S9_
_ZSt18uninitialized_copyISt13move_iteratorIPP10image_unitES3_ET0_T_S6_S5_
_ZSt18uninitialized_copyISt13move_iteratorIPP10slice_unitES3_ET0_T_S6_S5_
_ZSt18uninitialized_copyISt13move_iteratorIPP11de265_imageES3_ET0_T_S6_S5_
_ZSt18uninitialized_copyISt13move_iteratorIPP11option_baseES3_ET0_T_S6_S5_
_ZSt18uninitialized_copyISt13move_iteratorIPP11thread_taskES3_ET0_T_S6_S5_
_ZSt18uninitialized_copyISt13move_iteratorIPP20slice_segment_headerES3_ET0_T_S6_S5_
_ZSt18uninitialized_copyISt13move_iteratorIPP6enc_cbES3_ET0_T_S6_S5_
_ZSt18uninitialized_copyISt13move_iteratorIPP8NAL_unitES3_ET0_T_S6_S5_
_ZSt18uninitialized_copyISt13move_iteratorIPPhES2_ET0_T_S5_S4_
_ZSt18uninitialized_copyISt13move_iteratorIPPvES2_ET0_T_S5_S4_
_ZSt18uninitialized_copyISt13move_iteratorIPSt4pairI13IntraPredModefEES4_ET0_T_S7_S6_
_ZSt18uninitialized_copyISt13move_iteratorIPSt4pairINSt7__cxx1112basic_stringIcSt11char_traitsIcESaIcEEE10MVTestModeEESA_ET0_T_SD_SC_
_ZSt18uninitialized_copyISt13move_iteratorIPSt4pairINSt7__cxx1112basic_stringIcSt11char_traitsIcESaIcEEE12MVSearchAlgoEESA_ET0_T_SD_SC_
_ZSt18uninitialized_copyISt13move_iteratorIPSt4pairINSt7__cxx1112basic_stringIcSt11char_traitsIcESaIcEEE13SOP_StructureEESA_ET0_T_SD_SC_
_ZSt18uninitialized_copyISt13move_iteratorIPSt4pairINSt7__cxx1112basic_stringIcSt11char_traitsIcESaIcEEE20TBBitrateEstimMethodEESA_ET0_T_SD_SC_
_ZSt18uninitialized_copyISt13move_iteratorIPSt4pairINSt7__cxx1112basic_stringIcSt11char_traitsIcESaIcEEE21ALGO_CB_IntraPartModeEESA_ET0_T_SD_SC_
_ZSt18uninitialized_copyISt13move_iteratorIPSt4pairINSt7__cxx1112basic_stringIcSt11char_traitsIcESaIcEEE21ALGO_TB_IntraPredModeEESA_ET0_T_SD_SC_
_ZSt18uninitialized_copyISt13move_iteratorIPSt4pairINSt7__cxx1112basic_stringIcSt11char_traitsIcESaIcEEE22ALGO_TB_RateEstimationEESA_ET0_T_SD_SC_
_ZSt18uninitialized_copyISt13move_iteratorIPSt4pairINSt7__cxx1112basic_stringIcSt11char_traitsIcESaIcEEE28ALGO_TB_IntraPredMode_SubsetEESA_ET0_T_SD_SC_
_ZSt18uninitialized_copyISt13move_iteratorIPSt4pairINSt7__cxx1112basic_stringIcSt11char_traitsIcESaIcEEE39ALGO_TB_Split_BruteForce_ZeroBlockPruneEESA_ET0_T_SD_SC_
_ZSt18uninitialized_copyISt13move_iteratorIPSt4pairINSt7__cxx1112basic_stringIcSt11char_traitsIcESaIcEEE6MEModeEESA_ET0_T_SD_SC_
_ZSt18uninitialized_copyISt13move_iteratorIPSt4pairINSt7__cxx1112basic_stringIcSt11char_traitsIcESaIcEEE8PartModeEESA_ET0_T_SD_SC_
_ZSt18uninitialized_copyISt13move_iteratorIPSt6vectorIcSaIcEEES4_ET0_T_S7_S6_
_ZSt18uninitialized_copyISt13move_iteratorIPcES1_ET0_T_S4_S3_
_ZSt18uninitialized_copyISt13move_iteratorIPiES1_ET0_T_S4_S3_
_ZSt18uninitialized_copyISt13move_iteratorIPtES1_ET0_T_S4_S3_
_ZSt18uninitialized_copyISt13move_iteratorISt15_Deque_iteratorIP10image_dataRS3_PS3_EES6_ET0_T_S9_S8_
_ZSt18uninitialized_copyISt15_Deque_iteratorIP10image_dataRKS2_PS3_ES0_IS2_RS2_PS2_EET0_T_SB_SA_
_ZSt19__iterator_categoryIN9__gnu_cxx17__normal_iteratorIPKiSt6vectorIiSaIiEEEEENSt15iterator_traitsIT_E17iterator_categoryERKS9_
_ZSt19__iterator_categoryISt15_Deque_iteratorIP10image_dataRKS2_PS3_EENSt15iterator_traitsIT_E17iterator_categoryERKS8_
_ZSt20uninitialized_fill_nIPP6enc_cbyS1_ET_S3_T0_RKT1_
_ZSt20uninitialized_fill_nIPcycET_S1_T0_RKT1_
_ZSt21__unguarded_partitionIN9__gnu_cxx17__normal_iteratorIPSt4pairI13IntraPredModefESt6vectorIS4_SaIS4_EEEENS0_5__ops15_Iter_comp_iterIPFbS4_S4_EEEET_SF_SF_SF_T0_
_ZSt22__copy_move_backward_aILb0EPPP10image_dataS3_ET1_T0_S5_S4_
_ZSt22__copy_move_backward_aILb0EPPP11de265_imageS3_ET1_T0_S5_S4_
_ZSt22__copy_move_backward_aILb0EPPP11thread_taskS3_ET1_T0_S5_S4_
_ZSt22__copy_move_backward_aILb0EPPP12en265_packetS3_ET1_T0_S5_S4_
_ZSt22__copy_move_backward_aILb0EPPP8NAL_unitS3_ET1_T0_S5_S4_
_ZSt22__copy_move_backward_aILb1EPP10image_dataS2_ET1_T0_S4_S3_
_ZSt22__copy_move_backward_aILb1EPP6enc_cbS2_ET1_T0_S4_S3_
_ZSt22__copy_move_backward_aILb1EPSt4pairI13IntraPredModefES3_ET1_T0_S5_S4_
_ZSt22__copy_move_backward_aILb1EPcS0_ET1_T0_S2_S1_
_ZSt22__final_insertion_sortIN9__gnu_cxx17__normal_iteratorIPSt4pairI13IntraPredModefESt6vectorIS4_SaIS4_EEEENS0_5__ops15_Iter_comp_iterIPFbS4_S4_EEEEvT_SF_T0_
_ZSt22__move_median_to_firstIN9__gnu_cxx17__normal_iteratorIPSt4pairI13IntraPredModefESt6vectorIS4_SaIS4_EEEENS0_5__ops15_Iter_comp_iterIPFbS4_S4_EEEEvT_SF_SF_SF_T0_
_ZSt22__uninitialized_copy_aIN9__gnu_cxx17__normal_iteratorIPKiSt6vectorIiSaIiEEEEPiiET0_T_SA_S9_RSaIT1_E
_ZSt22__uninitialized_copy_aIPK19context_model_tablePS0_S0_ET0_T_S5_S4_RSaIT1_E
_ZSt22__uninitialized_copy_aIPKN13CodingOptionsI6enc_cbE16CodingOptionDataEPS3_S3_ET0_T_S8_S7_RSaIT1_E
_ZSt22__uninitialized_copy_aIPKN13CodingOptionsI6enc_tbE16CodingOptionDataEPS3_S3_ET0_T_S8_S7_RSaIT1_E
_ZSt22__uninitialized_copy_aIPiS0_iET0_T_S2_S1_RSaIT1_E
_ZSt22__uninitialized_copy_aISt13move_iteratorIP11ref_pic_setES2_S1_ET0_T_S5_S4_RSaIT1_E
_ZSt22__uninitialized_copy_aISt13move_iteratorIP11sei_messageES2_S1_ET0_T_S5_S4_RSaIT1_E
_ZSt22__uninitialized_copy_aISt13move_iteratorIP12CodingOptionI6enc_tbEES4_S3_ET0_T_S7_S6_RSaIT1_E
_ZSt22__uninitialized_copy_aISt13move_iteratorIPNSt7__cxx1112basic_stringIcSt11char_traitsIcESaIcEEEES7_S6_ET0_T_SA_S9_RSaIT1_E
_ZSt22__uninitialized_copy_aISt13move_iteratorIPP10image_unitES3_S2_ET0_T_S6_S5_RSaIT1_E
_ZSt22__uninitialized_copy_aISt13move_iteratorIPP10slice_unitES3_S2_ET0_T_S6_S5_RSaIT1_E
_ZSt22__uninitialized_copy_aISt13move_iteratorIPP11de265_imageES3_S2_ET0_T_S6_S5_RSaIT1_E
_ZSt22__uninitialized_copy_aISt13move_iteratorIPP11option_baseES3_S2_ET0_T_S6_S5_RSaIT1_E
_ZSt22__uninitialized_copy_aISt13move_iteratorIPP11thread_taskES3_S2_ET0_T_S6_S5_RSaIT1_E
_ZSt22__uninitialized_copy_aISt13move_iteratorIPP20slice_segment_headerES3_S2_ET0_T_S6_S5_RSaIT1_E
_ZSt22__uninitialized_copy_aISt13move_iteratorIPP6enc_cbES3_S2_ET0_T_S6_S5_RSaIT1_E
_ZSt22__uninitialized_copy_aISt13move_iteratorIPP8NAL_unitES3_S2_ET0_T_S6_S5_RSaIT1_E
_ZSt22__uninitialized_copy_aISt13move_iteratorIPPhES2_S1_ET0_T_S5_S4_RSaIT1_E
_ZSt22__uninitialized_copy_aISt13move_iteratorIPPvES2_S1_ET0_T_S5_S4_RSaIT1_E
_ZSt22__uninitialized_copy_aISt13move_iteratorIPSt4pairI13IntraPredModefEES4_S3_ET0_T_S7_S6_RSaIT1_E
_ZSt22__uninitialized_copy_aISt13move_iteratorIPSt4pairINSt7__cxx1112basic_stringIcSt11char_traitsIcESaIcEEE10MVTestModeEESA_S9_ET0_T_SD_SC_RSaIT1_E
_ZSt22__uninitialized_copy_aISt13move_iteratorIPSt4pairINSt7__cxx1112basic_stringIcSt11char_traitsIcESaIcEEE12MVSearchAlgoEESA_S9_ET0_T_SD_SC_RSaIT1_E
_ZSt22__uninitialized_copy_aISt13move_iteratorIPSt4pairINSt7__cxx1112basic_stringIcSt11char_traitsIcESaIcEEE13SOP_StructureEESA_S9_ET0_T_SD_SC_RSaIT1_E
_ZSt22__uninitialized_copy_aISt13move_iteratorIPSt4pairINSt7__cxx1112basic_stringIcSt11char_traitsIcESaIcEEE20TBBitrateEstimMethodEESA_S9_ET0_T_SD_SC_RSaIT1_E
_ZSt22__uninitialized_copy_aISt13move_iteratorIPSt4pairINSt7__cxx1112basic_stringIcSt11char_traitsIcESaIcEEE21ALGO_CB_IntraPartModeEESA_S9_ET0_T_SD_SC_RSaIT1_E
_ZSt22__uninitialized_copy_aISt13move_iteratorIPSt4pairINSt7__cxx1112basic_stringIcSt11char_traitsIcESaIcEEE21ALGO_TB_IntraPredModeEESA_S9_ET0_T_SD_SC_RSaIT1_E
_ZSt22__uninitialized_copy_aISt13move_iteratorIPSt4pairINSt7__cxx1112basic_stringIcSt11char_traitsIcESaIcEEE22ALGO_TB_RateEstimationEESA_S9_ET0_T_SD_SC_RSaIT1_E
_ZSt22__uninitialized_copy_aISt13move_iteratorIPSt4pairINSt7__cxx1112basic_stringIcSt11char_traitsIcESaIcEEE28ALGO_TB_IntraPredMode_SubsetEESA_S9_ET0_T_SD_SC_RSaIT1_E
_ZSt22__uninitialized_copy_aISt13move_iteratorIPSt4pairINSt7__cxx1112basic_stringIcSt11char_traitsIcESaIcEEE39ALGO_TB_Split_BruteForce_ZeroBlockPruneEESA_S9_ET0_T_SD_SC_RSaIT1_E
_ZSt22__uninitialized_copy_aISt13move_iteratorIPSt4pairINSt7__cxx1112basic_stringIcSt11char_traitsIcESaIcEEE6MEModeEESA_S9_ET0_T_SD_SC_RSaIT1_E
_ZSt22__uninitialized_copy_aISt13move_iteratorIPSt4pairINSt7__cxx1112basic_stringIcSt11char_traitsIcESaIcEEE8PartModeEESA_S9_ET0_T_SD_SC_RSaIT1_E
_ZSt22__uninitialized_copy_aISt13move_iteratorIPSt6vectorIcSaIcEEES4_S3_ET0_T_S7_S6_RSaIT1_E
_ZSt22__uninitialized_copy_aISt13move_iteratorIPcES1_cET0_T_S4_S3_RSaIT1_E
_ZSt22__uninitialized_copy_aISt13move_iteratorIPiES1_iET0_T_S4_S3_RSaIT1_E
_ZSt22__uninitialized_copy_aISt13move_iteratorIPtES1_tET0_T_S4_S3_RSaIT1_E
_ZSt22__uninitialized_copy_aISt13move_iteratorISt15_Deque_iteratorIP10image_dataRS3_PS3_EES6_S3_ET0_T_S9_S8_RSaIT1_E
_ZSt22__uninitialized_copy_aISt15_Deque_iteratorIP10image_dataRKS2_PS3_ES0_IS2_RS2_PS2_ES2_ET0_T_SB_SA_RSaIT1_E
_ZSt22__uninitialized_move_aIPP6enc_cbS2_SaIS1_EET0_T_S5_S4_RT1_
_ZSt22__uninitialized_move_aIPcS0_SaIcEET0_T_S3_S2_RT1_
_ZSt22__uninitialized_move_aISt15_Deque_iteratorIP10image_dataRS2_PS2_ES5_SaIS2_EET0_T_S8_S7_RT1_
_ZSt23__copy_move_backward_a2ILb0EPPP10image_dataS3_ET1_T0_S5_S4_
_ZSt23__copy_move_backward_a2ILb0EPPP11de265_imageS3_ET1_T0_S5_S4_
_ZSt23__copy_move_backward_a2ILb0EPPP11thread_taskS3_ET1_T0_S5_S4_
_ZSt23__copy_move_backward_a2ILb0EPPP12en265_packetS3_ET1_T0_S5_S4_
_ZSt23__copy_move_backward_a2ILb0EPPP8NAL_unitS3_ET1_T0_S5_S4_
_ZSt23__copy_move_backward_a2ILb1EN9__gnu_cxx17__normal_iteratorIPSt4pairI13IntraPredModefESt6vectorIS4_SaIS4_EEEES9_ET1_T0_SB_SA_
_ZSt23__copy_move_backward_a2ILb1EPP10image_dataS2_ET1_T0_S4_S3_
_ZSt23__copy_move_backward_a2ILb1EPP6enc_cbS2_ET1_T0_S4_S3_
_ZSt23__copy_move_backward_a2ILb1EPcS0_ET1_T0_S2_S1_
_ZSt24__uninitialized_fill_n_aIPP6enc_cbyS1_S1_ET_S3_T0_RKT1_RSaIT2_E
_ZSt24__uninitialized_fill_n_aIPcyccET_S1_T0_RKT1_RSaIT2_E
_ZSt25__unguarded_linear_insertIN9__gnu_cxx17__normal_iteratorIPSt4pairI13IntraPredModefESt6vectorIS4_SaIS4_EEEENS0_5__ops14_Val_comp_iterIPFbS4_S4_EEEEvT_T0_
_ZSt25__uninitialized_copy_moveISt15_Deque_iteratorIP10image_dataRKS2_PS3_ES0_IS2_RS2_PS2_ES9_SaIS2_EET1_T_SC_T0_SD_SB_RT2_
_ZSt25__uninitialized_default_nIP11ref_pic_setyET_S2_T0_
_ZSt25__uninitialized_default_nIP19context_model_tableyET_S2_T0_
_ZSt25__uninitialized_default_nIPSt4pairI13IntraPredModefEyET_S4_T0_
_ZSt25__uninitialized_default_nIPSt6vectorIcSaIcEEyET_S4_T0_
_ZSt25__uninitialized_default_nIPcyET_S1_T0_
_ZSt25__uninitialized_default_nIPhyET_S1_T0_
_ZSt25__uninitialized_default_nIPiyET_S1_T0_
_ZSt25__uninitialized_default_nIPtyET_S1_T0_
_ZSt25__uninitialized_move_copyISt15_Deque_iteratorIP10image_dataRS2_PS2_ES0_IS2_RKS2_PS6_ES5_SaIS2_EET1_T_SC_T0_SD_SB_RT2_
_ZSt25atomic_fetch_add_explicitIiET_PSt13__atomic_baseIS0_ES0_St12memory_order
_ZSt25atomic_fetch_sub_explicitIiET_PSt13__atomic_baseIS0_ES0_St12memory_order
_ZSt26__unguarded_insertion_sortIN9__gnu_cxx17__normal_iteratorIPSt4pairI13IntraPredModefESt6vectorIS4_SaIS4_EEEENS0_5__ops15_Iter_comp_iterIPFbS4_S4_EEEEvT_SF_T0_
_ZSt27__unguarded_partition_pivotIN9__gnu_cxx17__normal_iteratorIPSt4pairI13IntraPredModefESt6vectorIS4_SaIS4_EEEENS0_5__ops15_Iter_comp_iterIPFbS4_S4_EEEET_SF_SF_T0_
_ZSt27__uninitialized_default_n_aIP11ref_pic_setyS0_ET_S2_T0_RSaIT1_E
_ZSt27__uninitialized_default_n_aIP19context_model_tableyS0_ET_S2_T0_RSaIT1_E
_ZSt27__uninitialized_default_n_aIPSt4pairI13IntraPredModefEyS2_ET_S4_T0_RSaIT1_E
_ZSt27__uninitialized_default_n_aIPSt6vectorIcSaIcEEyS2_ET_S4_T0_RSaIT1_E
_ZSt27__uninitialized_default_n_aIPcycET_S1_T0_RSaIT1_E
_ZSt27__uninitialized_default_n_aIPhyhET_S1_T0_RSaIT1_E
_ZSt27__uninitialized_default_n_aIPiyiET_S1_T0_RSaIT1_E
_ZSt27__uninitialized_default_n_aIPtytET_S1_T0_RSaIT1_E
_ZSt32__make_move_if_noexcept_iteratorI11ref_pic_setSt13move_iteratorIPS0_EET0_PT_
_ZSt32__make_move_if_noexcept_iteratorI11sei_messageSt13move_iteratorIPS0_EET0_PT_
_ZSt32__make_move_if_noexcept_iteratorI12CodingOptionI6enc_tbESt13move_iteratorIPS2_EET0_PT_
_ZSt32__make_move_if_noexcept_iteratorI19context_model_tablePKS0_ET0_PT_
_ZSt32__make_move_if_noexcept_iteratorIN13CodingOptionsI6enc_cbE16CodingOptionDataEPKS3_ET0_PT_
_ZSt32__make_move_if_noexcept_iteratorIN13CodingOptionsI6enc_tbE16CodingOptionDataEPKS3_ET0_PT_
_ZSt32__make_move_if_noexcept_iteratorINSt7__cxx1112basic_stringIcSt11char_traitsIcESaIcEEESt13move_iteratorIPS5_EET0_PT_
_ZSt32__make_move_if_noexcept_iteratorIP10image_unitSt13move_iteratorIPS1_EET0_PT_
_ZSt32__make_move_if_noexcept_iteratorIP10slice_unitSt13move_iteratorIPS1_EET0_PT_
_ZSt32__make_move_if_noexcept_iteratorIP11de265_imageSt13move_iteratorIPS1_EET0_PT_
_ZSt32__make_move_if_noexcept_iteratorIP11option_baseSt13move_iteratorIPS1_EET0_PT_
_ZSt32__make_move_if_noexcept_iteratorIP11thread_taskSt13move_iteratorIPS1_EET0_PT_
_ZSt32__make_move_if_noexcept_iteratorIP20slice_segment_headerSt13move_iteratorIPS1_EET0_PT_
_ZSt32__make_move_if_noexcept_iteratorIP6enc_cbSt13move_iteratorIPS1_EET0_PT_
_ZSt32__make_move_if_noexcept_iteratorIP8NAL_unitSt13move_iteratorIPS1_EET0_PT_
_ZSt32__make_move_if_noexcept_iteratorIPhSt13move_iteratorIPS0_EET0_PT_
_ZSt32__make_move_if_noexcept_iteratorIPvSt13move_iteratorIPS0_EET0_PT_
_ZSt32__make_move_if_noexcept_iteratorISt4pairI13IntraPredModefESt13move_iteratorIPS2_EET0_PT_
_ZSt32__make_move_if_noexcept_iteratorISt4pairINSt7__cxx1112basic_stringIcSt11char_traitsIcESaIcEEE10MVTestModeESt13move_iteratorIPS8_EET0_PT_
_ZSt32__make_move_if_noexcept_iteratorISt4pairINSt7__cxx1112basic_stringIcSt11char_traitsIcESaIcEEE12MVSearchAlgoESt13move_iteratorIPS8_EET0_PT_
_ZSt32__make_move_if_noexcept_iteratorISt4pairINSt7__cxx1112basic_stringIcSt11char_traitsIcESaIcEEE13SOP_StructureESt13move_iteratorIPS8_EET0_PT_
_ZSt32__make_move_if_noexcept_iteratorISt4pairINSt7__cxx1112basic_stringIcSt11char_traitsIcESaIcEEE20TBBitrateEstimMethodESt13move_iteratorIPS8_EET0_PT_
_ZSt32__make_move_if_noexcept_iteratorISt4pairINSt7__cxx1112basic_stringIcSt11char_traitsIcESaIcEEE21ALGO_CB_IntraPartModeESt13move_iteratorIPS8_EET0_PT_
_ZSt32__make_move_if_noexcept_iteratorISt4pairINSt7__cxx1112basic_stringIcSt11char_traitsIcESaIcEEE21ALGO_TB_IntraPredModeESt13move_iteratorIPS8_EET0_PT_
_ZSt32__make_move_if_noexcept_iteratorISt4pairINSt7__cxx1112basic_stringIcSt11char_traitsIcESaIcEEE22ALGO_TB_RateEstimationESt13move_iteratorIPS8_EET0_PT_
_ZSt32__make_move_if_noexcept_iteratorISt4pairINSt7__cxx1112basic_stringIcSt11char_traitsIcESaIcEEE28ALGO_TB_IntraPredMode_SubsetESt13move_iteratorIPS8_EET0_PT_
_ZSt32__make_move_if_noexcept_iteratorISt4pairINSt7__cxx1112basic_stringIcSt11char_traitsIcESaIcEEE39ALGO_TB_Split_BruteForce_ZeroBlockPruneESt13move_iteratorIPS8_EET0_PT_
_ZSt32__make_move_if_noexcept_iteratorISt4pairINSt7__cxx1112basic_stringIcSt11char_traitsIcESaIcEEE6MEModeESt13move_iteratorIPS8_EET0_PT_
_ZSt32__make_move_if_noexcept_iteratorISt4pairINSt7__cxx1112basic_stringIcSt11char_traitsIcESaIcEEE8PartModeESt13move_iteratorIPS8_EET0_PT_
_ZSt32__make_move_if_noexcept_iteratorISt6vectorIcSaIcEESt13move_iteratorIPS2_EET0_PT_
_ZSt32__make_move_if_noexcept_iteratorIcSt13move_iteratorIPcEET0_PT_
_ZSt32__make_move_if_noexcept_iteratorIiSt13move_iteratorIPiEET0_PT_
_ZSt32__make_move_if_noexcept_iteratorItSt13move_iteratorIPtEET0_PT_
_ZSt34__uninitialized_move_if_noexcept_aIP11ref_pic_setS1_SaIS0_EET0_T_S4_S3_RT1_
_ZSt34__uninitialized_move_if_noexcept_aIP11sei_messageS1_SaIS0_EET0_T_S4_S3_RT1_
_ZSt34__uninitialized_move_if_noexcept_aIP12CodingOptionI6enc_tbES3_SaIS2_EET0_T_S6_S5_RT1_
_ZSt34__uninitialized_move_if_noexcept_aIP19context_model_tableS1_SaIS0_EET0_T_S4_S3_RT1_
_ZSt34__uninitialized_move_if_noexcept_aIPN13CodingOptionsI6enc_cbE16CodingOptionDataES4_SaIS3_EET0_T_S7_S6_RT1_
_ZSt34__uninitialized_move_if_noexcept_aIPN13CodingOptionsI6enc_tbE16CodingOptionDataES4_SaIS3_EET0_T_S7_S6_RT1_
_ZSt34__uninitialized_move_if_noexcept_aIPNSt7__cxx1112basic_stringIcSt11char_traitsIcESaIcEEES6_SaIS5_EET0_T_S9_S8_RT1_
_ZSt34__uninitialized_move_if_noexcept_aIPP10image_unitS2_SaIS1_EET0_T_S5_S4_RT1_
_ZSt34__uninitialized_move_if_noexcept_aIPP10slice_unitS2_SaIS1_EET0_T_S5_S4_RT1_
_ZSt34__uninitialized_move_if_noexcept_aIPP11de265_imageS2_SaIS1_EET0_T_S5_S4_RT1_
_ZSt34__uninitialized_move_if_noexcept_aIPP11option_baseS2_SaIS1_EET0_T_S5_S4_RT1_
_ZSt34__uninitialized_move_if_noexcept_aIPP11thread_taskS2_SaIS1_EET0_T_S5_S4_RT1_
_ZSt34__uninitialized_move_if_noexcept_aIPP20slice_segment_headerS2_SaIS1_EET0_T_S5_S4_RT1_
_ZSt34__uninitialized_move_if_noexcept_aIPP6enc_cbS2_SaIS1_EET0_T_S5_S4_RT1_
_ZSt34__uninitialized_move_if_noexcept_aIPP8NAL_unitS2_SaIS1_EET0_T_S5_S4_RT1_
_ZSt34__uninitialized_move_if_noexcept_aIPPhS1_SaIS0_EET0_T_S4_S3_RT1_
_ZSt34__uninitialized_move_if_noexcept_aIPPvS1_SaIS0_EET0_T_S4_S3_RT1_
_ZSt34__uninitialized_move_if_noexcept_aIPSt4pairI13IntraPredModefES3_SaIS2_EET0_T_S6_S5_RT1_
_ZSt34__uninitialized_move_if_noexcept_aIPSt4pairINSt7__cxx1112basic_stringIcSt11char_traitsIcESaIcEEE10MVTestModeES9_SaIS8_EET0_T_SC_SB_RT1_
_ZSt34__uninitialized_move_if_noexcept_aIPSt4pairINSt7__cxx1112basic_stringIcSt11char_traitsIcESaIcEEE12MVSearchAlgoES9_SaIS8_EET0_T_SC_SB_RT1_
_ZSt34__uninitialized_move_if_noexcept_aIPSt4pairINSt7__cxx1112basic_stringIcSt11char_traitsIcESaIcEEE13SOP_StructureES9_SaIS8_EET0_T_SC_SB_RT1_
_ZSt34__uninitialized_move_if_noexcept_aIPSt4pairINSt7__cxx1112basic_stringIcSt11char_traitsIcESaIcEEE20TBBitrateEstimMethodES9_SaIS8_EET0_T_SC_SB_RT1_
_ZSt34__uninitialized_move_if_noexcept_aIPSt4pairINSt7__cxx1112basic_stringIcSt11char_traitsIcESaIcEEE21ALGO_CB_IntraPartModeES9_SaIS8_EET0_T_SC_SB_RT1_
_ZSt34__uninitialized_move_if_noexcept_aIPSt4pairINSt7__cxx1112basic_stringIcSt11char_traitsIcESaIcEEE21ALGO_TB_IntraPredModeES9_SaIS8_EET0_T_SC_SB_RT1_
_ZSt34__uninitialized_move_if_noexcept_aIPSt4pairINSt7__cxx1112basic_stringIcSt11char_traitsIcESaIcEEE22ALGO_TB_RateEstimationES9_SaIS8_EET0_T_SC_SB_RT1_
_ZSt34__uninitialized_move_if_noexcept_aIPSt4pairINSt7__cxx1112basic_stringIcSt11char_traitsIcESaIcEEE28ALGO_TB_IntraPredMode_SubsetES9_SaIS8_EET0_T_SC_SB_RT1_
_ZSt34__uninitialized_move_if_noexcept_aIPSt4pairINSt7__cxx1112basic_stringIcSt11char_traitsIcESaIcEEE39ALGO_TB_Split_BruteForce_ZeroBlockPruneES9_SaIS8_EET0_T_SC_SB_RT1_
_ZSt34__uninitialized_move_if_noexcept_aIPSt4pairINSt7__cxx1112basic_stringIcSt11char_traitsIcESaIcEEE6MEModeES9_SaIS8_EET0_T_SC_SB_RT1_
_ZSt34__uninitialized_move_if_noexcept_aIPSt4pairINSt7__cxx1112basic_stringIcSt11char_traitsIcESaIcEEE8PartModeES9_SaIS8_EET0_T_SC_SB_RT1_
_ZSt34__uninitialized_move_if_noexcept_aIPSt6vectorIcSaIcEES3_SaIS2_EET0_T_S6_S5_RT1_
_ZSt34__uninitialized_move_if_noexcept_aIPcS0_SaIcEET0_T_S3_S2_RT1_
_ZSt34__uninitialized_move_if_noexcept_aIPiS0_SaIiEET0_T_S3_S2_RT1_
_ZSt34__uninitialized_move_if_noexcept_aIPtS0_SaItEET0_T_S3_S2_RT1_
_ZSt3hexRSt8ios_base
_ZSt3maxIiERKT_S2_S2_
_ZSt3maxIyERKT_S2_S2_
_ZSt3minIiERKT_S2_S2_
_ZSt3minIxERKT_S2_S2_
_ZSt3powIdiEN9__gnu_cxx11__promote_2IT_T0_NS0_9__promoteIS2_XsrSt12__is_integerIS2_E7__valueEE6__typeENS4_IS3_XsrS5_IS3_E7__valueEE6__typeEE6__typeES2_S3_
_ZSt4__lgx
_ZSt4copyIN9__gnu_cxx17__normal_iteratorIPKiSt6vectorIiSaIiEEEENS1_IPiS6_EEET0_T_SB_SA_
_ZSt4copyIN9__gnu_cxx17__normal_iteratorIPKiSt6vectorIiSaIiEEEEPiET0_T_SA_S9_
_ZSt4copyIP10image_dataESt15_Deque_iteratorIT_RS3_PS3_ES2_IS3_RKS3_PS7_ESA_S6_
_ZSt4copyIPP10image_dataS2_ET0_T_S4_S3_
_ZSt4copyIPPP10image_dataS3_ET0_T_S5_S4_
_ZSt4copyIPPP11de265_imageS3_ET0_T_S5_S4_
_ZSt4copyIPPP11thread_taskS3_ET0_T_S5_S4_
_ZSt4copyIPPP12en265_packetS3_ET0_T_S5_S4_
_ZSt4copyIPPP8NAL_unitS3_ET0_T_S5_S4_
_ZSt4copyIPiS0_ET0_T_S2_S1_
_ZSt4copyISt13move_iteratorIP11ref_pic_setES2_ET0_T_S5_S4_
_ZSt4copyISt13move_iteratorIP11sei_messageES2_ET0_T_S5_S4_
_ZSt4copyISt13move_iteratorIPP10image_unitES3_ET0_T_S6_S5_
_ZSt4copyISt13move_iteratorIPP10slice_unitES3_ET0_T_S6_S5_
_ZSt4copyISt13move_iteratorIPP11de265_imageES3_ET0_T_S6_S5_
_ZSt4copyISt13move_iteratorIPP11option_baseES3_ET0_T_S6_S5_
_ZSt4copyISt13move_iteratorIPP11thread_taskES3_ET0_T_S6_S5_
_ZSt4copyISt13move_iteratorIPP20slice_segment_headerES3_ET0_T_S6_S5_
_ZSt4copyISt13move_iteratorIPP6enc_cbES3_ET0_T_S6_S5_
_ZSt4copyISt13move_iteratorIPP8NAL_unitES3_ET0_T_S6_S5_
_ZSt4copyISt13move_iteratorIPPhES2_ET0_T_S5_S4_
_ZSt4copyISt13move_iteratorIPPvES2_ET0_T_S5_S4_
_ZSt4copyISt13move_iteratorIPcES1_ET0_T_S4_S3_
_ZSt4copyISt13move_iteratorIPiES1_ET0_T_S4_S3_
_ZSt4copyISt13move_iteratorIPtES1_ET0_T_S4_S3_
_ZSt4copyISt13move_iteratorISt15_Deque_iteratorIP10image_dataRS3_PS3_EES6_ET0_T_S9_S8_
_ZSt4copyISt15_Deque_iteratorIP10image_dataRKS2_PS3_ES0_IS2_RS2_PS2_EET0_T_SB_SA_
_ZSt4fillIPP6enc_cbS1_EvT_S3_RKT0_
_ZSt4fillIPccEvT_S1_RKT0_
_ZSt4findIN9__gnu_cxx17__normal_iteratorIPKiSt6vectorIiSaIiEEEEiET_S8_S8_RKT0_
_ZSt4leftRSt8ios_base
_ZSt4moveIP10image_dataESt15_Deque_iteratorIT_RS3_PS3_ES2_IS3_RKS3_PS7_ESA_S6_
_ZSt4moveIP10image_dataESt15_Deque_iteratorIT_RS3_PS3_ES6_S6_S6_
_ZSt4moveIPP10image_dataS2_ET0_T_S4_S3_
_ZSt4moveIR13IntraPredModeEONSt16remove_referenceIT_E4typeEOS3_
_ZSt4moveIR22de265_image_allocationEONSt16remove_referenceIT_E4typeEOS3_
_ZSt4moveIRKSaI17pic_parameter_setEEONSt16remove_referenceIT_E4typeEOS5_
_ZSt4moveIRKSaI17seq_parameter_setEEONSt16remove_referenceIT_E4typeEOS5_
_ZSt4moveIRKSaI18small_image_bufferEEONSt16remove_referenceIT_E4typeEOS5_
_ZSt4moveIRKSaI19video_parameter_setEEONSt16remove_referenceIT_E4typeEOS5_
_ZSt4moveIRN13CodingOptionsI6enc_cbE16CodingOptionDataEEONSt16remove_referenceIT_E4typeEOS6_
_ZSt4moveIRN13CodingOptionsI6enc_tbE16CodingOptionDataEEONSt16remove_referenceIT_E4typeEOS6_
_ZSt4moveIRN9__gnu_cxx5__ops15_Iter_comp_iterIPFbSt4pairI13IntraPredModefES5_EEEEONSt16remove_referenceIT_E4typeEOSB_
_ZSt4moveIRNSt7__cxx1112basic_stringIcSt11char_traitsIcESaIcEEEEONSt16remove_referenceIT_E4typeEOS8_
_ZSt4moveIRP10image_dataEONSt16remove_referenceIT_E4typeEOS4_
_ZSt4moveIRP11de265_imageEONSt16remove_referenceIT_E4typeEOS4_
_ZSt4moveIRP11sop_creatorEONSt16remove_referenceIT_E4typeEOS4_
_ZSt4moveIRP11thread_taskEONSt16remove_referenceIT_E4typeEOS4_
_ZSt4moveIRP17pic_parameter_setEONSt16remove_referenceIT_E4typeEOS4_
_ZSt4moveIRP17seq_parameter_setEONSt16remove_referenceIT_E4typeEOS4_
_ZSt4moveIRP18small_image_bufferEONSt16remove_referenceIT_E4typeEOS4_
_ZSt4moveIRP19video_parameter_setEONSt16remove_referenceIT_E4typeEOS4_
_ZSt4moveIRPFbSt4pairI13IntraPredModefES2_EEONSt16remove_referenceIT_E4typeEOS7_
_ZSt4moveIRPPP10image_dataEONSt16remove_referenceIT_E4typeEOS6_
_ZSt4moveIRPcEONSt16remove_referenceIT_E4typeEOS3_
_ZSt4moveIRPhEONSt16remove_referenceIT_E4typeEOS3_
_ZSt4moveIRPsEONSt16remove_referenceIT_E4typeEOS3_
_ZSt4moveIRPvEONSt16remove_referenceIT_E4typeEOS3_
_ZSt4moveIRSaIcEEONSt16remove_referenceIT_E4typeEOS3_
_ZSt4moveIRSt10shared_ptrI17pic_parameter_setEEONSt16remove_referenceIT_E4typeEOS5_
_ZSt4moveIRSt10shared_ptrI17seq_parameter_setEEONSt16remove_referenceIT_E4typeEOS5_
_ZSt4moveIRSt10shared_ptrI18small_image_bufferEEONSt16remove_referenceIT_E4typeEOS5_
_ZSt4moveIRSt10shared_ptrI19video_parameter_setEEONSt16remove_referenceIT_E4typeEOS5_
_ZSt4moveIRSt10shared_ptrI22sop_creator_intra_onlyEEONSt16remove_referenceIT_E4typeEOS5_
_ZSt4moveIRSt12__shared_ptrI17pic_parameter_setLN9__gnu_cxx12_Lock_policyE2EEEONSt16remove_referenceIT_E4typeEOS7_
_ZSt4moveIRSt12__shared_ptrI17seq_parameter_setLN9__gnu_cxx12_Lock_policyE2EEEONSt16remove_referenceIT_E4typeEOS7_
_ZSt4moveIRSt12__shared_ptrI18small_image_bufferLN9__gnu_cxx12_Lock_policyE2EEEONSt16remove_referenceIT_E4typeEOS7_
_ZSt4moveIRSt12__shared_ptrI19video_parameter_setLN9__gnu_cxx12_Lock_policyE2EEEONSt16remove_referenceIT_E4typeEOS7_
_ZSt4moveIRSt12__shared_ptrI22sop_creator_intra_onlyLN9__gnu_cxx12_Lock_policyE2EEEONSt16remove_referenceIT_E4typeEOS7_
_ZSt4moveIRSt15_Deque_iteratorIP10image_dataRS2_PS2_EEONSt16remove_referenceIT_E4typeEOS8_
_ZSt4moveIRSt4pairI13IntraPredModefEEONSt16remove_referenceIT_E4typeEOS5_
_ZSt4moveIRSt4pairINSt7__cxx1112basic_stringIcSt11char_traitsIcESaIcEEE10MVTestModeEEONSt16remove_referenceIT_E4typeEOSB_
_ZSt4moveIRSt4pairINSt7__cxx1112basic_stringIcSt11char_traitsIcESaIcEEE12MVSearchAlgoEEONSt16remove_referenceIT_E4typeEOSB_
_ZSt4moveIRSt4pairINSt7__cxx1112basic_stringIcSt11char_traitsIcESaIcEEE13SOP_StructureEEONSt16remove_referenceIT_E4typeEOSB_
_ZSt4moveIRSt4pairINSt7__cxx1112basic_stringIcSt11char_traitsIcESaIcEEE20TBBitrateEstimMethodEEONSt16remove_referenceIT_E4typeEOSB_
_ZSt4moveIRSt4pairINSt7__cxx1112basic_stringIcSt11char_traitsIcESaIcEEE21ALGO_CB_IntraPartModeEEONSt16remove_referenceIT_E4typeEOSB_
_ZSt4moveIRSt4pairINSt7__cxx1112basic_stringIcSt11char_traitsIcESaIcEEE21ALGO_TB_IntraPredModeEEONSt16remove_referenceIT_E4typeEOSB_
_ZSt4moveIRSt4pairINSt7__cxx1112basic_stringIcSt11char_traitsIcESaIcEEE22ALGO_TB_RateEstimationEEONSt16remove_referenceIT_E4typeEOSB_
_ZSt4moveIRSt4pairINSt7__cxx1112basic_stringIcSt11char_traitsIcESaIcEEE28ALGO_TB_IntraPredMode_SubsetEEONSt16remove_referenceIT_E4typeEOSB_
_ZSt4moveIRSt4pairINSt7__cxx1112basic_stringIcSt11char_traitsIcESaIcEEE39ALGO_TB_Split_BruteForce_ZeroBlockPruneEEONSt16remove_referenceIT_E4typeEOSB_
_ZSt4moveIRSt4pairINSt7__cxx1112basic_stringIcSt11char_traitsIcESaIcEEE6MEModeEEONSt16remove_referenceIT_E4typeEOSB_
_ZSt4moveIRSt4pairINSt7__cxx1112basic_stringIcSt11char_traitsIcESaIcEEE8PartModeEEONSt16remove_referenceIT_E4typeEOSB_
_ZSt4moveIRSt6vectorIcSaIcEEEONSt16remove_referenceIT_E4typeEOS5_
_ZSt4moveIRfEONSt16remove_referenceIT_E4typeEOS2_
_ZSt4moveIRiEONSt16remove_referenceIT_E4typeEOS2_
_ZSt4moveIRsEONSt16remove_referenceIT_E4typeEOS2_
_ZSt4moveIRyEONSt16remove_referenceIT_E4typeEOS2_
_ZSt4setwi
_ZSt4sortIN9__gnu_cxx17__normal_iteratorIPSt4pairI13IntraPredModefESt6vectorIS4_SaIS4_EEEEPFbS4_S4_EEvT_SC_T0_
_ZSt4swapI13IntraPredModeENSt9enable_ifIXsrSt6__and_IJSt6__not_ISt15__is_tuple_likeIT_EESt21is_move_constructibleIS5_ESt18is_move_assignableIS5_EEE5valueEvE4typeERS5_SF_
_ZSt4swapI13IntraPredModefENSt9enable_ifIXsrSt6__and_IJSt14__is_swappableIT_ES3_IT0_EEE5valueEvE4typeERSt4pairIS4_S6_ESD_
_ZSt4swapI22de265_image_allocationENSt9enable_ifIXsrSt6__and_IJSt6__not_ISt15__is_tuple_likeIT_EESt21is_move_constructibleIS5_ESt18is_move_assignableIS5_EEE5valueEvE4typeERS5_SF_
_ZSt4swapIP11sop_creatorENSt9enable_ifIXsrSt6__and_IJSt6__not_ISt15__is_tuple_likeIT_EESt21is_move_constructibleIS6_ESt18is_move_assignableIS6_EEE5valueEvE4typeERS6_SG_
_ZSt4swapIP17pic_parameter_setENSt9enable_ifIXsrSt6__and_IJSt6__not_ISt15__is_tuple_likeIT_EESt21is_move_constructibleIS6_ESt18is_move_assignableIS6_EEE5valueEvE4typeERS6_SG_
_ZSt4swapIP17seq_parameter_setENSt9enable_ifIXsrSt6__and_IJSt6__not_ISt15__is_tuple_likeIT_EESt21is_move_constructibleIS6_ESt18is_move_assignableIS6_EEE5valueEvE4typeERS6_SG_
_ZSt4swapIP18small_image_bufferENSt9enable_ifIXsrSt6__and_IJSt6__not_ISt15__is_tuple_likeIT_EESt21is_move_constructibleIS6_ESt18is_move_assignableIS6_EEE5valueEvE4typeERS6_SG_
_ZSt4swapIP19video_parameter_setENSt9enable_ifIXsrSt6__and_IJSt6__not_ISt15__is_tuple_likeIT_EESt21is_move_constructibleIS6_ESt18is_move_assignableIS6_EEE5valueEvE4typeERS6_SG_
_ZSt4swapIPPP10image_dataENSt9enable_ifIXsrSt6__and_IJSt6__not_ISt15__is_tuple_likeIT_EESt21is_move_constructibleIS8_ESt18is_move_assignableIS8_EEE5valueEvE4typeERS8_SI_
_ZSt4swapIPcENSt9enable_ifIXsrSt6__and_IJSt6__not_ISt15__is_tuple_likeIT_EESt21is_move_constructibleIS5_ESt18is_move_assignableIS5_EEE5valueEvE4typeERS5_SF_
_ZSt4swapIPhENSt9enable_ifIXsrSt6__and_IJSt6__not_ISt15__is_tuple_likeIT_EESt21is_move_constructibleIS5_ESt18is_move_assignableIS5_EEE5valueEvE4typeERS5_SF_
_ZSt4swapIPsENSt9enable_ifIXsrSt6__and_IJSt6__not_ISt15__is_tuple_likeIT_EESt21is_move_constructibleIS5_ESt18is_move_assignableIS5_EEE5valueEvE4typeERS5_SF_
_ZSt4swapIPvENSt9enable_ifIXsrSt6__and_IJSt6__not_ISt15__is_tuple_likeIT_EESt21is_move_constructibleIS5_ESt18is_move_assignableIS5_EEE5valueEvE4typeERS5_SF_
_ZSt4swapISt15_Deque_iteratorIP10image_dataRS2_PS2_EENSt9enable_ifIXsrSt6__and_IJSt6__not_ISt15__is_tuple_likeIT_EESt21is_move_constructibleISA_ESt18is_move_assignableISA_EEE5valueEvE4typeERSA_SK_
_ZSt4swapIfENSt9enable_ifIXsrSt6__and_IJSt6__not_ISt15__is_tuple_likeIT_EESt21is_move_constructibleIS4_ESt18is_move_assignableIS4_EEE5valueEvE4typeERS4_SE_
_ZSt4swapIiENSt9enable_ifIXsrSt6__and_IJSt6__not_ISt15__is_tuple_likeIT_EESt21is_move_constructibleIS4_ESt18is_move_assignableIS4_EEE5valueEvE4typeERS4_SE_
_ZSt4swapIsENSt9enable_ifIXsrSt6__and_IJSt6__not_ISt15__is_tuple_likeIT_EESt21is_move_constructibleIS4_ESt18is_move_assignableIS4_EEE5valueEvE4typeERS4_SE_
_ZSt4swapIyENSt9enable_ifIXsrSt6__and_IJSt6__not_ISt15__is_tuple_likeIT_EESt21is_move_constructibleIS4_ESt18is_move_assignableIS4_EEE5valueEvE4typeERS4_SE_
_ZSt6__sortIN9__gnu_cxx17__normal_iteratorIPSt4pairI13IntraPredModefESt6vectorIS4_SaIS4_EEEENS0_5__ops15_Iter_comp_iterIPFbS4_S4_EEEEvT_SF_T0_
_ZSt6fill_nIP11ref_pic_setyS0_ET_S2_T0_RKT1_
_ZSt6fill_nIPP6enc_cbyS1_ET_S3_T0_RKT1_
_ZSt6fill_nIPcycET_S1_T0_RKT1_
_ZSt6fill_nIPhyhET_S1_T0_RKT1_
_ZSt6fill_nIPiyiET_S1_T0_RKT1_
_ZSt6fill_nIPtytET_S1_T0_RKT1_
_ZSt7advanceISt15_Deque_iteratorIP10image_dataRKS2_PS3_ExEvRT_T0_
_ZSt7forwardI12CodingOptionI6enc_tbEEOT_RNSt16remove_referenceIS3_E4typeE
_ZSt7forwardI13IntraPredModeEOT_RNSt16remove_referenceIS1_E4typeE
_ZSt7forwardIN13CodingOptionsI6enc_cbE16CodingOptionDataEEOT_RNSt16remove_referenceIS4_E4typeE
_ZSt7forwardIN13CodingOptionsI6enc_tbE16CodingOptionDataEEOT_RNSt16remove_referenceIS4_E4typeE
_ZSt7forwardINSt7__cxx1112basic_stringIcSt11char_traitsIcESaIcEEEEOT_RNSt16remove_referenceIS6_E4typeE
_ZSt7forwardIP11de265_imageEOT_RNSt16remove_referenceIS2_E4typeE
_ZSt7forwardIP11thread_taskEOT_RNSt16remove_referenceIS2_E4typeE
_ZSt7forwardIPvEOT_RNSt16remove_referenceIS1_E4typeE
_ZSt7forwardIR10MVTestModeEOT_RNSt16remove_referenceIS2_E4typeE
_ZSt7forwardIR12MVSearchAlgoEOT_RNSt16remove_referenceIS2_E4typeE
_ZSt7forwardIR13SOP_StructureEOT_RNSt16remove_referenceIS2_E4typeE
_ZSt7forwardIR20TBBitrateEstimMethodEOT_RNSt16remove_referenceIS2_E4typeE
_ZSt7forwardIR21ALGO_CB_IntraPartModeEOT_RNSt16remove_referenceIS2_E4typeE
_ZSt7forwardIR21ALGO_TB_IntraPredModeEOT_RNSt16remove_referenceIS2_E4typeE
_ZSt7forwardIR22ALGO_TB_RateEstimationEOT_RNSt16remove_referenceIS2_E4typeE
_ZSt7forwardIR28ALGO_TB_IntraPredMode_SubsetEOT_RNSt16remove_referenceIS2_E4typeE
_ZSt7forwardIR39ALGO_TB_Split_BruteForce_ZeroBlockPruneEOT_RNSt16remove_referenceIS2_E4typeE
_ZSt7forwardIR6MEModeEOT_RNSt16remove_referenceIS2_E4typeE
_ZSt7forwardIR8PartModeEOT_RNSt16remove_referenceIS2_E4typeE
_ZSt7forwardIRK11ref_pic_setEOT_RNSt16remove_referenceIS3_E4typeE
_ZSt7forwardIRK11sei_messageEOT_RNSt16remove_referenceIS3_E4typeE
_ZSt7forwardIRK12CodingOptionI6enc_tbEEOT_RNSt16remove_referenceIS5_E4typeE
_ZSt7forwardIRK19context_model_tableEOT_RNSt16remove_referenceIS3_E4typeE
_ZSt7forwardIRKN13CodingOptionsI6enc_cbE16CodingOptionDataEEOT_RNSt16remove_referenceIS6_E4typeE
_ZSt7forwardIRKN13CodingOptionsI6enc_tbE16CodingOptionDataEEOT_RNSt16remove_referenceIS6_E4typeE
_ZSt7forwardIRKNSt7__cxx1112basic_stringIcSt11char_traitsIcESaIcEEEEOT_RNSt16remove_referenceIS8_E4typeE
_ZSt7forwardIRKP10image_dataEOT_RNSt16remove_referenceIS4_E4typeE
_ZSt7forwardIRKP10image_unitEOT_RNSt16remove_referenceIS4_E4typeE
_ZSt7forwardIRKP10slice_unitEOT_RNSt16remove_referenceIS4_E4typeE
_ZSt7forwardIRKP11de265_imageEOT_RNSt16remove_referenceIS4_E4typeE
_ZSt7forwardIRKP11option_baseEOT_RNSt16remove_referenceIS4_E4typeE
_ZSt7forwardIRKP11thread_taskEOT_RNSt16remove_referenceIS4_E4typeE
_ZSt7forwardIRKP12en265_packetEOT_RNSt16remove_referenceIS4_E4typeE
_ZSt7forwardIRKP20slice_segment_headerEOT_RNSt16remove_referenceIS4_E4typeE
_ZSt7forwardIRKP6enc_cbEOT_RNSt16remove_referenceIS4_E4typeE
_ZSt7forwardIRKP8NAL_unitEOT_RNSt16remove_referenceIS4_E4typeE
_ZSt7forwardIRKPhEOT_RNSt16remove_referenceIS3_E4typeE
_ZSt7forwardIRKPvEOT_RNSt16remove_referenceIS3_E4typeE
_ZSt7forwardIRKSt5dequeIP10image_dataSaIS2_EEEOT_RNSt16remove_referenceIS7_E4typeE
_ZSt7forwardIRKcEOT_RNSt16remove_referenceIS2_E4typeE
_ZSt7forwardIRKiEOT_RNSt16remove_referenceIS2_E4typeE
_ZSt7forwardIRfEOT_RNSt16remove_referenceIS1_E4typeE
_ZSt7forwardIRiEOT_RNSt16remove_referenceIS1_E4typeE
_ZSt7forwardISaIP10image_dataEEOT_RNSt16remove_referenceIS3_E4typeE
_ZSt7forwardISt4pairI13IntraPredModefEEOT_RNSt16remove_referenceIS3_E4typeE
_ZSt7forwardISt4pairINSt7__cxx1112basic_stringIcSt11char_traitsIcESaIcEEE10MVTestModeEEOT_RNSt16remove_referenceIS9_E4typeE
_ZSt7forwardISt4pairINSt7__cxx1112basic_stringIcSt11char_traitsIcESaIcEEE12MVSearchAlgoEEOT_RNSt16remove_referenceIS9_E4typeE
_ZSt7forwardISt4pairINSt7__cxx1112basic_stringIcSt11char_traitsIcESaIcEEE13SOP_StructureEEOT_RNSt16remove_referenceIS9_E4typeE
_ZSt7forwardISt4pairINSt7__cxx1112basic_stringIcSt11char_traitsIcESaIcEEE20TBBitrateEstimMethodEEOT_RNSt16remove_referenceIS9_E4typeE
_ZSt7forwardISt4pairINSt7__cxx1112basic_stringIcSt11char_traitsIcESaIcEEE21ALGO_CB_IntraPartModeEEOT_RNSt16remove_referenceIS9_E4typeE
_ZSt7forwardISt4pairINSt7__cxx1112basic_stringIcSt11char_traitsIcESaIcEEE21ALGO_TB_IntraPredModeEEOT_RNSt16remove_referenceIS9_E4typeE
_ZSt7forwardISt4pairINSt7__cxx1112basic_stringIcSt11char_traitsIcESaIcEEE22ALGO_TB_RateEstimationEEOT_RNSt16remove_referenceIS9_E4typeE
_ZSt7forwardISt4pairINSt7__cxx1112basic_stringIcSt11char_traitsIcESaIcEEE28ALGO_TB_IntraPredMode_SubsetEEOT_RNSt16remove_referenceIS9_E4typeE
_ZSt7forwardISt4pairINSt7__cxx1112basic_stringIcSt11char_traitsIcESaIcEEE39ALGO_TB_Split_BruteForce_ZeroBlockPruneEEOT_RNSt16remove_referenceIS9_E4typeE
_ZSt7forwardISt4pairINSt7__cxx1112basic_stringIcSt11char_traitsIcESaIcEEE6MEModeEEOT_RNSt16remove_referenceIS9_E4typeE
_ZSt7forwardISt4pairINSt7__cxx1112basic_stringIcSt11char_traitsIcESaIcEEE8PartModeEEOT_RNSt16remove_referenceIS9_E4typeE
_ZSt7forwardISt6vectorIcSaIcEEEOT_RNSt16remove_referenceIS3_E4typeE
_ZSt7forwardIfEOT_RNSt16remove_referenceIS0_E4typeE
_ZSt7forwardIiEOT_RNSt16remove_referenceIS0_E4typeE
_ZSt7forwardIyEOT_RNSt16remove_referenceIS0_E4typeE
_ZSt8_DestroyI19context_model_tableEvPT_
_ZSt8_DestroyIN13CodingOptionsI6enc_cbE16CodingOptionDataEEvPT_
_ZSt8_DestroyIN13CodingOptionsI6enc_tbE16CodingOptionDataEEvPT_
_ZSt8_DestroyIN9__gnu_cxx17__normal_iteratorIPiSt6vectorIiSaIiEEEEEvT_S7_
_ZSt8_DestroyIN9__gnu_cxx17__normal_iteratorIPiSt6vectorIiSaIiEEEEiEvT_S7_RSaIT0_E
_ZSt8_DestroyINSt7__cxx1112basic_stringIcSt11char_traitsIcESaIcEEEEvPT_
_ZSt8_DestroyIP11ref_pic_setEvT_S2_
_ZSt8_DestroyIP11ref_pic_setS0_EvT_S2_RSaIT0_E
_ZSt8_DestroyIP11sei_messageEvT_S2_
_ZSt8_DestroyIP11sei_messageS0_EvT_S2_RSaIT0_E
_ZSt8_DestroyIP12CodingOptionI6enc_tbEEvT_S4_
_ZSt8_DestroyIP12CodingOptionI6enc_tbES2_EvT_S4_RSaIT0_E
_ZSt8_DestroyIP19context_model_tableEvT_S2_
_ZSt8_DestroyIP19context_model_tableS0_EvT_S2_RSaIT0_E
_ZSt8_DestroyIPN13CodingOptionsI6enc_cbE16CodingOptionDataEEvT_S5_
_ZSt8_DestroyIPN13CodingOptionsI6enc_cbE16CodingOptionDataES3_EvT_S5_RSaIT0_E
_ZSt8_DestroyIPN13CodingOptionsI6enc_tbE16CodingOptionDataEEvT_S5_
_ZSt8_DestroyIPN13CodingOptionsI6enc_tbE16CodingOptionDataES3_EvT_S5_RSaIT0_E
_ZSt8_DestroyIPNSt7__cxx1112basic_stringIcSt11char_traitsIcESaIcEEEEvT_S7_
_ZSt8_DestroyIPNSt7__cxx1112basic_stringIcSt11char_traitsIcESaIcEEES5_EvT_S7_RSaIT0_E
_ZSt8_DestroyIPP10image_unitEvT_S3_
_ZSt8_DestroyIPP10image_unitS1_EvT_S3_RSaIT0_E
_ZSt8_DestroyIPP10slice_unitEvT_S3_
_ZSt8_DestroyIPP10slice_unitS1_EvT_S3_RSaIT0_E
_ZSt8_DestroyIPP11de265_imageEvT_S3_
_ZSt8_DestroyIPP11de265_imageS1_EvT_S3_RSaIT0_E
_ZSt8_DestroyIPP11option_baseEvT_S3_
_ZSt8_DestroyIPP11option_baseS1_EvT_S3_RSaIT0_E
_ZSt8_DestroyIPP11thread_taskEvT_S3_
_ZSt8_DestroyIPP11thread_taskS1_EvT_S3_RSaIT0_E
_ZSt8_DestroyIPP20slice_segment_headerEvT_S3_
_ZSt8_DestroyIPP20slice_segment_headerS1_EvT_S3_RSaIT0_E
_ZSt8_DestroyIPP6enc_cbEvT_S3_
_ZSt8_DestroyIPP6enc_cbS1_EvT_S3_RSaIT0_E
_ZSt8_DestroyIPP8NAL_unitEvT_S3_
_ZSt8_DestroyIPP8NAL_unitS1_EvT_S3_RSaIT0_E
_ZSt8_DestroyIPPhEvT_S2_
_ZSt8_DestroyIPPhS0_EvT_S2_RSaIT0_E
_ZSt8_DestroyIPPvEvT_S2_
_ZSt8_DestroyIPPvS0_EvT_S2_RSaIT0_E
_ZSt8_DestroyIPSt4pairI13IntraPredModefEEvT_S4_
_ZSt8_DestroyIPSt4pairI13IntraPredModefES2_EvT_S4_RSaIT0_E
_ZSt8_DestroyIPSt4pairINSt7__cxx1112basic_stringIcSt11char_traitsIcESaIcEEE10MVTestModeEEvT_SA_
_ZSt8_DestroyIPSt4pairINSt7__cxx1112basic_stringIcSt11char_traitsIcESaIcEEE10MVTestModeES8_EvT_SA_RSaIT0_E
_ZSt8_DestroyIPSt4pairINSt7__cxx1112basic_stringIcSt11char_traitsIcESaIcEEE12MVSearchAlgoEEvT_SA_
_ZSt8_DestroyIPSt4pairINSt7__cxx1112basic_stringIcSt11char_traitsIcESaIcEEE12MVSearchAlgoES8_EvT_SA_RSaIT0_E
_ZSt8_DestroyIPSt4pairINSt7__cxx1112basic_stringIcSt11char_traitsIcESaIcEEE13SOP_StructureEEvT_SA_
_ZSt8_DestroyIPSt4pairINSt7__cxx1112basic_stringIcSt11char_traitsIcESaIcEEE13SOP_StructureES8_EvT_SA_RSaIT0_E
_ZSt8_DestroyIPSt4pairINSt7__cxx1112basic_stringIcSt11char_traitsIcESaIcEEE20TBBitrateEstimMethodEEvT_SA_
_ZSt8_DestroyIPSt4pairINSt7__cxx1112basic_stringIcSt11char_traitsIcESaIcEEE20TBBitrateEstimMethodES8_EvT_SA_RSaIT0_E
_ZSt8_DestroyIPSt4pairINSt7__cxx1112basic_stringIcSt11char_traitsIcESaIcEEE21ALGO_CB_IntraPartModeEEvT_SA_
_ZSt8_DestroyIPSt4pairINSt7__cxx1112basic_stringIcSt11char_traitsIcESaIcEEE21ALGO_CB_IntraPartModeES8_EvT_SA_RSaIT0_E
_ZSt8_DestroyIPSt4pairINSt7__cxx1112basic_stringIcSt11char_traitsIcESaIcEEE21ALGO_TB_IntraPredModeEEvT_SA_
_ZSt8_DestroyIPSt4pairINSt7__cxx1112basic_stringIcSt11char_traitsIcESaIcEEE21ALGO_TB_IntraPredModeES8_EvT_SA_RSaIT0_E
_ZSt8_DestroyIPSt4pairINSt7__cxx1112basic_stringIcSt11char_traitsIcESaIcEEE22ALGO_TB_RateEstimationEEvT_SA_
_ZSt8_DestroyIPSt4pairINSt7__cxx1112basic_stringIcSt11char_traitsIcESaIcEEE22ALGO_TB_RateEstimationES8_EvT_SA_RSaIT0_E
_ZSt8_DestroyIPSt4pairINSt7__cxx1112basic_stringIcSt11char_traitsIcESaIcEEE28ALGO_TB_IntraPredMode_SubsetEEvT_SA_
_ZSt8_DestroyIPSt4pairINSt7__cxx1112basic_stringIcSt11char_traitsIcESaIcEEE28ALGO_TB_IntraPredMode_SubsetES8_EvT_SA_RSaIT0_E
_ZSt8_DestroyIPSt4pairINSt7__cxx1112basic_stringIcSt11char_traitsIcESaIcEEE39ALGO_TB_Split_BruteForce_ZeroBlockPruneEEvT_SA_
_ZSt8_DestroyIPSt4pairINSt7__cxx1112basic_stringIcSt11char_traitsIcESaIcEEE39ALGO_TB_Split_BruteForce_ZeroBlockPruneES8_EvT_SA_RSaIT0_E
_ZSt8_DestroyIPSt4pairINSt7__cxx1112basic_stringIcSt11char_traitsIcESaIcEEE6MEModeEEvT_SA_
_ZSt8_DestroyIPSt4pairINSt7__cxx1112basic_stringIcSt11char_traitsIcESaIcEEE6MEModeES8_EvT_SA_RSaIT0_E
_ZSt8_DestroyIPSt4pairINSt7__cxx1112basic_stringIcSt11char_traitsIcESaIcEEE8PartModeEEvT_SA_
_ZSt8_DestroyIPSt4pairINSt7__cxx1112basic_stringIcSt11char_traitsIcESaIcEEE8PartModeES8_EvT_SA_RSaIT0_E
_ZSt8_DestroyIPSt6vectorIcSaIcEEEvT_S4_
_ZSt8_DestroyIPSt6vectorIcSaIcEES2_EvT_S4_RSaIT0_E
_ZSt8_DestroyIPcEvT_S1_
_ZSt8_DestroyIPccEvT_S1_RSaIT0_E
_ZSt8_DestroyIPhEvT_S1_
_ZSt8_DestroyIPhhEvT_S1_RSaIT0_E
_ZSt8_DestroyIPiEvT_S1_
_ZSt8_DestroyIPiiEvT_S1_RSaIT0_E
_ZSt8_DestroyIPtEvT_S1_
_ZSt8_DestroyIPttEvT_S1_RSaIT0_E
_ZSt8_DestroyISt15_Deque_iteratorIP10image_dataRS2_PS2_EEvT_S6_
_ZSt8_DestroyISt15_Deque_iteratorIP10image_dataRS2_PS2_ES2_EvT_S6_RSaIT0_E
_ZSt8_DestroyISt4pairINSt7__cxx1112basic_stringIcSt11char_traitsIcESaIcEEE10MVTestModeEEvPT_
_ZSt8_DestroyISt4pairINSt7__cxx1112basic_stringIcSt11char_traitsIcESaIcEEE12MVSearchAlgoEEvPT_
_ZSt8_DestroyISt4pairINSt7__cxx1112basic_stringIcSt11char_traitsIcESaIcEEE13SOP_StructureEEvPT_
_ZSt8_DestroyISt4pairINSt7__cxx1112basic_stringIcSt11char_traitsIcESaIcEEE20TBBitrateEstimMethodEEvPT_
_ZSt8_DestroyISt4pairINSt7__cxx1112basic_stringIcSt11char_traitsIcESaIcEEE21ALGO_CB_IntraPartModeEEvPT_
_ZSt8_DestroyISt4pairINSt7__cxx1112basic_stringIcSt11char_traitsIcESaIcEEE21ALGO_TB_IntraPredModeEEvPT_
_ZSt8_DestroyISt4pairINSt7__cxx1112basic_stringIcSt11char_traitsIcESaIcEEE22ALGO_TB_RateEstimationEEvPT_
_ZSt8_DestroyISt4pairINSt7__cxx1112basic_stringIcSt11char_traitsIcESaIcEEE28ALGO_TB_IntraPredMode_SubsetEEvPT_
_ZSt8_DestroyISt4pairINSt7__cxx1112basic_stringIcSt11char_traitsIcESaIcEEE39ALGO_TB_Split_BruteForce_ZeroBlockPruneEEvPT_
_ZSt8_DestroyISt4pairINSt7__cxx1112basic_stringIcSt11char_traitsIcESaIcEEE6MEModeEEvPT_
_ZSt8_DestroyISt4pairINSt7__cxx1112basic_stringIcSt11char_traitsIcESaIcEEE8PartModeEEvPT_
_ZSt8_DestroyISt6vectorIcSaIcEEEvPT_
_ZSt8__fill_aIPP6enc_cbS1_EN9__gnu_cxx11__enable_ifIXsrSt11__is_scalarIT0_E7__valueEvE6__typeET_SA_RKS6_
_ZSt8__fill_aIcEN9__gnu_cxx11__enable_ifIXsrSt9__is_byteIT_E7__valueEvE6__typeEPS3_S7_RKS3_
_ZSt8__fill_aIhEN9__gnu_cxx11__enable_ifIXsrSt9__is_byteIT_E7__valueEvE6__typeEPS3_S7_RKS3_
_ZSt8distanceISt15_Deque_iteratorIP10image_dataRKS2_PS3_EENSt15iterator_traitsIT_E15difference_typeES8_S8_
_ZSt9__advanceISt15_Deque_iteratorIP10image_dataRKS2_PS3_ExEvRT_T0_St26random_access_iterator_tag
_ZSt9__find_ifIN9__gnu_cxx17__normal_iteratorIPKiSt6vectorIiSaIiEEEENS0_5__ops16_Iter_equals_valIS2_EEET_SB_SB_T0_
_ZSt9__find_ifIN9__gnu_cxx17__normal_iteratorIPKiSt6vectorIiSaIiEEEENS0_5__ops16_Iter_equals_valIS2_EEET_SB_SB_T0_St26random_access_iterator_tag
_ZSt9addressofIP6enc_cbEPT_RS2_
_ZSt9addressofIcEPT_RS0_
_ZSt9iter_swapIN9__gnu_cxx17__normal_iteratorIPSt4pairI13IntraPredModefESt6vectorIS4_SaIS4_EEEES9_EvT_T0_
_ZSt9make_pairI13IntraPredModeRfESt4pairINSt17__decay_and_stripIT_E6__typeENS3_IT0_E6__typeEEOS4_OS7_
_ZSt9make_pairI13IntraPredModeiESt4pairINSt17__decay_and_stripIT_E6__typeENS2_IT0_E6__typeEEOS3_OS6_
_ZSt9make_pairIRKNSt7__cxx1112basic_stringIcSt11char_traitsIcESaIcEEER10MVTestModeESt4pairINSt17__decay_and_stripIT_E6__typeENSB_IT0_E6__typeEEOSC_OSF_
_ZSt9make_pairIRKNSt7__cxx1112basic_stringIcSt11char_traitsIcESaIcEEER12MVSearchAlgoESt4pairINSt17__decay_and_stripIT_E6__typeENSB_IT0_E6__typeEEOSC_OSF_
_ZSt9make_pairIRKNSt7__cxx1112basic_stringIcSt11char_traitsIcESaIcEEER13SOP_StructureESt4pairINSt17__decay_and_stripIT_E6__typeENSB_IT0_E6__typeEEOSC_OSF_
_ZSt9make_pairIRKNSt7__cxx1112basic_stringIcSt11char_traitsIcESaIcEEER20TBBitrateEstimMethodESt4pairINSt17__decay_and_stripIT_E6__typeENSB_IT0_E6__typeEEOSC_OSF_
_ZSt9make_pairIRKNSt7__cxx1112basic_stringIcSt11char_traitsIcESaIcEEER21ALGO_CB_IntraPartModeESt4pairINSt17__decay_and_stripIT_E6__typeENSB_IT0_E6__typeEEOSC_OSF_
_ZSt9make_pairIRKNSt7__cxx1112basic_stringIcSt11char_traitsIcESaIcEEER21ALGO_TB_IntraPredModeESt4pairINSt17__decay_and_stripIT_E6__typeENSB_IT0_E6__typeEEOSC_OSF_
_ZSt9make_pairIRKNSt7__cxx1112basic_stringIcSt11char_traitsIcESaIcEEER22ALGO_TB_RateEstimationESt4pairINSt17__decay_and_stripIT_E6__typeENSB_IT0_E6__typeEEOSC_OSF_
_ZSt9make_pairIRKNSt7__cxx1112basic_stringIcSt11char_traitsIcESaIcEEER28ALGO_TB_IntraPredMode_SubsetESt4pairINSt17__decay_and_stripIT_E6__typeENSB_IT0_E6__typeEEOSC_OSF_
_ZSt9make_pairIRKNSt7__cxx1112basic_stringIcSt11char_traitsIcESaIcEEER39ALGO_TB_Split_BruteForce_ZeroBlockPruneESt4pairINSt17__decay_and_stripIT_E6__typeENSB_IT0_E6__typeEEOSC_OSF_
_ZSt9make_pairIRKNSt7__cxx1112basic_stringIcSt11char_traitsIcESaIcEEER6MEModeESt4pairINSt17__decay_and_stripIT_E6__typeENSB_IT0_E6__typeEEOSC_OSF_
_ZSt9make_pairIRKNSt7__cxx1112basic_stringIcSt11char_traitsIcESaIcEEER8PartModeESt4pairINSt17__decay_and_stripIT_E6__typeENSB_IT0_E6__typeEEOSC_OSF_
_ZStaNRSt13_Ios_FmtflagsS_
_ZStanSt13_Ios_FmtflagsS_
_ZStcoSt13_Ios_Fmtflags
_ZSteqI17seq_parameter_setEbRKSt10shared_ptrIT_EDn
_ZSteqIK17seq_parameter_setEbRKSt10shared_ptrIT_EDn
_ZSteqIP10image_dataRS1_PS1_EbRKSt15_Deque_iteratorIT_T0_T1_ESA_
_ZSteqIP12CodingOptionI6enc_tbEEbRKSt13move_iteratorIT_ES8_
_ZSteqIP12en265_packetRS1_PS1_EbRKSt15_Deque_iteratorIT_T0_T1_ESA_
_ZSteqIP8NAL_unitRS1_PS1_EbRKSt15_Deque_iteratorIT_T0_T1_ESA_
_ZSteqIPNSt7__cxx1112basic_stringIcSt11char_traitsIcESaIcEEEEbRKSt13move_iteratorIT_ESB_
_ZSteqIPSt4pairI13IntraPredModefEEbRKSt13move_iteratorIT_ES8_
_ZSteqIPSt4pairINSt7__cxx1112basic_stringIcSt11char_traitsIcESaIcEEE10MVTestModeEEbRKSt13move_iteratorIT_ESE_
_ZSteqIPSt4pairINSt7__cxx1112basic_stringIcSt11char_traitsIcESaIcEEE12MVSearchAlgoEEbRKSt13move_iteratorIT_ESE_
_ZSteqIPSt4pairINSt7__cxx1112basic_stringIcSt11char_traitsIcESaIcEEE13SOP_StructureEEbRKSt13move_iteratorIT_ESE_
_ZSteqIPSt4pairINSt7__cxx1112basic_stringIcSt11char_traitsIcESaIcEEE20TBBitrateEstimMethodEEbRKSt13move_iteratorIT_ESE_
_ZSteqIPSt4pairINSt7__cxx1112basic_stringIcSt11char_traitsIcESaIcEEE21ALGO_CB_IntraPartModeEEbRKSt13move_iteratorIT_ESE_
_ZSteqIPSt4pairINSt7__cxx1112basic_stringIcSt11char_traitsIcESaIcEEE21ALGO_TB_IntraPredModeEEbRKSt13move_iteratorIT_ESE_
_ZSteqIPSt4pairINSt7__cxx1112basic_stringIcSt11char_traitsIcESaIcEEE22ALGO_TB_RateEstimationEEbRKSt13move_iteratorIT_ESE_
_ZSteqIPSt4pairINSt7__cxx1112basic_stringIcSt11char_traitsIcESaIcEEE28ALGO_TB_IntraPredMode_SubsetEEbRKSt13move_iteratorIT_ESE_
_ZSteqIPSt4pairINSt7__cxx1112basic_stringIcSt11char_traitsIcESaIcEEE39ALGO_TB_Split_BruteForce_ZeroBlockPruneEEbRKSt13move_iteratorIT_ESE_
_ZSteqIPSt4pairINSt7__cxx1112basic_stringIcSt11char_traitsIcESaIcEEE6MEModeEEbRKSt13move_iteratorIT_ESE_
_ZSteqIPSt4pairINSt7__cxx1112basic_stringIcSt11char_traitsIcESaIcEEE8PartModeEEbRKSt13move_iteratorIT_ESE_
_ZSteqIPSt6vectorIcSaIcEEEbRKSt13move_iteratorIT_ES8_
_ZSteqIcEN9__gnu_cxx11__enable_ifIXsrSt9__is_charIT_E7__valueEbE6__typeERKNSt7__cxx1112basic_stringIS3_St11char_traitsIS3_ESaIS3_EEESE_
_ZStmiIP10image_dataRKS1_PS2_ENSt15_Deque_iteratorIT_T0_T1_E15difference_typeERKS9_SC_
_ZStmiIP10image_dataRS1_PS1_ENSt15_Deque_iteratorIT_T0_T1_E15difference_typeERKS8_SB_
_ZStmiIP11de265_imageRS1_PS1_ENSt15_Deque_iteratorIT_T0_T1_E15difference_typeERKS8_SB_
_ZStmiIP11thread_taskRS1_PS1_ENSt15_Deque_iteratorIT_T0_T1_E15difference_typeERKS8_SB_
_ZStmiIP12en265_packetRS1_PS1_ENSt15_Deque_iteratorIT_T0_T1_E15difference_typeERKS8_SB_
_ZStmiIP8NAL_unitRS1_PS1_ENSt15_Deque_iteratorIT_T0_T1_E15difference_typeERKS8_SB_
_ZStneIP10image_dataEbRKSaIT_ES5_
_ZStneIP10image_dataRS1_PS1_EbRKSt15_Deque_iteratorIT_T0_T1_ESA_
_ZStneIP12CodingOptionI6enc_tbEEbRKSt13move_iteratorIT_ES8_
_ZStneIPNSt7__cxx1112basic_stringIcSt11char_traitsIcESaIcEEEEbRKSt13move_iteratorIT_ESB_
_ZStneIPSt4pairI13IntraPredModefEEbRKSt13move_iteratorIT_ES8_
_ZStneIPSt4pairINSt7__cxx1112basic_stringIcSt11char_traitsIcESaIcEEE10MVTestModeEEbRKSt13move_iteratorIT_ESE_
_ZStneIPSt4pairINSt7__cxx1112basic_stringIcSt11char_traitsIcESaIcEEE12MVSearchAlgoEEbRKSt13move_iteratorIT_ESE_
_ZStneIPSt4pairINSt7__cxx1112basic_stringIcSt11char_traitsIcESaIcEEE13SOP_StructureEEbRKSt13move_iteratorIT_ESE_
_ZStneIPSt4pairINSt7__cxx1112basic_stringIcSt11char_traitsIcESaIcEEE20TBBitrateEstimMethodEEbRKSt13move_iteratorIT_ESE_
_ZStneIPSt4pairINSt7__cxx1112basic_stringIcSt11char_traitsIcESaIcEEE21ALGO_CB_IntraPartModeEEbRKSt13move_iteratorIT_ESE_
_ZStneIPSt4pairINSt7__cxx1112basic_stringIcSt11char_traitsIcESaIcEEE21ALGO_TB_IntraPredModeEEbRKSt13move_iteratorIT_ESE_
_ZStneIPSt4pairINSt7__cxx1112basic_stringIcSt11char_traitsIcESaIcEEE22ALGO_TB_RateEstimationEEbRKSt13move_iteratorIT_ESE_
_ZStneIPSt4pairINSt7__cxx1112basic_stringIcSt11char_traitsIcESaIcEEE28ALGO_TB_IntraPredMode_SubsetEEbRKSt13move_iteratorIT_ESE_
_ZStneIPSt4pairINSt7__cxx1112basic_stringIcSt11char_traitsIcESaIcEEE39ALGO_TB_Split_BruteForce_ZeroBlockPruneEEbRKSt13move_iteratorIT_ESE_
_ZStneIPSt4pairINSt7__cxx1112basic_stringIcSt11char_traitsIcESaIcEEE6MEModeEEbRKSt13move_iteratorIT_ESE_
_ZStneIPSt4pairINSt7__cxx1112basic_stringIcSt11char_traitsIcESaIcEEE8PartModeEEbRKSt13move_iteratorIT_ESE_
_ZStneIPSt6vectorIcSaIcEEEbRKSt13move_iteratorIT_ES8_
_ZStneIiEbRKSaIT_ES3_
_ZStoRRSt13_Ios_FmtflagsS_
_ZStorSt13_Ios_FmtflagsS_
_ZStorSt13_Ios_OpenmodeS_
_ZStplIcSt11char_traitsIcESaIcEENSt7__cxx1112basic_stringIT_T0_T1_EERKS8_PKS5_
_ZStplIcSt11char_traitsIcESaIcEENSt7__cxx1112basic_stringIT_T0_T1_EERKS8_SA_
_ZTI10Algo_PB_MV DATA
_ZTI10PacketSink DATA
_ZTI10option_int DATA
_ZTI11EncoderCore DATA
_ZTI11ImageSource DATA
_ZTI11error_queue DATA
_ZTI11option_base DATA
_ZTI11option_bool DATA
_ZTI11sop_creator DATA
_ZTI11thread_task DATA
_ZTI12Algo_CB_Skip DATA
_ZTI12base_context DATA
_ZTI13Algo_CB_Split DATA
_ZTI13Algo_TB_Split DATA
_ZTI13CABAC_encoder DATA
_ZTI13ImageSink_YUV DATA
_ZTI13choice_optionI10MVTestModeE DATA
_ZTI13choice_optionI12MVSearchAlgoE DATA
_ZTI13choice_optionI13SOP_StructureE DATA
_ZTI13choice_optionI20TBBitrateEstimMethodE DATA
_ZTI13choice_optionI21ALGO_CB_IntraPartModeE DATA
_ZTI13choice_optionI21ALGO_TB_IntraPredModeE DATA
_ZTI13choice_optionI22ALGO_TB_RateEstimationE DATA
_ZTI13choice_optionI28ALGO_TB_IntraPredMode_SubsetE DATA
_ZTI13choice_optionI39ALGO_TB_Split_BruteForce_ZeroBlockPruneE DATA
_ZTI13choice_optionI6MEModeE DATA
_ZTI13choice_optionI8PartModeE DATA
_ZTI13option_MEMode DATA
_ZTI13option_string DATA
_ZTI15Algo_CTB_QScale DATA
_ZTI15Algo_PB_MV_Test DATA
_ZTI15ImageSource_YUV DATA
_ZTI15PacketSink_File DATA
_ZTI15decoder_context DATA
_ZTI15encoder_context DATA
_ZTI15option_PartMode DATA
_ZTI15thread_task_sao DATA
_ZTI16Algo_TB_Residual DATA
_ZTI16Logging_TB_Split DATA
_ZTI17Algo_PB_MV_Search DATA
_ZTI17Algo_TB_Transform DATA
_ZTI17option_MVTestMode DATA
_ZTI17pic_order_counter DATA
_ZTI18Algo_CB_IntraInter DATA
_ZTI18Algo_CB_MergeIndex DATA
_ZTI18EncoderCore_Custom DATA
_ZTI18choice_option_base DATA
_ZTI19CABAC_encoder_estim DATA
_ZTI19option_MVSearchAlgo DATA
_ZTI19thread_task_ctb_row DATA
_ZTI20option_InterPartMode DATA
_ZTI20option_SOP_Structure DATA
_ZTI21Algo_CB_InterPartMode DATA
_ZTI21Algo_CB_IntraPartMode DATA
_ZTI21Algo_TB_IntraPredMode DATA
_ZTI22Algo_TB_RateEstimation DATA
_ZTI22sop_creator_intra_only DATA
_ZTI23Algo_CB_Skip_BruteForce DATA
_ZTI23CABAC_encoder_bitstream DATA
_ZTI24Algo_CB_MergeIndex_Fixed DATA
_ZTI24Algo_CB_Split_BruteForce DATA
_ZTI24Algo_CTB_QScale_Constant DATA
_ZTI24Algo_TB_Split_BruteForce DATA
_ZTI25thread_task_slice_segment DATA
_ZTI26thread_task_deblock_CTBRow DATA
_ZTI27Algo_CB_InterPartMode_Fixed DATA
_ZTI27Algo_CB_IntraPartMode_Fixed DATA
_ZTI27Algo_TB_RateEstimation_None DATA
_ZTI27option_TBBitrateEstimMethod DATA
_ZTI28Algo_TB_RateEstimation_Exact DATA
_ZTI28CABAC_encoder_estim_constant DATA
_ZTI28option_ALGO_CB_IntraPartMode DATA
_ZTI28option_ALGO_TB_IntraPredMode DATA
_ZTI29Algo_CB_IntraInter_BruteForce DATA
_ZTI29option_ALGO_TB_RateEstimation DATA
_ZTI29sop_creator_trivial_low_delay DATA
_ZTI31Algo_TB_IntraPredMode_FastBrute DATA
_ZTI32Algo_CB_IntraPartMode_BruteForce DATA
_ZTI32Algo_TB_IntraPredMode_BruteForce DATA
_ZTI32Algo_TB_IntraPredMode_ModeSubset DATA
_ZTI33Algo_TB_IntraPredMode_MinResidual DATA
_ZTI35option_ALGO_TB_IntraPredMode_Subset DATA
_ZTI46option_ALGO_TB_Split_BruteForce_ZeroBlockPrune DATA
_ZTI4Algo DATA
_ZTI6enc_cb DATA
_ZTI6enc_tb DATA
_ZTI7Algo_CB DATA
_ZTI7Algo_PB DATA
_ZTI7Logging DATA
_ZTI8enc_node DATA
_ZTI9ImageSink DATA
_ZTISt11_Mutex_baseILN9__gnu_cxx12_Lock_policyE2EE DATA
_ZTISt15_Sp_counted_ptrIP22sop_creator_intra_onlyLN9__gnu_cxx12_Lock_policyE2EE DATA
_ZTISt15_Sp_counted_ptrIP29sop_creator_trivial_low_delayLN9__gnu_cxx12_Lock_policyE2EE DATA
_ZTISt16_Sp_counted_baseILN9__gnu_cxx12_Lock_policyE2EE DATA
_ZTISt19_Sp_make_shared_tag DATA
_ZTISt23_Sp_counted_ptr_inplaceI17pic_parameter_setSaIS0_ELN9__gnu_cxx12_Lock_policyE2EE DATA
_ZTISt23_Sp_counted_ptr_inplaceI17seq_parameter_setSaIS0_ELN9__gnu_cxx12_Lock_policyE2EE DATA
_ZTISt23_Sp_counted_ptr_inplaceI18small_image_bufferSaIS0_ELN9__gnu_cxx12_Lock_policyE2EE DATA
_ZTISt23_Sp_counted_ptr_inplaceI19video_parameter_setSaIS0_ELN9__gnu_cxx12_Lock_policyE2EE DATA
_ZTS10Algo_PB_MV DATA
_ZTS10PacketSink DATA
_ZTS10option_int DATA
_ZTS11EncoderCore DATA
_ZTS11ImageSource DATA
_ZTS11error_queue DATA
_ZTS11option_base DATA
_ZTS11option_bool DATA
_ZTS11sop_creator DATA
_ZTS11thread_task DATA
_ZTS12Algo_CB_Skip DATA
_ZTS12base_context DATA
_ZTS13Algo_CB_Split DATA
_ZTS13Algo_TB_Split DATA
_ZTS13CABAC_encoder DATA
_ZTS13ImageSink_YUV DATA
_ZTS13choice_optionI10MVTestModeE DATA
_ZTS13choice_optionI12MVSearchAlgoE DATA
_ZTS13choice_optionI13SOP_StructureE DATA
_ZTS13choice_optionI20TBBitrateEstimMethodE DATA
_ZTS13choice_optionI21ALGO_CB_IntraPartModeE DATA
_ZTS13choice_optionI21ALGO_TB_IntraPredModeE DATA
_ZTS13choice_optionI22ALGO_TB_RateEstimationE DATA
_ZTS13choice_optionI28ALGO_TB_IntraPredMode_SubsetE DATA
_ZTS13choice_optionI39ALGO_TB_Split_BruteForce_ZeroBlockPruneE DATA
_ZTS13choice_optionI6MEModeE DATA
_ZTS13choice_optionI8PartModeE DATA
_ZTS13option_MEMode DATA
_ZTS13option_string DATA
_ZTS15Algo_CTB_QScale DATA
_ZTS15Algo_PB_MV_Test DATA
_ZTS15ImageSource_YUV DATA
_ZTS15PacketSink_File DATA
_ZTS15decoder_context DATA
_ZTS15encoder_context DATA
_ZTS15option_PartMode DATA
_ZTS15thread_task_sao DATA
_ZTS16Algo_TB_Residual DATA
_ZTS16Logging_TB_Split DATA
_ZTS17Algo_PB_MV_Search DATA
_ZTS17Algo_TB_Transform DATA
_ZTS17option_MVTestMode DATA
_ZTS17pic_order_counter DATA
_ZTS18Algo_CB_IntraInter DATA
_ZTS18Algo_CB_MergeIndex DATA
_ZTS18EncoderCore_Custom DATA
_ZTS18choice_option_base DATA
_ZTS19CABAC_encoder_estim DATA
_ZTS19option_MVSearchAlgo DATA
_ZTS19thread_task_ctb_row DATA
_ZTS20option_InterPartMode DATA
_ZTS20option_SOP_Structure DATA
_ZTS21Algo_CB_InterPartMode DATA
_ZTS21Algo_CB_IntraPartMode DATA
_ZTS21Algo_TB_IntraPredMode DATA
_ZTS22Algo_TB_RateEstimation DATA
_ZTS22sop_creator_intra_only DATA
_ZTS23Algo_CB_Skip_BruteForce DATA
_ZTS23CABAC_encoder_bitstream DATA
_ZTS24Algo_CB_MergeIndex_Fixed DATA
_ZTS24Algo_CB_Split_BruteForce DATA
_ZTS24Algo_CTB_QScale_Constant DATA
_ZTS24Algo_TB_Split_BruteForce DATA
_ZTS25thread_task_slice_segment DATA
_ZTS26thread_task_deblock_CTBRow DATA
_ZTS27Algo_CB_InterPartMode_Fixed DATA
_ZTS27Algo_CB_IntraPartMode_Fixed DATA
_ZTS27Algo_TB_RateEstimation_None DATA
_ZTS27option_TBBitrateEstimMethod DATA
_ZTS28Algo_TB_RateEstimation_Exact DATA
_ZTS28CABAC_encoder_estim_constant DATA
_ZTS28option_ALGO_CB_IntraPartMode DATA
_ZTS28option_ALGO_TB_IntraPredMode DATA
_ZTS29Algo_CB_IntraInter_BruteForce DATA
_ZTS29option_ALGO_TB_RateEstimation DATA
_ZTS29sop_creator_trivial_low_delay DATA
_ZTS31Algo_TB_IntraPredMode_FastBrute DATA
_ZTS32Algo_CB_IntraPartMode_BruteForce DATA
_ZTS32Algo_TB_IntraPredMode_BruteForce DATA
_ZTS32Algo_TB_IntraPredMode_ModeSubset DATA
_ZTS33Algo_TB_IntraPredMode_MinResidual DATA
_ZTS35option_ALGO_TB_IntraPredMode_Subset DATA
_ZTS46option_ALGO_TB_Split_BruteForce_ZeroBlockPrune DATA
_ZTS4Algo DATA
_ZTS6enc_cb DATA
_ZTS6enc_tb DATA
_ZTS7Algo_CB DATA
_ZTS7Algo_PB DATA
_ZTS7Logging DATA
_ZTS8enc_node DATA
_ZTS9ImageSink DATA
_ZTSSt11_Mutex_baseILN9__gnu_cxx12_Lock_policyE2EE DATA
_ZTSSt15_Sp_counted_ptrIP22sop_creator_intra_onlyLN9__gnu_cxx12_Lock_policyE2EE DATA
_ZTSSt15_Sp_counted_ptrIP29sop_creator_trivial_low_delayLN9__gnu_cxx12_Lock_policyE2EE DATA
_ZTSSt16_Sp_counted_baseILN9__gnu_cxx12_Lock_policyE2EE DATA
_ZTSSt19_Sp_make_shared_tag DATA
_ZTSSt23_Sp_counted_ptr_inplaceI17pic_parameter_setSaIS0_ELN9__gnu_cxx12_Lock_policyE2EE DATA
_ZTSSt23_Sp_counted_ptr_inplaceI17seq_parameter_setSaIS0_ELN9__gnu_cxx12_Lock_policyE2EE DATA
_ZTSSt23_Sp_counted_ptr_inplaceI18small_image_bufferSaIS0_ELN9__gnu_cxx12_Lock_policyE2EE DATA
_ZTSSt23_Sp_counted_ptr_inplaceI19video_parameter_setSaIS0_ELN9__gnu_cxx12_Lock_policyE2EE DATA
_ZTV10Algo_PB_MV DATA
_ZTV10PacketSink DATA
_ZTV10option_int DATA
_ZTV11EncoderCore DATA
_ZTV11ImageSource DATA
_ZTV11option_base DATA
_ZTV11sop_creator DATA
_ZTV11thread_task DATA
_ZTV12Algo_CB_Skip DATA
_ZTV12base_context DATA
_ZTV13Algo_CB_Split DATA
_ZTV13Algo_TB_Split DATA
_ZTV13CABAC_encoder DATA
_ZTV13ImageSink_YUV DATA
_ZTV13choice_optionI10MVTestModeE DATA
_ZTV13choice_optionI12MVSearchAlgoE DATA
_ZTV13choice_optionI13SOP_StructureE DATA
_ZTV13choice_optionI20TBBitrateEstimMethodE DATA
_ZTV13choice_optionI21ALGO_CB_IntraPartModeE DATA
_ZTV13choice_optionI21ALGO_TB_IntraPredModeE DATA
_ZTV13choice_optionI22ALGO_TB_RateEstimationE DATA
_ZTV13choice_optionI28ALGO_TB_IntraPredMode_SubsetE DATA
_ZTV13choice_optionI39ALGO_TB_Split_BruteForce_ZeroBlockPruneE DATA
_ZTV13choice_optionI6MEModeE DATA
_ZTV13choice_optionI8PartModeE DATA
_ZTV13option_MEMode DATA
_ZTV13option_string DATA
_ZTV15Algo_CTB_QScale DATA
_ZTV15Algo_PB_MV_Test DATA
_ZTV15ImageSource_YUV DATA
_ZTV15PacketSink_File DATA
_ZTV15decoder_context DATA
_ZTV15encoder_context DATA
_ZTV15option_PartMode DATA
_ZTV15thread_task_sao DATA
_ZTV16Algo_TB_Residual DATA
_ZTV16Logging_TB_Split DATA
_ZTV17Algo_PB_MV_Search DATA
_ZTV17Algo_TB_Transform DATA
_ZTV17option_MVTestMode DATA
_ZTV18Algo_CB_IntraInter DATA
_ZTV18Algo_CB_MergeIndex DATA
_ZTV18EncoderCore_Custom DATA
_ZTV18choice_option_base DATA
_ZTV19CABAC_encoder_estim DATA
_ZTV19option_MVSearchAlgo DATA
_ZTV19thread_task_ctb_row DATA
_ZTV20option_InterPartMode DATA
_ZTV20option_SOP_Structure DATA
_ZTV21Algo_CB_InterPartMode DATA
_ZTV21Algo_CB_IntraPartMode DATA
_ZTV21Algo_TB_IntraPredMode DATA
_ZTV22Algo_TB_RateEstimation DATA
_ZTV22sop_creator_intra_only DATA
_ZTV23Algo_CB_Skip_BruteForce DATA
_ZTV23CABAC_encoder_bitstream DATA
_ZTV24Algo_CB_MergeIndex_Fixed DATA
_ZTV24Algo_CB_Split_BruteForce DATA
_ZTV24Algo_CTB_QScale_Constant DATA
_ZTV24Algo_TB_Split_BruteForce DATA
_ZTV25thread_task_slice_segment DATA
_ZTV26thread_task_deblock_CTBRow DATA
_ZTV27Algo_CB_InterPartMode_Fixed DATA
_ZTV27Algo_CB_IntraPartMode_Fixed DATA
_ZTV27Algo_TB_RateEstimation_None DATA
_ZTV27option_TBBitrateEstimMethod DATA
_ZTV28Algo_TB_RateEstimation_Exact DATA
_ZTV28CABAC_encoder_estim_constant DATA
_ZTV28option_ALGO_CB_IntraPartMode DATA
_ZTV28option_ALGO_TB_IntraPredMode DATA
_ZTV29Algo_CB_IntraInter_BruteForce DATA
_ZTV29option_ALGO_TB_RateEstimation DATA
_ZTV29sop_creator_trivial_low_delay DATA
_ZTV31Algo_TB_IntraPredMode_FastBrute DATA
_ZTV32Algo_CB_IntraPartMode_BruteForce DATA
_ZTV32Algo_TB_IntraPredMode_BruteForce DATA
_ZTV32Algo_TB_IntraPredMode_ModeSubset DATA
_ZTV33Algo_TB_IntraPredMode_MinResidual DATA
_ZTV35option_ALGO_TB_IntraPredMode_Subset DATA
_ZTV46option_ALGO_TB_Split_BruteForce_ZeroBlockPrune DATA
_ZTV4Algo DATA
_ZTV6enc_cb DATA
_ZTV6enc_tb DATA
_ZTV7Algo_CB DATA
_ZTV7Algo_PB DATA
_ZTV7Logging DATA
_ZTV8enc_node DATA
_ZTV9ImageSink DATA
_ZTVSt15_Sp_counted_ptrIP22sop_creator_intra_onlyLN9__gnu_cxx12_Lock_policyE2EE DATA
_ZTVSt15_Sp_counted_ptrIP29sop_creator_trivial_low_delayLN9__gnu_cxx12_Lock_policyE2EE DATA
_ZTVSt16_Sp_counted_baseILN9__gnu_cxx12_Lock_policyE2EE DATA
_ZTVSt23_Sp_counted_ptr_inplaceI17pic_parameter_setSaIS0_ELN9__gnu_cxx12_Lock_policyE2EE DATA
_ZTVSt23_Sp_counted_ptr_inplaceI17seq_parameter_setSaIS0_ELN9__gnu_cxx12_Lock_policyE2EE DATA
_ZTVSt23_Sp_counted_ptr_inplaceI18small_image_bufferSaIS0_ELN9__gnu_cxx12_Lock_policyE2EE DATA
_ZTVSt23_Sp_counted_ptr_inplaceI19video_parameter_setSaIS0_ELN9__gnu_cxx12_Lock_policyE2EE DATA
_ZdlPvS_
_ZnwyPv
allocCB DATA
allocTB DATA
ctxIdxLookup DATA
de265_alloc_image_plane
de265_change_framerate
de265_decode
de265_decode_data
de265_disable_logging
de265_flush_data
de265_free
de265_free_decoder
de265_free_image_plane
de265_get_bits_per_pixel
de265_get_chroma_format
de265_get_current_TID
de265_get_default_image_allocation_functions
de265_get_error_text
de265_get_highest_TID
de265_get_image_NAL_header
de265_get_image_PTS
de265_get_image_height
de265_get_image_plane
de265_get_image_plane_user_data
de265_get_image_user_data
de265_get_image_width
de265_get_next_picture
de265_get_number_of_NAL_units_pending
de265_get_number_of_input_bytes_pending
de265_get_parameter_bool
de265_get_version
de265_get_version_number
de265_get_version_number_maintenance
de265_get_version_number_major
de265_get_version_number_minor
de265_get_warning
de265_init
de265_isOK
de265_new_decoder
de265_peek_next_picture
de265_push_NAL
de265_push_data
de265_push_end_of_NAL
de265_push_end_of_frame
de265_release_next_picture
de265_reset
de265_set_framerate_ratio
de265_set_image_allocation_functions
de265_set_image_plane
de265_set_image_user_data
de265_set_limit_TID
de265_set_parameter_bool
de265_set_parameter_int
de265_set_verbosity
de265_start_worker_threads
draw_CB_grid
draw_Motion
draw_PB_grid
draw_PB_pred_modes
draw_QuantPY
draw_Slices
draw_TB_grid
draw_Tiles
draw_intra_pred_modes
en265_allocate_image
en265_block_on_input_queue_length
en265_current_input_queue_length
en265_encode
en265_free_encoder
en265_free_packet
en265_get_encoder_state
en265_get_image_spec
en265_get_packet
en265_get_parameter_type
en265_list_parameter_choices
en265_list_parameters
en265_new_encoder
en265_number_of_queued_packets
en265_parse_command_line_parameters
en265_push_eof
en265_push_image
en265_set_image_release_function
en265_set_parameter_bool
en265_set_parameter_choice
en265_set_parameter_int
en265_set_parameter_string
en265_show_parameters
en265_start_encoder
en265_trim_input_queue
intraPredAngle_table DATA
logging_tb_split DATA
tab8_22 DATA
win32_cond_broadcast
win32_cond_destroy
win32_cond_init
win32_cond_signal
win32_cond_wait
