;
; Definition file of libheif.dll
; Automatic generated by gendef
; written by Kai Tietz 2008
;
LIBRARY "libheif.dll"
EXPORTS
_Z11from_fourccPKc
_Z13parse_booleanPKc
_Z27get_decoder_plugin_libde265v
_ZN12ImageOverlay5parseEyRKSt6vectorIhSaIhEE
_ZN12heif_encoder5allocEv
_ZN12heif_encoder7releaseEv
_ZN12heif_encoderC1ESt10shared_ptrIN4heif11HeifContextEEPK19heif_encoder_plugin
_ZN12heif_encoderC2ESt10shared_ptrIN4heif11HeifContextEEPK19heif_encoder_plugin
_ZN12heif_encoderD1Ev
_ZN12heif_encoderD2Ev
_ZN4heif11HeifContext12encode_imageESt10shared_ptrINS_14HeifPixelImageEEP12heif_encoderPK21heif_encoding_options22heif_image_input_classRS1_INS0_5ImageEE
_ZN4heif11HeifContext14read_from_fileEPKc
_ZN4heif11HeifContext16add_XMP_metadataESt10shared_ptrINS0_5ImageEEPKvi
_ZN4heif11HeifContext16assign_thumbnailESt10shared_ptrINS0_5ImageEES3_
_ZN4heif11HeifContext16encode_thumbnailESt10shared_ptrINS_14HeifPixelImageEEP12heif_encoderPK21heif_encoding_optionsiRS1_INS0_5ImageEE
_ZN4heif11HeifContext16read_from_memoryEPKvyb
_ZN4heif11HeifContext16register_decoderEPK19heif_decoder_plugin
_ZN4heif11HeifContext16set_primary_itemEj
_ZN4heif11HeifContext17add_exif_metadataESt10shared_ptrINS0_5ImageEEPKvi
_ZN4heif11HeifContext17set_primary_imageESt10shared_ptrINS0_5ImageEE
_ZN4heif11HeifContext19interpret_heif_fileEv
_ZN4heif11HeifContext19reset_to_empty_heifEv
_ZN4heif11HeifContext22remove_top_level_imageESt10shared_ptrINS0_5ImageEE
_ZN4heif11HeifContext4readESt10shared_ptrINS_12StreamReaderEE
_ZN4heif11HeifContext5Image20encode_image_as_hevcESt10shared_ptrINS_14HeifPixelImageEEP12heif_encoderPK21heif_encoding_options22heif_image_input_class
_ZN4heif11HeifContext5Image25set_preencoded_hevc_imageERKSt6vectorIhSaIhEE
_ZN4heif11HeifContext5ImageC1EPS0_j
_ZN4heif11HeifContext5ImageC2EPS0_j
_ZN4heif11HeifContext5ImageD1Ev
_ZN4heif11HeifContext5ImageD2Ev
_ZN4heif11HeifContext5writeERNS_12StreamWriterE
_ZN4heif11HeifContextC1Ev
_ZN4heif11HeifContextC2Ev
_ZN4heif11HeifContextD1Ev
_ZN4heif11HeifContextD2Ev
_ZN4heif11get_decoderE23heif_compression_format
_ZN4heif11get_encoderE23heif_compression_format
_ZN4heif12StreamWriter4skipEi
_ZN4heif12StreamWriter5writeERKNSt7__cxx1112basic_stringIcSt11char_traitsIcESaIcEEE
_ZN4heif12StreamWriter5writeERKS0_
_ZN4heif12StreamWriter5writeERKSt6vectorIhSaIhEE
_ZN4heif12StreamWriter5writeEiy
_ZN4heif12StreamWriter6insertEi
_ZN4heif12StreamWriter6write8Eh
_ZN4heif12StreamWriter7write16Et
_ZN4heif12StreamWriter7write32Ej
_ZN4heif12StreamWriter7write64Ey
_ZN4heif14BitstreamRange11read_stringB5cxx11Ev
_ZN4heif14BitstreamRange12prepare_readEx
_ZN4heif14BitstreamRange21set_eof_while_readingEv
_ZN4heif14BitstreamRange24wait_for_available_bytesEx
_ZN4heif14BitstreamRange29wait_until_range_is_availableEv
_ZN4heif14BitstreamRange31skip_without_advancing_file_posEx
_ZN4heif14BitstreamRange5read8Ev
_ZN4heif14BitstreamRange6read16Ev
_ZN4heif14BitstreamRange6read32Ev
_ZN4heif14BitstreamRangeC1ESt10shared_ptrINS_12StreamReaderEEyPS0_
_ZN4heif14BitstreamRangeC2ESt10shared_ptrINS_12StreamReaderEEyPS0_
_ZN4heif14HeifPixelImage10rotate_ccwEiRSt10shared_ptrIS0_E
_ZN4heif14HeifPixelImage14fill_RGB_16bitEtttt
_ZN4heif14HeifPixelImage14fill_new_planeE12heif_channelhii
_ZN4heif14HeifPixelImage14mirror_inplaceEb
_ZN4heif14HeifPixelImage19copy_new_plane_fromESt10shared_ptrIS0_E12heif_channelS3_
_ZN4heif14HeifPixelImage28transfer_plane_from_image_asESt10shared_ptrIS0_E12heif_channelS3_
_ZN4heif14HeifPixelImage6createEii15heif_colorspace11heif_chroma
_ZN4heif14HeifPixelImage7overlayERSt10shared_ptrIS0_Eii
_ZN4heif14HeifPixelImage9add_planeE12heif_channeliii
_ZN4heif14HeifPixelImage9get_planeE12heif_channelPi
_ZN4heif14HeifPixelImageC1Ev
_ZN4heif14HeifPixelImageC2Ev
_ZN4heif14HeifPixelImageD1Ev
_ZN4heif14HeifPixelImageD2Ev
_ZN4heif16register_decoderEPK19heif_decoder_plugin
_ZN4heif16register_encoderEPK19heif_encoder_plugin
_ZN4heif17StreamReader_CApi18wait_for_file_sizeEx
_ZN4heif17StreamReader_CApi4readEPvy
_ZN4heif17StreamReader_CApi4seekEx
_ZN4heif17StreamReader_CApiC1EPK11heif_readerPv
_ZN4heif17StreamReader_CApiC2EPK11heif_readerPv
_ZN4heif17StreamReader_CApiD0Ev
_ZN4heif17StreamReader_CApiD1Ev
_ZN4heif17color_profile_rawD0Ev
_ZN4heif17color_profile_rawD1Ev
_ZN4heif17s_decoder_pluginsE DATA
_ZN4heif18color_profile_nclx5parseERNS_14BitstreamRangeE
_ZN4heif18color_profile_nclxD0Ev
_ZN4heif18color_profile_nclxD1Ev
_ZN4heif19StreamReader_memory18wait_for_file_sizeEx
_ZN4heif19StreamReader_memory4readEPvy
_ZN4heif19StreamReader_memory4seekEx
_ZN4heif19StreamReader_memoryC1EPKhxb
_ZN4heif19StreamReader_memoryC2EPKhxb
_ZN4heif19StreamReader_memoryD0Ev
_ZN4heif19StreamReader_memoryD1Ev
_ZN4heif19StreamReader_memoryD2Ev
_ZN4heif20StreamReader_istream18wait_for_file_sizeEx
_ZN4heif20StreamReader_istream4readEPvy
_ZN4heif20StreamReader_istream4seekEx
_ZN4heif20StreamReader_istreamC1EOSt10unique_ptrISiSt14default_deleteISiEE
_ZN4heif20StreamReader_istreamC2EOSt10unique_ptrISiSt14default_deleteISiEE
_ZN4heif20StreamReader_istreamD0Ev
_ZN4heif20StreamReader_istreamD1Ev
_ZN4heif20chroma_h_subsamplingE11heif_chroma
_ZN4heif20chroma_v_subsamplingE11heif_chroma
_ZN4heif28decode_hevc_aux_sei_messagesERKSt6vectorIhSaIhEERS0_ISt10shared_ptrINS_10SEIMessageEESaIS7_EE
_ZN4heif32get_filtered_encoder_descriptorsE23heif_compression_formatPKc
_ZN4heif32parse_sps_for_hvcC_configurationEPKhyPNS_8Box_hvcC13configurationEPiS5_
_ZN4heif36SEIMessage_depth_representation_infoD0Ev
_ZN4heif36SEIMessage_depth_representation_infoD1Ev
_ZN4heif3Box13read_childrenERNS_14BitstreamRangeEi
_ZN4heif3Box18derive_box_versionEv
_ZN4heif3Box28derive_box_version_recursiveEv
_ZN4heif3Box4readERNS_14BitstreamRangeEPSt10shared_ptrIS0_E
_ZN4heif3Box5parseERNS_14BitstreamRangeE
_ZN4heif3BoxC2ERKNS_9BoxHeaderE
_ZN4heif3BoxD0Ev
_ZN4heif3BoxD1Ev
_ZN4heif3BoxD2Ev
_ZN4heif5Error16get_error_stringE15heif_error_code
_ZN4heif5Error16get_error_stringE18heif_suberror_code
_ZN4heif5Error2OkE DATA
_ZN4heif5Error8kSuccessE DATA
_ZN4heif5ErrorC1E15heif_error_code18heif_suberror_codeNSt7__cxx1112basic_stringIcSt11char_traitsIcESaIcEEE
_ZN4heif5ErrorC1Ev
_ZN4heif5ErrorC2E15heif_error_code18heif_suberror_codeNSt7__cxx1112basic_stringIcSt11char_traitsIcESaIcEEE
_ZN4heif5ErrorC2Ev
_ZN4heif7Box_url5parseERNS_14BitstreamRangeE
_ZN4heif7Box_urlD0Ev
_ZN4heif7Box_urlD1Ev
_ZN4heif8Box_auxC5parseERNS_14BitstreamRangeE
_ZN4heif8Box_auxCD0Ev
_ZN4heif8Box_auxCD1Ev
_ZN4heif8Box_clap5parseERNS_14BitstreamRangeE
_ZN4heif8Box_clapD0Ev
_ZN4heif8Box_clapD1Ev
_ZN4heif8Box_colr5parseERNS_14BitstreamRangeE
_ZN4heif8Box_colrD0Ev
_ZN4heif8Box_colrD1Ev
_ZN4heif8Box_dinf5parseERNS_14BitstreamRangeE
_ZN4heif8Box_dinfD0Ev
_ZN4heif8Box_dinfD1Ev
_ZN4heif8Box_dref5parseERNS_14BitstreamRangeE
_ZN4heif8Box_drefD0Ev
_ZN4heif8Box_drefD1Ev
_ZN4heif8Box_ftyp20add_compatible_brandEj
_ZN4heif8Box_ftyp5parseERNS_14BitstreamRangeE
_ZN4heif8Box_ftypD0Ev
_ZN4heif8Box_ftypD1Ev
_ZN4heif8Box_grpl11EntityGroupD1Ev
_ZN4heif8Box_grpl5parseERNS_14BitstreamRangeE
_ZN4heif8Box_grplD0Ev
_ZN4heif8Box_grplD1Ev
_ZN4heif8Box_hdlr5parseERNS_14BitstreamRangeE
_ZN4heif8Box_hdlrD0Ev
_ZN4heif8Box_hdlrD1Ev
_ZN4heif8Box_hvcC15append_nal_dataEPKhy
_ZN4heif8Box_hvcC15append_nal_dataERKSt6vectorIhSaIhEE
_ZN4heif8Box_hvcC5parseERNS_14BitstreamRangeE
_ZN4heif8Box_hvcCD0Ev
_ZN4heif8Box_hvcCD1Ev
_ZN4heif8Box_idat5parseERNS_14BitstreamRangeE
_ZN4heif8Box_idatD0Ev
_ZN4heif8Box_idatD1Ev
_ZN4heif8Box_iinf18derive_box_versionEv
_ZN4heif8Box_iinf5parseERNS_14BitstreamRangeE
_ZN4heif8Box_iinfD0Ev
_ZN4heif8Box_iinfD1Ev
_ZN4heif8Box_iloc11append_dataEjRKSt6vectorIhSaIhEEh
_ZN4heif8Box_iloc18derive_box_versionEv
_ZN4heif8Box_iloc21write_mdat_after_ilocERNS_12StreamWriterE
_ZN4heif8Box_iloc5parseERNS_14BitstreamRangeE
_ZN4heif8Box_ilocD0Ev
_ZN4heif8Box_ilocD1Ev
_ZN4heif8Box_imir5parseERNS_14BitstreamRangeE
_ZN4heif8Box_imirD0Ev
_ZN4heif8Box_imirD1Ev
_ZN4heif8Box_infe15set_hidden_itemEb
_ZN4heif8Box_infe18derive_box_versionEv
_ZN4heif8Box_infe5parseERNS_14BitstreamRangeE
_ZN4heif8Box_infeD0Ev
_ZN4heif8Box_infeD1Ev
_ZN4heif8Box_ipco5parseERNS_14BitstreamRangeE
_ZN4heif8Box_ipcoD0Ev
_ZN4heif8Box_ipcoD1Ev
_ZN4heif8Box_ipma18derive_box_versionEv
_ZN4heif8Box_ipma24add_property_for_item_IDEjNS0_19PropertyAssociationE
_ZN4heif8Box_ipma5parseERNS_14BitstreamRangeE
_ZN4heif8Box_ipmaD0Ev
_ZN4heif8Box_ipmaD1Ev
_ZN4heif8Box_iprp5parseERNS_14BitstreamRangeE
_ZN4heif8Box_iprpD0Ev
_ZN4heif8Box_iprpD1Ev
_ZN4heif8Box_iref13add_referenceEjjSt6vectorIjSaIjEE
_ZN4heif8Box_iref18derive_box_versionEv
_ZN4heif8Box_iref5parseERNS_14BitstreamRangeE
_ZN4heif8Box_iref9ReferenceD1Ev
_ZN4heif8Box_irefD0Ev
_ZN4heif8Box_irefD1Ev
_ZN4heif8Box_irot5parseERNS_14BitstreamRangeE
_ZN4heif8Box_irotD0Ev
_ZN4heif8Box_irotD1Ev
_ZN4heif8Box_ispe5parseERNS_14BitstreamRangeE
_ZN4heif8Box_ispeD0Ev
_ZN4heif8Box_ispeD1Ev
_ZN4heif8Box_meta5parseERNS_14BitstreamRangeE
_ZN4heif8Box_metaD0Ev
_ZN4heif8Box_metaD1Ev
_ZN4heif8Box_pitm18derive_box_versionEv
_ZN4heif8Box_pitm5parseERNS_14BitstreamRangeE
_ZN4heif8Box_pitmD0Ev
_ZN4heif8Box_pitmD1Ev
_ZN4heif8Box_pixi5parseERNS_14BitstreamRangeE
_ZN4heif8Box_pixiD0Ev
_ZN4heif8Box_pixiD1Ev
_ZN4heif8HeifFile13add_new_imageEPKc
_ZN4heif8HeifFile14new_empty_fileEv
_ZN4heif8HeifFile14read_from_fileEPKc
_ZN4heif8HeifFile15parse_heif_fileERNS_14BitstreamRangeE
_ZN4heif8HeifFile16add_new_infe_boxEPKc
_ZN4heif8HeifFile16append_iloc_dataEjRKSt6vectorIhSaIhEE
_ZN4heif8HeifFile16read_from_memoryEPKvyb
_ZN4heif8HeifFile17add_hvcC_propertyEj
_ZN4heif8HeifFile17add_ispe_propertyEjjj
_ZN4heif8HeifFile17set_auxC_propertyEjNSt7__cxx1112basic_stringIcSt11char_traitsIcESaIcEEE
_ZN4heif8HeifFile17set_color_profileEjSt10shared_ptrIKNS_13color_profileEE
_ZN4heif8HeifFile18add_iref_referenceEjjSt6vectorIjSaIjEE
_ZN4heif8HeifFile19set_primary_item_idEj
_ZN4heif8HeifFile20append_hvcC_nal_dataEjPKhy
_ZN4heif8HeifFile20append_hvcC_nal_dataEjRKSt6vectorIhSaIhEE
_ZN4heif8HeifFile22set_hvcC_configurationEjRKNS_8Box_hvcC13configurationE
_ZN4heif8HeifFile32append_iloc_data_with_4byte_sizeEjPKhy
_ZN4heif8HeifFile4readESt10shared_ptrINS_12StreamReaderEE
_ZN4heif8HeifFile5writeERNS_12StreamWriterE
_ZN4heif8HeifFileC1Ev
_ZN4heif8HeifFileC2Ev
_ZN4heif8HeifFileD1Ev
_ZN4heif8HeifFileD2Ev
_ZN4heif9BitReader13get_bits_fastEi
_ZN4heif9BitReader14skip_bits_fastEi
_ZN4heif9BitReader21skip_to_byte_boundaryEv
_ZN4heif9BitReader6refillEv
_ZN4heif9BitReader8get_bitsEi
_ZN4heif9BitReader8get_svlcEPi
_ZN4heif9BitReader8get_uvlcEPi
_ZN4heif9BitReader9peek_bitsEi
_ZN4heif9BitReader9skip_bitsEi
_ZN4heif9BitReaderC1EPKhi
_ZN4heif9BitReaderC2EPKhi
_ZN4heif9BoxHeader21parse_full_box_headerERNS_14BitstreamRangeE
_ZN4heif9BoxHeader5parseERNS_14BitstreamRangeE
_ZN4heif9BoxHeaderC1Ev
_ZN4heif9BoxHeaderC2Ev
_ZN9ImageGrid5parseERKSt6vectorIhSaIhEE
_ZNK12ImageOverlay10get_offsetEyPiS0_
_ZNK12ImageOverlay20get_background_colorEPt
_ZNK12ImageOverlay4dumpB5cxx11Ev
_ZNK4heif11HeifContext11get_decoderE23heif_compression_format
_ZNK4heif11HeifContext12decode_imageEjRSt10shared_ptrINS_14HeifPixelImageEEPK21heif_decoding_options
_ZNK4heif11HeifContext16debug_dump_boxesB5cxx11Ev
_ZNK4heif11HeifContext20decode_derived_imageEjRSt10shared_ptrINS_14HeifPixelImageEE
_ZNK4heif11HeifContext20decode_overlay_imageEjRSt10shared_ptrINS_14HeifPixelImageEERKSt6vectorIhSaIhEE
_ZNK4heif11HeifContext22decode_full_grid_imageEjRSt10shared_ptrINS_14HeifPixelImageEERKSt6vectorIhSaIhEE
_ZNK4heif11HeifContext27decode_and_paste_tile_imageEjSt10shared_ptrINS_14HeifPixelImageEEii
_ZNK4heif11HeifContext33get_id_of_non_virtual_child_imageEj
_ZNK4heif11HeifContext5Image12decode_imageERSt10shared_ptrINS_14HeifPixelImageEE15heif_colorspace11heif_chromaPK21heif_decoding_options
_ZNK4heif11HeifContext5Image23get_luma_bits_per_pixelEv
_ZNK4heif11HeifContext5Image25get_chroma_bits_per_pixelEv
_ZNK4heif11HeifContext8is_imageEj
_ZNK4heif14HeifPixelImage10get_heightE12heif_channel
_ZNK4heif14HeifPixelImage11has_channelE12heif_channel
_ZNK4heif14HeifPixelImage15get_channel_setEv
_ZNK4heif14HeifPixelImage18convert_colorspaceE15heif_colorspace11heif_chroma
_ZNK4heif14HeifPixelImage18get_bits_per_pixelE12heif_channel
_ZNK4heif14HeifPixelImage19convert_mono_to_RGBEi
_ZNK4heif14HeifPixelImage22scale_nearest_neighborERSt10shared_ptrIS0_Eii
_ZNK4heif14HeifPixelImage23convert_RGB_to_RGB24_32Ev
_ZNK4heif14HeifPixelImage23convert_YCbCr420_to_RGBEv
_ZNK4heif14HeifPixelImage24convert_mono_to_YCbCr420Ev
_ZNK4heif14HeifPixelImage25convert_YCbCr420_to_RGB24Ev
_ZNK4heif14HeifPixelImage25convert_YCbCr420_to_RGB32Ev
_ZNK4heif14HeifPixelImage26convert_RGB_to_RRGGBBaa_BEEv
_ZNK4heif14HeifPixelImage27convert_RGB_to_YCbCr420_HDREv
_ZNK4heif14HeifPixelImage27convert_YCbCr420_to_RGB_HDREv
_ZNK4heif14HeifPixelImage28convert_RGB24_32_to_YCbCr420Ev
_ZNK4heif14HeifPixelImage4cropEiiiiRSt10shared_ptrIS0_E
_ZNK4heif14HeifPixelImage9get_planeE12heif_channelPi
_ZNK4heif14HeifPixelImage9get_widthE12heif_channel
_ZNK4heif14HeifPixelImage9has_alphaEv
_ZNK4heif17StreamReader_CApi12get_positionEv
_ZNK4heif17color_profile_raw4dumpB5cxx11ERNS_6IndentE
_ZNK4heif17color_profile_raw5writeERNS_12StreamWriterE
_ZNK4heif17color_profile_raw8get_typeEv
_ZNK4heif18color_profile_nclx4dumpB5cxx11ERNS_6IndentE
_ZNK4heif18color_profile_nclx5writeERNS_12StreamWriterE
_ZNK4heif18color_profile_nclx8get_typeEv
_ZNK4heif19StreamReader_memory12get_positionEv
_ZNK4heif20StreamReader_istream12get_positionEv
_ZNK4heif3Box13dump_childrenB5cxx11ERNS_6IndentE
_ZNK4heif3Box13get_child_boxEj
_ZNK4heif3Box14write_childrenERNS_12StreamWriterE
_ZNK4heif3Box15get_child_boxesEj
_ZNK4heif3Box4dumpB5cxx11ERNS_6IndentE
_ZNK4heif3Box5writeERNS_12StreamWriterE
_ZNK4heif5Error12error_structEPNS_11ErrorBufferE
_ZNK4heif7Box_url4dumpB5cxx11ERNS_6IndentE
_ZNK4heif8Box_auxC4dumpB5cxx11ERNS_6IndentE
_ZNK4heif8Box_auxC5writeERNS_12StreamWriterE
_ZNK4heif8Box_clap11top_roundedEi
_ZNK4heif8Box_clap12left_roundedEi
_ZNK4heif8Box_clap13right_roundedEi
_ZNK4heif8Box_clap14bottom_roundedEi
_ZNK4heif8Box_clap17get_width_roundedEv
_ZNK4heif8Box_clap18get_height_roundedEv
_ZNK4heif8Box_clap4dumpB5cxx11ERNS_6IndentE
_ZNK4heif8Box_colr4dumpB5cxx11ERNS_6IndentE
_ZNK4heif8Box_colr5writeERNS_12StreamWriterE
_ZNK4heif8Box_dinf4dumpB5cxx11ERNS_6IndentE
_ZNK4heif8Box_dref4dumpB5cxx11ERNS_6IndentE
_ZNK4heif8Box_ftyp20has_compatible_brandEj
_ZNK4heif8Box_ftyp4dumpB5cxx11ERNS_6IndentE
_ZNK4heif8Box_ftyp5writeERNS_12StreamWriterE
_ZNK4heif8Box_grpl4dumpB5cxx11ERNS_6IndentE
_ZNK4heif8Box_hdlr4dumpB5cxx11ERNS_6IndentE
_ZNK4heif8Box_hdlr5writeERNS_12StreamWriterE
_ZNK4heif8Box_hvcC11get_headersEPSt6vectorIhSaIhEE
_ZNK4heif8Box_hvcC4dumpB5cxx11ERNS_6IndentE
_ZNK4heif8Box_hvcC5writeERNS_12StreamWriterE
_ZNK4heif8Box_idat4dumpB5cxx11ERNS_6IndentE
_ZNK4heif8Box_idat9read_dataESt10shared_ptrINS_12StreamReaderEEyyRSt6vectorIhSaIhEE
_ZNK4heif8Box_iinf4dumpB5cxx11ERNS_6IndentE
_ZNK4heif8Box_iinf5writeERNS_12StreamWriterE
_ZNK4heif8Box_iloc17patch_iloc_headerERNS_12StreamWriterE
_ZNK4heif8Box_iloc4dumpB5cxx11ERNS_6IndentE
_ZNK4heif8Box_iloc5writeERNS_12StreamWriterE
_ZNK4heif8Box_iloc9read_dataERKNS0_4ItemESt10shared_ptrINS_12StreamReaderEERKS4_INS_8Box_idatEEPSt6vectorIhSaIhEE
_ZNK4heif8Box_imir4dumpB5cxx11ERNS_6IndentE
_ZNK4heif8Box_infe4dumpB5cxx11ERNS_6IndentE
_ZNK4heif8Box_infe5writeERNS_12StreamWriterE
_ZNK4heif8Box_ipco24get_property_for_item_IDEjRKSt10shared_ptrINS_8Box_ipmaEEj
_ZNK4heif8Box_ipco26get_properties_for_item_IDEjRKSt10shared_ptrINS_8Box_ipmaEERSt6vectorINS0_8PropertyESaIS7_EE
_ZNK4heif8Box_ipco4dumpB5cxx11ERNS_6IndentE
_ZNK4heif8Box_ipma26get_properties_for_item_IDEj
_ZNK4heif8Box_ipma4dumpB5cxx11ERNS_6IndentE
_ZNK4heif8Box_ipma5writeERNS_12StreamWriterE
_ZNK4heif8Box_iprp4dumpB5cxx11ERNS_6IndentE
_ZNK4heif8Box_iref14get_referencesEjj
_ZNK4heif8Box_iref14has_referencesEj
_ZNK4heif8Box_iref19get_references_fromEj
_ZNK4heif8Box_iref4dumpB5cxx11ERNS_6IndentE
_ZNK4heif8Box_iref5writeERNS_12StreamWriterE
_ZNK4heif8Box_irot4dumpB5cxx11ERNS_6IndentE
_ZNK4heif8Box_ispe4dumpB5cxx11ERNS_6IndentE
_ZNK4heif8Box_ispe5writeERNS_12StreamWriterE
_ZNK4heif8Box_meta4dumpB5cxx11ERNS_6IndentE
_ZNK4heif8Box_pitm4dumpB5cxx11ERNS_6IndentE
_ZNK4heif8Box_pitm5writeERNS_12StreamWriterE
_ZNK4heif8Box_pixi4dumpB5cxx11ERNS_6IndentE
_ZNK4heif8Box_pixi5writeERNS_12StreamWriterE
_ZNK4heif8Fraction10round_downEv
_ZNK4heif8Fraction5roundEv
_ZNK4heif8Fraction8round_upEv
_ZNK4heif8FractiondvEi
_ZNK4heif8FractionmiERKS0_
_ZNK4heif8FractionmiEi
_ZNK4heif8FractionplERKS0_
_ZNK4heif8HeifFile12get_item_IDsEv
_ZNK4heif8HeifFile12image_existsEj
_ZNK4heif8HeifFile13get_item_typeB5cxx11Ej
_ZNK4heif8HeifFile14get_propertiesEjRSt6vectorINS_8Box_ipco8PropertyESaIS3_EE
_ZNK4heif8HeifFile16debug_dump_boxesB5cxx11Ev
_ZNK4heif8HeifFile16get_content_typeB5cxx11Ej
_ZNK4heif8HeifFile18get_unused_item_idEv
_ZNK4heif8HeifFile25get_compressed_image_dataEjPSt6vectorIhSaIhEE
_ZNK4heif8HeifFile35get_image_chroma_from_configurationEj
_ZNK4heif8HeifFile42get_luma_bits_per_pixel_from_configurationEj
_ZNK4heif8HeifFile44get_chroma_bits_per_pixel_from_configurationEj
_ZNK4heif8HeifFile8get_infeEj
_ZNK4heif9BoxHeader14prepend_headerERNS_12StreamWriterEy
_ZNK4heif9BoxHeader15get_type_stringB5cxx11Ev
_ZNK4heif9BoxHeader24reserve_box_header_spaceERNS_12StreamWriterE
_ZNK4heif9BoxHeader4dumpB5cxx11ERNS_6IndentE
_ZNK4heif9BoxHeader8get_typeEv
_ZNK9ImageGrid4dumpB5cxx11Ev
_ZNKSt5ctypeIcE8do_widenEc
_ZNSt13_Bvector_baseISaIbEE13_M_deallocateEv
_ZNSt14__shared_countILN9__gnu_cxx12_Lock_policyE2EEC1ERKS2_
_ZNSt14__shared_countILN9__gnu_cxx12_Lock_policyE2EEaSERKS2_
_ZNSt15_Sp_counted_ptrIDnLN9__gnu_cxx12_Lock_policyE2EE10_M_disposeEv
_ZNSt16_Sp_counted_baseILN9__gnu_cxx12_Lock_policyE2EE10_M_destroyEv
_ZNSt16_Sp_counted_baseILN9__gnu_cxx12_Lock_policyE2EE10_M_releaseEv
_ZNSt23_Sp_counted_ptr_inplaceIN4heif11HeifContext5ImageESaIS2_ELN9__gnu_cxx12_Lock_policyE2EE10_M_destroyEv
_ZNSt23_Sp_counted_ptr_inplaceIN4heif11HeifContext5ImageESaIS2_ELN9__gnu_cxx12_Lock_policyE2EE10_M_disposeEv
_ZNSt23_Sp_counted_ptr_inplaceIN4heif11HeifContext5ImageESaIS2_ELN9__gnu_cxx12_Lock_policyE2EE14_M_get_deleterERKSt9type_info
_ZNSt23_Sp_counted_ptr_inplaceIN4heif11HeifContext5ImageESaIS2_ELN9__gnu_cxx12_Lock_policyE2EED0Ev
_ZNSt23_Sp_counted_ptr_inplaceIN4heif11HeifContext5ImageESaIS2_ELN9__gnu_cxx12_Lock_policyE2EED1Ev
_ZNSt23_Sp_counted_ptr_inplaceIN4heif11HeifContextESaIS1_ELN9__gnu_cxx12_Lock_policyE2EE10_M_destroyEv
_ZNSt23_Sp_counted_ptr_inplaceIN4heif11HeifContextESaIS1_ELN9__gnu_cxx12_Lock_policyE2EE10_M_disposeEv
_ZNSt23_Sp_counted_ptr_inplaceIN4heif11HeifContextESaIS1_ELN9__gnu_cxx12_Lock_policyE2EE14_M_get_deleterERKSt9type_info
_ZNSt23_Sp_counted_ptr_inplaceIN4heif11HeifContextESaIS1_ELN9__gnu_cxx12_Lock_policyE2EED0Ev
_ZNSt23_Sp_counted_ptr_inplaceIN4heif11HeifContextESaIS1_ELN9__gnu_cxx12_Lock_policyE2EED1Ev
_ZNSt23_Sp_counted_ptr_inplaceIN4heif13ImageMetadataESaIS1_ELN9__gnu_cxx12_Lock_policyE2EE10_M_destroyEv
_ZNSt23_Sp_counted_ptr_inplaceIN4heif13ImageMetadataESaIS1_ELN9__gnu_cxx12_Lock_policyE2EE10_M_disposeEv
_ZNSt23_Sp_counted_ptr_inplaceIN4heif13ImageMetadataESaIS1_ELN9__gnu_cxx12_Lock_policyE2EE14_M_get_deleterERKSt9type_info
_ZNSt23_Sp_counted_ptr_inplaceIN4heif13ImageMetadataESaIS1_ELN9__gnu_cxx12_Lock_policyE2EED0Ev
_ZNSt23_Sp_counted_ptr_inplaceIN4heif13ImageMetadataESaIS1_ELN9__gnu_cxx12_Lock_policyE2EED1Ev
_ZNSt23_Sp_counted_ptr_inplaceIN4heif14HeifPixelImageESaIS1_ELN9__gnu_cxx12_Lock_policyE2EE10_M_destroyEv
_ZNSt23_Sp_counted_ptr_inplaceIN4heif14HeifPixelImageESaIS1_ELN9__gnu_cxx12_Lock_policyE2EE10_M_disposeEv
_ZNSt23_Sp_counted_ptr_inplaceIN4heif14HeifPixelImageESaIS1_ELN9__gnu_cxx12_Lock_policyE2EE14_M_get_deleterERKSt9type_info
_ZNSt23_Sp_counted_ptr_inplaceIN4heif14HeifPixelImageESaIS1_ELN9__gnu_cxx12_Lock_policyE2EED0Ev
_ZNSt23_Sp_counted_ptr_inplaceIN4heif14HeifPixelImageESaIS1_ELN9__gnu_cxx12_Lock_policyE2EED1Ev
_ZNSt23_Sp_counted_ptr_inplaceIN4heif17StreamReader_CApiESaIS1_ELN9__gnu_cxx12_Lock_policyE2EE10_M_destroyEv
_ZNSt23_Sp_counted_ptr_inplaceIN4heif17StreamReader_CApiESaIS1_ELN9__gnu_cxx12_Lock_policyE2EE10_M_disposeEv
_ZNSt23_Sp_counted_ptr_inplaceIN4heif17StreamReader_CApiESaIS1_ELN9__gnu_cxx12_Lock_policyE2EE14_M_get_deleterERKSt9type_info
_ZNSt23_Sp_counted_ptr_inplaceIN4heif17StreamReader_CApiESaIS1_ELN9__gnu_cxx12_Lock_policyE2EED0Ev
_ZNSt23_Sp_counted_ptr_inplaceIN4heif17StreamReader_CApiESaIS1_ELN9__gnu_cxx12_Lock_policyE2EED1Ev
_ZNSt23_Sp_counted_ptr_inplaceIN4heif17color_profile_rawESaIS1_ELN9__gnu_cxx12_Lock_policyE2EE10_M_destroyEv
_ZNSt23_Sp_counted_ptr_inplaceIN4heif17color_profile_rawESaIS1_ELN9__gnu_cxx12_Lock_policyE2EE10_M_disposeEv
_ZNSt23_Sp_counted_ptr_inplaceIN4heif17color_profile_rawESaIS1_ELN9__gnu_cxx12_Lock_policyE2EE14_M_get_deleterERKSt9type_info
_ZNSt23_Sp_counted_ptr_inplaceIN4heif17color_profile_rawESaIS1_ELN9__gnu_cxx12_Lock_policyE2EED0Ev
_ZNSt23_Sp_counted_ptr_inplaceIN4heif17color_profile_rawESaIS1_ELN9__gnu_cxx12_Lock_policyE2EED1Ev
_ZNSt23_Sp_counted_ptr_inplaceIN4heif18color_profile_nclxESaIS1_ELN9__gnu_cxx12_Lock_policyE2EE10_M_destroyEv
_ZNSt23_Sp_counted_ptr_inplaceIN4heif18color_profile_nclxESaIS1_ELN9__gnu_cxx12_Lock_policyE2EE10_M_disposeEv
_ZNSt23_Sp_counted_ptr_inplaceIN4heif18color_profile_nclxESaIS1_ELN9__gnu_cxx12_Lock_policyE2EE14_M_get_deleterERKSt9type_info
_ZNSt23_Sp_counted_ptr_inplaceIN4heif18color_profile_nclxESaIS1_ELN9__gnu_cxx12_Lock_policyE2EED0Ev
_ZNSt23_Sp_counted_ptr_inplaceIN4heif18color_profile_nclxESaIS1_ELN9__gnu_cxx12_Lock_policyE2EED1Ev
_ZNSt23_Sp_counted_ptr_inplaceIN4heif19StreamReader_memoryESaIS1_ELN9__gnu_cxx12_Lock_policyE2EE10_M_destroyEv
_ZNSt23_Sp_counted_ptr_inplaceIN4heif19StreamReader_memoryESaIS1_ELN9__gnu_cxx12_Lock_policyE2EE10_M_disposeEv
_ZNSt23_Sp_counted_ptr_inplaceIN4heif19StreamReader_memoryESaIS1_ELN9__gnu_cxx12_Lock_policyE2EE14_M_get_deleterERKSt9type_info
_ZNSt23_Sp_counted_ptr_inplaceIN4heif19StreamReader_memoryESaIS1_ELN9__gnu_cxx12_Lock_policyE2EED0Ev
_ZNSt23_Sp_counted_ptr_inplaceIN4heif19StreamReader_memoryESaIS1_ELN9__gnu_cxx12_Lock_policyE2EED1Ev
_ZNSt23_Sp_counted_ptr_inplaceIN4heif20StreamReader_istreamESaIS1_ELN9__gnu_cxx12_Lock_policyE2EE10_M_destroyEv
_ZNSt23_Sp_counted_ptr_inplaceIN4heif20StreamReader_istreamESaIS1_ELN9__gnu_cxx12_Lock_policyE2EE10_M_disposeEv
_ZNSt23_Sp_counted_ptr_inplaceIN4heif20StreamReader_istreamESaIS1_ELN9__gnu_cxx12_Lock_policyE2EE14_M_get_deleterERKSt9type_info
_ZNSt23_Sp_counted_ptr_inplaceIN4heif20StreamReader_istreamESaIS1_ELN9__gnu_cxx12_Lock_policyE2EED0Ev
_ZNSt23_Sp_counted_ptr_inplaceIN4heif20StreamReader_istreamESaIS1_ELN9__gnu_cxx12_Lock_policyE2EED1Ev
_ZNSt23_Sp_counted_ptr_inplaceIN4heif36SEIMessage_depth_representation_infoESaIS1_ELN9__gnu_cxx12_Lock_policyE2EE10_M_destroyEv
_ZNSt23_Sp_counted_ptr_inplaceIN4heif36SEIMessage_depth_representation_infoESaIS1_ELN9__gnu_cxx12_Lock_policyE2EE10_M_disposeEv
_ZNSt23_Sp_counted_ptr_inplaceIN4heif36SEIMessage_depth_representation_infoESaIS1_ELN9__gnu_cxx12_Lock_policyE2EE14_M_get_deleterERKSt9type_info
_ZNSt23_Sp_counted_ptr_inplaceIN4heif36SEIMessage_depth_representation_infoESaIS1_ELN9__gnu_cxx12_Lock_policyE2EED0Ev
_ZNSt23_Sp_counted_ptr_inplaceIN4heif36SEIMessage_depth_representation_infoESaIS1_ELN9__gnu_cxx12_Lock_policyE2EED1Ev
_ZNSt23_Sp_counted_ptr_inplaceIN4heif3BoxESaIS1_ELN9__gnu_cxx12_Lock_policyE2EE10_M_destroyEv
_ZNSt23_Sp_counted_ptr_inplaceIN4heif3BoxESaIS1_ELN9__gnu_cxx12_Lock_policyE2EE10_M_disposeEv
_ZNSt23_Sp_counted_ptr_inplaceIN4heif3BoxESaIS1_ELN9__gnu_cxx12_Lock_policyE2EE14_M_get_deleterERKSt9type_info
_ZNSt23_Sp_counted_ptr_inplaceIN4heif3BoxESaIS1_ELN9__gnu_cxx12_Lock_policyE2EED0Ev
_ZNSt23_Sp_counted_ptr_inplaceIN4heif3BoxESaIS1_ELN9__gnu_cxx12_Lock_policyE2EED1Ev
_ZNSt23_Sp_counted_ptr_inplaceIN4heif7Box_urlESaIS1_ELN9__gnu_cxx12_Lock_policyE2EE10_M_destroyEv
_ZNSt23_Sp_counted_ptr_inplaceIN4heif7Box_urlESaIS1_ELN9__gnu_cxx12_Lock_policyE2EE10_M_disposeEv
_ZNSt23_Sp_counted_ptr_inplaceIN4heif7Box_urlESaIS1_ELN9__gnu_cxx12_Lock_policyE2EE14_M_get_deleterERKSt9type_info
_ZNSt23_Sp_counted_ptr_inplaceIN4heif7Box_urlESaIS1_ELN9__gnu_cxx12_Lock_policyE2EED0Ev
_ZNSt23_Sp_counted_ptr_inplaceIN4heif7Box_urlESaIS1_ELN9__gnu_cxx12_Lock_policyE2EED1Ev
_ZNSt23_Sp_counted_ptr_inplaceIN4heif8Box_auxCESaIS1_ELN9__gnu_cxx12_Lock_policyE2EE10_M_destroyEv
_ZNSt23_Sp_counted_ptr_inplaceIN4heif8Box_auxCESaIS1_ELN9__gnu_cxx12_Lock_policyE2EE10_M_disposeEv
_ZNSt23_Sp_counted_ptr_inplaceIN4heif8Box_auxCESaIS1_ELN9__gnu_cxx12_Lock_policyE2EE14_M_get_deleterERKSt9type_info
_ZNSt23_Sp_counted_ptr_inplaceIN4heif8Box_auxCESaIS1_ELN9__gnu_cxx12_Lock_policyE2EED0Ev
_ZNSt23_Sp_counted_ptr_inplaceIN4heif8Box_auxCESaIS1_ELN9__gnu_cxx12_Lock_policyE2EED1Ev
_ZNSt23_Sp_counted_ptr_inplaceIN4heif8Box_clapESaIS1_ELN9__gnu_cxx12_Lock_policyE2EE10_M_destroyEv
_ZNSt23_Sp_counted_ptr_inplaceIN4heif8Box_clapESaIS1_ELN9__gnu_cxx12_Lock_policyE2EE10_M_disposeEv
_ZNSt23_Sp_counted_ptr_inplaceIN4heif8Box_clapESaIS1_ELN9__gnu_cxx12_Lock_policyE2EE14_M_get_deleterERKSt9type_info
_ZNSt23_Sp_counted_ptr_inplaceIN4heif8Box_clapESaIS1_ELN9__gnu_cxx12_Lock_policyE2EED0Ev
_ZNSt23_Sp_counted_ptr_inplaceIN4heif8Box_clapESaIS1_ELN9__gnu_cxx12_Lock_policyE2EED1Ev
_ZNSt23_Sp_counted_ptr_inplaceIN4heif8Box_colrESaIS1_ELN9__gnu_cxx12_Lock_policyE2EE10_M_destroyEv
_ZNSt23_Sp_counted_ptr_inplaceIN4heif8Box_colrESaIS1_ELN9__gnu_cxx12_Lock_policyE2EE10_M_disposeEv
_ZNSt23_Sp_counted_ptr_inplaceIN4heif8Box_colrESaIS1_ELN9__gnu_cxx12_Lock_policyE2EE14_M_get_deleterERKSt9type_info
_ZNSt23_Sp_counted_ptr_inplaceIN4heif8Box_colrESaIS1_ELN9__gnu_cxx12_Lock_policyE2EED0Ev
_ZNSt23_Sp_counted_ptr_inplaceIN4heif8Box_colrESaIS1_ELN9__gnu_cxx12_Lock_policyE2EED1Ev
_ZNSt23_Sp_counted_ptr_inplaceIN4heif8Box_dinfESaIS1_ELN9__gnu_cxx12_Lock_policyE2EE10_M_destroyEv
_ZNSt23_Sp_counted_ptr_inplaceIN4heif8Box_dinfESaIS1_ELN9__gnu_cxx12_Lock_policyE2EE10_M_disposeEv
_ZNSt23_Sp_counted_ptr_inplaceIN4heif8Box_dinfESaIS1_ELN9__gnu_cxx12_Lock_policyE2EE14_M_get_deleterERKSt9type_info
_ZNSt23_Sp_counted_ptr_inplaceIN4heif8Box_dinfESaIS1_ELN9__gnu_cxx12_Lock_policyE2EED0Ev
_ZNSt23_Sp_counted_ptr_inplaceIN4heif8Box_dinfESaIS1_ELN9__gnu_cxx12_Lock_policyE2EED1Ev
_ZNSt23_Sp_counted_ptr_inplaceIN4heif8Box_drefESaIS1_ELN9__gnu_cxx12_Lock_policyE2EE10_M_destroyEv
_ZNSt23_Sp_counted_ptr_inplaceIN4heif8Box_drefESaIS1_ELN9__gnu_cxx12_Lock_policyE2EE10_M_disposeEv
_ZNSt23_Sp_counted_ptr_inplaceIN4heif8Box_drefESaIS1_ELN9__gnu_cxx12_Lock_policyE2EE14_M_get_deleterERKSt9type_info
_ZNSt23_Sp_counted_ptr_inplaceIN4heif8Box_drefESaIS1_ELN9__gnu_cxx12_Lock_policyE2EED0Ev
_ZNSt23_Sp_counted_ptr_inplaceIN4heif8Box_drefESaIS1_ELN9__gnu_cxx12_Lock_policyE2EED1Ev
_ZNSt23_Sp_counted_ptr_inplaceIN4heif8Box_ftypESaIS1_ELN9__gnu_cxx12_Lock_policyE2EE10_M_destroyEv
_ZNSt23_Sp_counted_ptr_inplaceIN4heif8Box_ftypESaIS1_ELN9__gnu_cxx12_Lock_policyE2EE10_M_disposeEv
_ZNSt23_Sp_counted_ptr_inplaceIN4heif8Box_ftypESaIS1_ELN9__gnu_cxx12_Lock_policyE2EE14_M_get_deleterERKSt9type_info
_ZNSt23_Sp_counted_ptr_inplaceIN4heif8Box_ftypESaIS1_ELN9__gnu_cxx12_Lock_policyE2EED0Ev
_ZNSt23_Sp_counted_ptr_inplaceIN4heif8Box_ftypESaIS1_ELN9__gnu_cxx12_Lock_policyE2EED1Ev
_ZNSt23_Sp_counted_ptr_inplaceIN4heif8Box_grplESaIS1_ELN9__gnu_cxx12_Lock_policyE2EE10_M_destroyEv
_ZNSt23_Sp_counted_ptr_inplaceIN4heif8Box_grplESaIS1_ELN9__gnu_cxx12_Lock_policyE2EE10_M_disposeEv
_ZNSt23_Sp_counted_ptr_inplaceIN4heif8Box_grplESaIS1_ELN9__gnu_cxx12_Lock_policyE2EE14_M_get_deleterERKSt9type_info
_ZNSt23_Sp_counted_ptr_inplaceIN4heif8Box_grplESaIS1_ELN9__gnu_cxx12_Lock_policyE2EED0Ev
_ZNSt23_Sp_counted_ptr_inplaceIN4heif8Box_grplESaIS1_ELN9__gnu_cxx12_Lock_policyE2EED1Ev
_ZNSt23_Sp_counted_ptr_inplaceIN4heif8Box_hdlrESaIS1_ELN9__gnu_cxx12_Lock_policyE2EE10_M_destroyEv
_ZNSt23_Sp_counted_ptr_inplaceIN4heif8Box_hdlrESaIS1_ELN9__gnu_cxx12_Lock_policyE2EE10_M_disposeEv
_ZNSt23_Sp_counted_ptr_inplaceIN4heif8Box_hdlrESaIS1_ELN9__gnu_cxx12_Lock_policyE2EE14_M_get_deleterERKSt9type_info
_ZNSt23_Sp_counted_ptr_inplaceIN4heif8Box_hdlrESaIS1_ELN9__gnu_cxx12_Lock_policyE2EED0Ev
_ZNSt23_Sp_counted_ptr_inplaceIN4heif8Box_hdlrESaIS1_ELN9__gnu_cxx12_Lock_policyE2EED1Ev
_ZNSt23_Sp_counted_ptr_inplaceIN4heif8Box_hvcCESaIS1_ELN9__gnu_cxx12_Lock_policyE2EE10_M_destroyEv
_ZNSt23_Sp_counted_ptr_inplaceIN4heif8Box_hvcCESaIS1_ELN9__gnu_cxx12_Lock_policyE2EE10_M_disposeEv
_ZNSt23_Sp_counted_ptr_inplaceIN4heif8Box_hvcCESaIS1_ELN9__gnu_cxx12_Lock_policyE2EE14_M_get_deleterERKSt9type_info
_ZNSt23_Sp_counted_ptr_inplaceIN4heif8Box_hvcCESaIS1_ELN9__gnu_cxx12_Lock_policyE2EED0Ev
_ZNSt23_Sp_counted_ptr_inplaceIN4heif8Box_hvcCESaIS1_ELN9__gnu_cxx12_Lock_policyE2EED1Ev
_ZNSt23_Sp_counted_ptr_inplaceIN4heif8Box_idatESaIS1_ELN9__gnu_cxx12_Lock_policyE2EE10_M_destroyEv
_ZNSt23_Sp_counted_ptr_inplaceIN4heif8Box_idatESaIS1_ELN9__gnu_cxx12_Lock_policyE2EE10_M_disposeEv
_ZNSt23_Sp_counted_ptr_inplaceIN4heif8Box_idatESaIS1_ELN9__gnu_cxx12_Lock_policyE2EE14_M_get_deleterERKSt9type_info
_ZNSt23_Sp_counted_ptr_inplaceIN4heif8Box_idatESaIS1_ELN9__gnu_cxx12_Lock_policyE2EED0Ev
_ZNSt23_Sp_counted_ptr_inplaceIN4heif8Box_idatESaIS1_ELN9__gnu_cxx12_Lock_policyE2EED1Ev
_ZNSt23_Sp_counted_ptr_inplaceIN4heif8Box_iinfESaIS1_ELN9__gnu_cxx12_Lock_policyE2EE10_M_destroyEv
_ZNSt23_Sp_counted_ptr_inplaceIN4heif8Box_iinfESaIS1_ELN9__gnu_cxx12_Lock_policyE2EE10_M_disposeEv
_ZNSt23_Sp_counted_ptr_inplaceIN4heif8Box_iinfESaIS1_ELN9__gnu_cxx12_Lock_policyE2EE14_M_get_deleterERKSt9type_info
_ZNSt23_Sp_counted_ptr_inplaceIN4heif8Box_iinfESaIS1_ELN9__gnu_cxx12_Lock_policyE2EED0Ev
_ZNSt23_Sp_counted_ptr_inplaceIN4heif8Box_iinfESaIS1_ELN9__gnu_cxx12_Lock_policyE2EED1Ev
_ZNSt23_Sp_counted_ptr_inplaceIN4heif8Box_ilocESaIS1_ELN9__gnu_cxx12_Lock_policyE2EE10_M_destroyEv
_ZNSt23_Sp_counted_ptr_inplaceIN4heif8Box_ilocESaIS1_ELN9__gnu_cxx12_Lock_policyE2EE10_M_disposeEv
_ZNSt23_Sp_counted_ptr_inplaceIN4heif8Box_ilocESaIS1_ELN9__gnu_cxx12_Lock_policyE2EE14_M_get_deleterERKSt9type_info
_ZNSt23_Sp_counted_ptr_inplaceIN4heif8Box_ilocESaIS1_ELN9__gnu_cxx12_Lock_policyE2EED0Ev
_ZNSt23_Sp_counted_ptr_inplaceIN4heif8Box_ilocESaIS1_ELN9__gnu_cxx12_Lock_policyE2EED1Ev
_ZNSt23_Sp_counted_ptr_inplaceIN4heif8Box_imirESaIS1_ELN9__gnu_cxx12_Lock_policyE2EE10_M_destroyEv
_ZNSt23_Sp_counted_ptr_inplaceIN4heif8Box_imirESaIS1_ELN9__gnu_cxx12_Lock_policyE2EE10_M_disposeEv
_ZNSt23_Sp_counted_ptr_inplaceIN4heif8Box_imirESaIS1_ELN9__gnu_cxx12_Lock_policyE2EE14_M_get_deleterERKSt9type_info
_ZNSt23_Sp_counted_ptr_inplaceIN4heif8Box_imirESaIS1_ELN9__gnu_cxx12_Lock_policyE2EED0Ev
_ZNSt23_Sp_counted_ptr_inplaceIN4heif8Box_imirESaIS1_ELN9__gnu_cxx12_Lock_policyE2EED1Ev
_ZNSt23_Sp_counted_ptr_inplaceIN4heif8Box_infeESaIS1_ELN9__gnu_cxx12_Lock_policyE2EE10_M_destroyEv
_ZNSt23_Sp_counted_ptr_inplaceIN4heif8Box_infeESaIS1_ELN9__gnu_cxx12_Lock_policyE2EE10_M_disposeEv
_ZNSt23_Sp_counted_ptr_inplaceIN4heif8Box_infeESaIS1_ELN9__gnu_cxx12_Lock_policyE2EE14_M_get_deleterERKSt9type_info
_ZNSt23_Sp_counted_ptr_inplaceIN4heif8Box_infeESaIS1_ELN9__gnu_cxx12_Lock_policyE2EED0Ev
_ZNSt23_Sp_counted_ptr_inplaceIN4heif8Box_infeESaIS1_ELN9__gnu_cxx12_Lock_policyE2EED1Ev
_ZNSt23_Sp_counted_ptr_inplaceIN4heif8Box_ipcoESaIS1_ELN9__gnu_cxx12_Lock_policyE2EE10_M_destroyEv
_ZNSt23_Sp_counted_ptr_inplaceIN4heif8Box_ipcoESaIS1_ELN9__gnu_cxx12_Lock_policyE2EE10_M_disposeEv
_ZNSt23_Sp_counted_ptr_inplaceIN4heif8Box_ipcoESaIS1_ELN9__gnu_cxx12_Lock_policyE2EE14_M_get_deleterERKSt9type_info
_ZNSt23_Sp_counted_ptr_inplaceIN4heif8Box_ipcoESaIS1_ELN9__gnu_cxx12_Lock_policyE2EED0Ev
_ZNSt23_Sp_counted_ptr_inplaceIN4heif8Box_ipcoESaIS1_ELN9__gnu_cxx12_Lock_policyE2EED1Ev
_ZNSt23_Sp_counted_ptr_inplaceIN4heif8Box_ipmaESaIS1_ELN9__gnu_cxx12_Lock_policyE2EE10_M_destroyEv
_ZNSt23_Sp_counted_ptr_inplaceIN4heif8Box_ipmaESaIS1_ELN9__gnu_cxx12_Lock_policyE2EE10_M_disposeEv
_ZNSt23_Sp_counted_ptr_inplaceIN4heif8Box_ipmaESaIS1_ELN9__gnu_cxx12_Lock_policyE2EE14_M_get_deleterERKSt9type_info
_ZNSt23_Sp_counted_ptr_inplaceIN4heif8Box_ipmaESaIS1_ELN9__gnu_cxx12_Lock_policyE2EED0Ev
_ZNSt23_Sp_counted_ptr_inplaceIN4heif8Box_ipmaESaIS1_ELN9__gnu_cxx12_Lock_policyE2EED1Ev
_ZNSt23_Sp_counted_ptr_inplaceIN4heif8Box_iprpESaIS1_ELN9__gnu_cxx12_Lock_policyE2EE10_M_destroyEv
_ZNSt23_Sp_counted_ptr_inplaceIN4heif8Box_iprpESaIS1_ELN9__gnu_cxx12_Lock_policyE2EE10_M_disposeEv
_ZNSt23_Sp_counted_ptr_inplaceIN4heif8Box_iprpESaIS1_ELN9__gnu_cxx12_Lock_policyE2EE14_M_get_deleterERKSt9type_info
_ZNSt23_Sp_counted_ptr_inplaceIN4heif8Box_iprpESaIS1_ELN9__gnu_cxx12_Lock_policyE2EED0Ev
_ZNSt23_Sp_counted_ptr_inplaceIN4heif8Box_iprpESaIS1_ELN9__gnu_cxx12_Lock_policyE2EED1Ev
_ZNSt23_Sp_counted_ptr_inplaceIN4heif8Box_irefESaIS1_ELN9__gnu_cxx12_Lock_policyE2EE10_M_destroyEv
_ZNSt23_Sp_counted_ptr_inplaceIN4heif8Box_irefESaIS1_ELN9__gnu_cxx12_Lock_policyE2EE10_M_disposeEv
_ZNSt23_Sp_counted_ptr_inplaceIN4heif8Box_irefESaIS1_ELN9__gnu_cxx12_Lock_policyE2EE14_M_get_deleterERKSt9type_info
_ZNSt23_Sp_counted_ptr_inplaceIN4heif8Box_irefESaIS1_ELN9__gnu_cxx12_Lock_policyE2EED0Ev
_ZNSt23_Sp_counted_ptr_inplaceIN4heif8Box_irefESaIS1_ELN9__gnu_cxx12_Lock_policyE2EED1Ev
_ZNSt23_Sp_counted_ptr_inplaceIN4heif8Box_irotESaIS1_ELN9__gnu_cxx12_Lock_policyE2EE10_M_destroyEv
_ZNSt23_Sp_counted_ptr_inplaceIN4heif8Box_irotESaIS1_ELN9__gnu_cxx12_Lock_policyE2EE10_M_disposeEv
_ZNSt23_Sp_counted_ptr_inplaceIN4heif8Box_irotESaIS1_ELN9__gnu_cxx12_Lock_policyE2EE14_M_get_deleterERKSt9type_info
_ZNSt23_Sp_counted_ptr_inplaceIN4heif8Box_irotESaIS1_ELN9__gnu_cxx12_Lock_policyE2EED0Ev
_ZNSt23_Sp_counted_ptr_inplaceIN4heif8Box_irotESaIS1_ELN9__gnu_cxx12_Lock_policyE2EED1Ev
_ZNSt23_Sp_counted_ptr_inplaceIN4heif8Box_ispeESaIS1_ELN9__gnu_cxx12_Lock_policyE2EE10_M_destroyEv
_ZNSt23_Sp_counted_ptr_inplaceIN4heif8Box_ispeESaIS1_ELN9__gnu_cxx12_Lock_policyE2EE10_M_disposeEv
_ZNSt23_Sp_counted_ptr_inplaceIN4heif8Box_ispeESaIS1_ELN9__gnu_cxx12_Lock_policyE2EE14_M_get_deleterERKSt9type_info
_ZNSt23_Sp_counted_ptr_inplaceIN4heif8Box_ispeESaIS1_ELN9__gnu_cxx12_Lock_policyE2EED0Ev
_ZNSt23_Sp_counted_ptr_inplaceIN4heif8Box_ispeESaIS1_ELN9__gnu_cxx12_Lock_policyE2EED1Ev
_ZNSt23_Sp_counted_ptr_inplaceIN4heif8Box_metaESaIS1_ELN9__gnu_cxx12_Lock_policyE2EE10_M_destroyEv
_ZNSt23_Sp_counted_ptr_inplaceIN4heif8Box_metaESaIS1_ELN9__gnu_cxx12_Lock_policyE2EE10_M_disposeEv
_ZNSt23_Sp_counted_ptr_inplaceIN4heif8Box_metaESaIS1_ELN9__gnu_cxx12_Lock_policyE2EE14_M_get_deleterERKSt9type_info
_ZNSt23_Sp_counted_ptr_inplaceIN4heif8Box_metaESaIS1_ELN9__gnu_cxx12_Lock_policyE2EED0Ev
_ZNSt23_Sp_counted_ptr_inplaceIN4heif8Box_metaESaIS1_ELN9__gnu_cxx12_Lock_policyE2EED1Ev
_ZNSt23_Sp_counted_ptr_inplaceIN4heif8Box_pitmESaIS1_ELN9__gnu_cxx12_Lock_policyE2EE10_M_destroyEv
_ZNSt23_Sp_counted_ptr_inplaceIN4heif8Box_pitmESaIS1_ELN9__gnu_cxx12_Lock_policyE2EE10_M_disposeEv
_ZNSt23_Sp_counted_ptr_inplaceIN4heif8Box_pitmESaIS1_ELN9__gnu_cxx12_Lock_policyE2EE14_M_get_deleterERKSt9type_info
_ZNSt23_Sp_counted_ptr_inplaceIN4heif8Box_pitmESaIS1_ELN9__gnu_cxx12_Lock_policyE2EED0Ev
_ZNSt23_Sp_counted_ptr_inplaceIN4heif8Box_pitmESaIS1_ELN9__gnu_cxx12_Lock_policyE2EED1Ev
_ZNSt23_Sp_counted_ptr_inplaceIN4heif8Box_pixiESaIS1_ELN9__gnu_cxx12_Lock_policyE2EE10_M_destroyEv
_ZNSt23_Sp_counted_ptr_inplaceIN4heif8Box_pixiESaIS1_ELN9__gnu_cxx12_Lock_policyE2EE10_M_disposeEv
_ZNSt23_Sp_counted_ptr_inplaceIN4heif8Box_pixiESaIS1_ELN9__gnu_cxx12_Lock_policyE2EE14_M_get_deleterERKSt9type_info
_ZNSt23_Sp_counted_ptr_inplaceIN4heif8Box_pixiESaIS1_ELN9__gnu_cxx12_Lock_policyE2EED0Ev
_ZNSt23_Sp_counted_ptr_inplaceIN4heif8Box_pixiESaIS1_ELN9__gnu_cxx12_Lock_policyE2EED1Ev
_ZNSt23_Sp_counted_ptr_inplaceIN4heif8HeifFileESaIS1_ELN9__gnu_cxx12_Lock_policyE2EE10_M_destroyEv
_ZNSt23_Sp_counted_ptr_inplaceIN4heif8HeifFileESaIS1_ELN9__gnu_cxx12_Lock_policyE2EE10_M_disposeEv
_ZNSt23_Sp_counted_ptr_inplaceIN4heif8HeifFileESaIS1_ELN9__gnu_cxx12_Lock_policyE2EE14_M_get_deleterERKSt9type_info
_ZNSt23_Sp_counted_ptr_inplaceIN4heif8HeifFileESaIS1_ELN9__gnu_cxx12_Lock_policyE2EED0Ev
_ZNSt23_Sp_counted_ptr_inplaceIN4heif8HeifFileESaIS1_ELN9__gnu_cxx12_Lock_policyE2EED1Ev
_ZNSt6vectorIN4heif8Box_grpl11EntityGroupESaIS2_EE17_M_realloc_insertIJRKS2_EEEvN9__gnu_cxx17__normal_iteratorIPS2_S4_EEDpOT_
_ZNSt6vectorIN4heif8Box_hvcC8NalArrayESaIS2_EE17_M_realloc_insertIJRKS2_EEEvN9__gnu_cxx17__normal_iteratorIPS2_S4_EEDpOT_
_ZNSt6vectorIN4heif8Box_iloc4ItemESaIS2_EE17_M_realloc_insertIJRKS2_EEEvN9__gnu_cxx17__normal_iteratorIPS2_S4_EEDpOT_
_ZNSt6vectorIN4heif8Box_iloc6ExtentESaIS2_EE17_M_realloc_insertIJRKS2_EEEvN9__gnu_cxx17__normal_iteratorIPS2_S4_EEDpOT_
_ZNSt6vectorIN4heif8Box_iloc6ExtentESaIS2_EE17_M_realloc_insertIJS2_EEEvN9__gnu_cxx17__normal_iteratorIPS2_S4_EEDpOT_
_ZNSt6vectorIN4heif8Box_iloc6ExtentESaIS2_EED1Ev
_ZNSt6vectorIN4heif8Box_ipco8PropertyESaIS2_EE17_M_realloc_insertIJRKS2_EEEvN9__gnu_cxx17__normal_iteratorIPS2_S4_EEDpOT_
_ZNSt6vectorIN4heif8Box_ipco8PropertyESaIS2_EED1Ev
_ZNSt6vectorIN4heif8Box_ipma19PropertyAssociationESaIS2_EE17_M_realloc_insertIJRKS2_EEEvN9__gnu_cxx17__normal_iteratorIPS2_S4_EEDpOT_
_ZNSt6vectorIN4heif8Box_ipma5EntryESaIS2_EE17_M_realloc_insertIJRKS2_EEEvN9__gnu_cxx17__normal_iteratorIPS2_S4_EEDpOT_
_ZNSt6vectorIN4heif8Box_iref9ReferenceESaIS2_EE17_M_realloc_insertIJRKS2_EEEvN9__gnu_cxx17__normal_iteratorIPS2_S4_EEDpOT_
_ZNSt6vectorIN4heif8Box_iref9ReferenceESaIS2_EED1Ev
_ZNSt6vectorIPK23heif_encoder_descriptorSaIS2_EE17_M_realloc_insertIJS2_EEEvN9__gnu_cxx17__normal_iteratorIPS2_S4_EEDpOT_
_ZNSt6vectorIS_IhSaIhEESaIS1_EE17_M_realloc_insertIJRKS1_EEEvN9__gnu_cxx17__normal_iteratorIPS1_S3_EEDpOT_
_ZNSt6vectorIS_IhSaIhEESaIS1_EE17_M_realloc_insertIJS1_EEEvN9__gnu_cxx17__normal_iteratorIPS1_S3_EEDpOT_
_ZNSt6vectorIS_IhSaIhEESaIS1_EED1Ev
_ZNSt6vectorISt10shared_ptrIN4heif10SEIMessageEESaIS3_EE17_M_realloc_insertIJRKS3_EEEvN9__gnu_cxx17__normal_iteratorIPS3_S5_EEDpOT_
_ZNSt6vectorISt10shared_ptrIN4heif10SEIMessageEESaIS3_EED1Ev
_ZNSt6vectorISt10shared_ptrIN4heif11HeifContext5ImageEESaIS4_EE17_M_realloc_insertIJRKS4_EEEvN9__gnu_cxx17__normal_iteratorIPS4_S6_EEDpOT_
_ZNSt6vectorISt10shared_ptrIN4heif11HeifContext5ImageEESaIS4_EED1Ev
_ZNSt6vectorISt10shared_ptrIN4heif11HeifContext5ImageEESaIS4_EEaSERKS6_
_ZNSt6vectorISt10shared_ptrIN4heif13ImageMetadataEESaIS3_EE17_M_realloc_insertIJRKS3_EEEvN9__gnu_cxx17__normal_iteratorIPS3_S5_EEDpOT_
_ZNSt6vectorISt10shared_ptrIN4heif13ImageMetadataEESaIS3_EED1Ev
_ZNSt6vectorISt10shared_ptrIN4heif3BoxEESaIS3_EE12emplace_backIJS3_EEEvDpOT_
_ZNSt6vectorISt10shared_ptrIN4heif3BoxEESaIS3_EE17_M_realloc_insertIJRKS3_EEEvN9__gnu_cxx17__normal_iteratorIPS3_S5_EEDpOT_
_ZNSt6vectorISt10shared_ptrIN4heif3BoxEESaIS3_EE17_M_realloc_insertIJS3_EEEvN9__gnu_cxx17__normal_iteratorIPS3_S5_EEDpOT_
_ZNSt6vectorISt10shared_ptrIN4heif3BoxEESaIS3_EED1Ev
_ZNSt6vectorIhSaIhEE12emplace_backIJhEEEvDpOT_
_ZNSt6vectorIhSaIhEE15_M_range_insertIN9__gnu_cxx17__normal_iteratorIPKhS1_EEEEvNS4_IPhS1_EET_SA_St20forward_iterator_tag
_ZNSt6vectorIhSaIhEE17_M_default_appendEy
_ZNSt6vectorIhSaIhEEC1ERKS1_
_ZNSt6vectorIjSaIjEE12emplace_backIJjEEEvDpOT_
_ZNSt6vectorIjSaIjEE17_M_realloc_insertIJjEEEvN9__gnu_cxx17__normal_iteratorIPjS1_EEDpOT_
_ZNSt6vectorIjSaIjEEaSERKS1_
_ZNSt7__cxx1115basic_stringbufIcSt11char_traitsIcESaIcEED1Ev
_ZNSt8_Rb_treeI12heif_channelS0_St9_IdentityIS0_ESt4lessIS0_ESaIS0_EE8_M_eraseEPSt13_Rb_tree_nodeIS0_E
_ZNSt8_Rb_treeI12heif_channelSt4pairIKS0_N4heif14HeifPixelImage10ImagePlaneEESt10_Select1stIS6_ESt4lessIS0_ESaIS6_EE16_M_insert_uniqueIS1_IS0_S5_EEES1_ISt17_Rb_tree_iteratorIS6_EbEOT_
_ZNSt8_Rb_treeI12heif_channelSt4pairIKS0_N4heif14HeifPixelImage10ImagePlaneEESt10_Select1stIS6_ESt4lessIS0_ESaIS6_EE24_M_get_insert_unique_posERS2_
_ZNSt8_Rb_treeI12heif_channelSt4pairIKS0_N4heif14HeifPixelImage10ImagePlaneEESt10_Select1stIS6_ESt4lessIS0_ESaIS6_EE5eraseERS2_
_ZNSt8_Rb_treeI12heif_channelSt4pairIKS0_N4heif14HeifPixelImage10ImagePlaneEESt10_Select1stIS6_ESt4lessIS0_ESaIS6_EE8_M_eraseEPSt13_Rb_tree_nodeIS6_E
_ZNSt8_Rb_treeIPK19heif_decoder_pluginS2_St9_IdentityIS2_ESt4lessIS2_ESaIS2_EE8_M_eraseEPSt13_Rb_tree_nodeIS2_E
_ZNSt8_Rb_treeISt10unique_ptrI23heif_encoder_descriptorSt14default_deleteIS1_EES4_St9_IdentityIS4_E33encoder_descriptor_priority_orderSaIS4_EE8_M_eraseEPSt13_Rb_tree_nodeIS4_E
_ZNSt8_Rb_treeIjSt4pairIKjSt10shared_ptrIN4heif11HeifContext5ImageEEESt10_Select1stIS7_ESt4lessIjESaIS7_EE16_M_insert_uniqueIS0_IjS6_EEES0_ISt17_Rb_tree_iteratorIS7_EbEOT_
_ZNSt8_Rb_treeIjSt4pairIKjSt10shared_ptrIN4heif11HeifContext5ImageEEESt10_Select1stIS7_ESt4lessIjESaIS7_EE8_M_eraseEPSt13_Rb_tree_nodeIS7_E
_ZNSt8_Rb_treeIjSt4pairIKjSt10shared_ptrIN4heif8Box_infeEEESt10_Select1stIS6_ESt4lessIjESaIS6_EE24_M_get_insert_unique_posERS1_
_ZNSt8_Rb_treeIjSt4pairIKjSt10shared_ptrIN4heif8Box_infeEEESt10_Select1stIS6_ESt4lessIjESaIS6_EE8_M_eraseEPSt13_Rb_tree_nodeIS6_E
_ZSt20__throw_bad_weak_ptrv
_ZTI30heif_depth_representation_info DATA
_ZTIN4heif10SEIMessageE DATA
_ZTIN4heif12StreamReaderE DATA
_ZTIN4heif13color_profileE DATA
_ZTIN4heif17StreamReader_CApiE DATA
_ZTIN4heif17color_profile_rawE DATA
_ZTIN4heif18color_profile_nclxE DATA
_ZTIN4heif19StreamReader_memoryE DATA
_ZTIN4heif20StreamReader_istreamE DATA
_ZTIN4heif36SEIMessage_depth_representation_infoE DATA
_ZTIN4heif3BoxE DATA
_ZTIN4heif7Box_urlE DATA
_ZTIN4heif8Box_auxCE DATA
_ZTIN4heif8Box_clapE DATA
_ZTIN4heif8Box_colrE DATA
_ZTIN4heif8Box_dinfE DATA
_ZTIN4heif8Box_drefE DATA
_ZTIN4heif8Box_ftypE DATA
_ZTIN4heif8Box_grplE DATA
_ZTIN4heif8Box_hdlrE DATA
_ZTIN4heif8Box_hvcCE DATA
_ZTIN4heif8Box_idatE DATA
_ZTIN4heif8Box_iinfE DATA
_ZTIN4heif8Box_ilocE DATA
_ZTIN4heif8Box_imirE DATA
_ZTIN4heif8Box_infeE DATA
_ZTIN4heif8Box_ipcoE DATA
_ZTIN4heif8Box_ipmaE DATA
_ZTIN4heif8Box_iprpE DATA
_ZTIN4heif8Box_irefE DATA
_ZTIN4heif8Box_irotE DATA
_ZTIN4heif8Box_ispeE DATA
_ZTIN4heif8Box_metaE DATA
_ZTIN4heif8Box_pitmE DATA
_ZTIN4heif8Box_pixiE DATA
_ZTIN4heif9BoxHeaderE DATA
_ZTISt11_Mutex_baseILN9__gnu_cxx12_Lock_policyE2EE DATA
_ZTISt12bad_weak_ptr DATA
_ZTISt16_Sp_counted_baseILN9__gnu_cxx12_Lock_policyE2EE DATA
_ZTISt19_Sp_make_shared_tag DATA
_ZTISt23_Sp_counted_ptr_inplaceIN4heif11HeifContext5ImageESaIS2_ELN9__gnu_cxx12_Lock_policyE2EE DATA
_ZTISt23_Sp_counted_ptr_inplaceIN4heif11HeifContextESaIS1_ELN9__gnu_cxx12_Lock_policyE2EE DATA
_ZTISt23_Sp_counted_ptr_inplaceIN4heif13ImageMetadataESaIS1_ELN9__gnu_cxx12_Lock_policyE2EE DATA
_ZTISt23_Sp_counted_ptr_inplaceIN4heif14HeifPixelImageESaIS1_ELN9__gnu_cxx12_Lock_policyE2EE DATA
_ZTISt23_Sp_counted_ptr_inplaceIN4heif17StreamReader_CApiESaIS1_ELN9__gnu_cxx12_Lock_policyE2EE DATA
_ZTISt23_Sp_counted_ptr_inplaceIN4heif17color_profile_rawESaIS1_ELN9__gnu_cxx12_Lock_policyE2EE DATA
_ZTISt23_Sp_counted_ptr_inplaceIN4heif18color_profile_nclxESaIS1_ELN9__gnu_cxx12_Lock_policyE2EE DATA
_ZTISt23_Sp_counted_ptr_inplaceIN4heif19StreamReader_memoryESaIS1_ELN9__gnu_cxx12_Lock_policyE2EE DATA
_ZTISt23_Sp_counted_ptr_inplaceIN4heif20StreamReader_istreamESaIS1_ELN9__gnu_cxx12_Lock_policyE2EE DATA
_ZTISt23_Sp_counted_ptr_inplaceIN4heif36SEIMessage_depth_representation_infoESaIS1_ELN9__gnu_cxx12_Lock_policyE2EE DATA
_ZTISt23_Sp_counted_ptr_inplaceIN4heif3BoxESaIS1_ELN9__gnu_cxx12_Lock_policyE2EE DATA
_ZTISt23_Sp_counted_ptr_inplaceIN4heif7Box_urlESaIS1_ELN9__gnu_cxx12_Lock_policyE2EE DATA
_ZTISt23_Sp_counted_ptr_inplaceIN4heif8Box_auxCESaIS1_ELN9__gnu_cxx12_Lock_policyE2EE DATA
_ZTISt23_Sp_counted_ptr_inplaceIN4heif8Box_clapESaIS1_ELN9__gnu_cxx12_Lock_policyE2EE DATA
_ZTISt23_Sp_counted_ptr_inplaceIN4heif8Box_colrESaIS1_ELN9__gnu_cxx12_Lock_policyE2EE DATA
_ZTISt23_Sp_counted_ptr_inplaceIN4heif8Box_dinfESaIS1_ELN9__gnu_cxx12_Lock_policyE2EE DATA
_ZTISt23_Sp_counted_ptr_inplaceIN4heif8Box_drefESaIS1_ELN9__gnu_cxx12_Lock_policyE2EE DATA
_ZTISt23_Sp_counted_ptr_inplaceIN4heif8Box_ftypESaIS1_ELN9__gnu_cxx12_Lock_policyE2EE DATA
_ZTISt23_Sp_counted_ptr_inplaceIN4heif8Box_grplESaIS1_ELN9__gnu_cxx12_Lock_policyE2EE DATA
_ZTISt23_Sp_counted_ptr_inplaceIN4heif8Box_hdlrESaIS1_ELN9__gnu_cxx12_Lock_policyE2EE DATA
_ZTISt23_Sp_counted_ptr_inplaceIN4heif8Box_hvcCESaIS1_ELN9__gnu_cxx12_Lock_policyE2EE DATA
_ZTISt23_Sp_counted_ptr_inplaceIN4heif8Box_idatESaIS1_ELN9__gnu_cxx12_Lock_policyE2EE DATA
_ZTISt23_Sp_counted_ptr_inplaceIN4heif8Box_iinfESaIS1_ELN9__gnu_cxx12_Lock_policyE2EE DATA
_ZTISt23_Sp_counted_ptr_inplaceIN4heif8Box_ilocESaIS1_ELN9__gnu_cxx12_Lock_policyE2EE DATA
_ZTISt23_Sp_counted_ptr_inplaceIN4heif8Box_imirESaIS1_ELN9__gnu_cxx12_Lock_policyE2EE DATA
_ZTISt23_Sp_counted_ptr_inplaceIN4heif8Box_infeESaIS1_ELN9__gnu_cxx12_Lock_policyE2EE DATA
_ZTISt23_Sp_counted_ptr_inplaceIN4heif8Box_ipcoESaIS1_ELN9__gnu_cxx12_Lock_policyE2EE DATA
_ZTISt23_Sp_counted_ptr_inplaceIN4heif8Box_ipmaESaIS1_ELN9__gnu_cxx12_Lock_policyE2EE DATA
_ZTISt23_Sp_counted_ptr_inplaceIN4heif8Box_iprpESaIS1_ELN9__gnu_cxx12_Lock_policyE2EE DATA
_ZTISt23_Sp_counted_ptr_inplaceIN4heif8Box_irefESaIS1_ELN9__gnu_cxx12_Lock_policyE2EE DATA
_ZTISt23_Sp_counted_ptr_inplaceIN4heif8Box_irotESaIS1_ELN9__gnu_cxx12_Lock_policyE2EE DATA
_ZTISt23_Sp_counted_ptr_inplaceIN4heif8Box_ispeESaIS1_ELN9__gnu_cxx12_Lock_policyE2EE DATA
_ZTISt23_Sp_counted_ptr_inplaceIN4heif8Box_metaESaIS1_ELN9__gnu_cxx12_Lock_policyE2EE DATA
_ZTISt23_Sp_counted_ptr_inplaceIN4heif8Box_pitmESaIS1_ELN9__gnu_cxx12_Lock_policyE2EE DATA
_ZTISt23_Sp_counted_ptr_inplaceIN4heif8Box_pixiESaIS1_ELN9__gnu_cxx12_Lock_policyE2EE DATA
_ZTISt23_Sp_counted_ptr_inplaceIN4heif8HeifFileESaIS1_ELN9__gnu_cxx12_Lock_policyE2EE DATA
_ZTISt9exception DATA
_ZTS30heif_depth_representation_info DATA
_ZTSN4heif10SEIMessageE DATA
_ZTSN4heif12StreamReaderE DATA
_ZTSN4heif13color_profileE DATA
_ZTSN4heif17StreamReader_CApiE DATA
_ZTSN4heif17color_profile_rawE DATA
_ZTSN4heif18color_profile_nclxE DATA
_ZTSN4heif19StreamReader_memoryE DATA
_ZTSN4heif20StreamReader_istreamE DATA
_ZTSN4heif36SEIMessage_depth_representation_infoE DATA
_ZTSN4heif3BoxE DATA
_ZTSN4heif7Box_urlE DATA
_ZTSN4heif8Box_auxCE DATA
_ZTSN4heif8Box_clapE DATA
_ZTSN4heif8Box_colrE DATA
_ZTSN4heif8Box_dinfE DATA
_ZTSN4heif8Box_drefE DATA
_ZTSN4heif8Box_ftypE DATA
_ZTSN4heif8Box_grplE DATA
_ZTSN4heif8Box_hdlrE DATA
_ZTSN4heif8Box_hvcCE DATA
_ZTSN4heif8Box_idatE DATA
_ZTSN4heif8Box_iinfE DATA
_ZTSN4heif8Box_ilocE DATA
_ZTSN4heif8Box_imirE DATA
_ZTSN4heif8Box_infeE DATA
_ZTSN4heif8Box_ipcoE DATA
_ZTSN4heif8Box_ipmaE DATA
_ZTSN4heif8Box_iprpE DATA
_ZTSN4heif8Box_irefE DATA
_ZTSN4heif8Box_irotE DATA
_ZTSN4heif8Box_ispeE DATA
_ZTSN4heif8Box_metaE DATA
_ZTSN4heif8Box_pitmE DATA
_ZTSN4heif8Box_pixiE DATA
_ZTSN4heif9BoxHeaderE DATA
_ZTSSt11_Mutex_baseILN9__gnu_cxx12_Lock_policyE2EE DATA
_ZTSSt12bad_weak_ptr DATA
_ZTSSt16_Sp_counted_baseILN9__gnu_cxx12_Lock_policyE2EE DATA
_ZTSSt19_Sp_make_shared_tag DATA
_ZTSSt23_Sp_counted_ptr_inplaceIN4heif11HeifContext5ImageESaIS2_ELN9__gnu_cxx12_Lock_policyE2EE DATA
_ZTSSt23_Sp_counted_ptr_inplaceIN4heif11HeifContextESaIS1_ELN9__gnu_cxx12_Lock_policyE2EE DATA
_ZTSSt23_Sp_counted_ptr_inplaceIN4heif13ImageMetadataESaIS1_ELN9__gnu_cxx12_Lock_policyE2EE DATA
_ZTSSt23_Sp_counted_ptr_inplaceIN4heif14HeifPixelImageESaIS1_ELN9__gnu_cxx12_Lock_policyE2EE DATA
_ZTSSt23_Sp_counted_ptr_inplaceIN4heif17StreamReader_CApiESaIS1_ELN9__gnu_cxx12_Lock_policyE2EE DATA
_ZTSSt23_Sp_counted_ptr_inplaceIN4heif17color_profile_rawESaIS1_ELN9__gnu_cxx12_Lock_policyE2EE DATA
_ZTSSt23_Sp_counted_ptr_inplaceIN4heif18color_profile_nclxESaIS1_ELN9__gnu_cxx12_Lock_policyE2EE DATA
_ZTSSt23_Sp_counted_ptr_inplaceIN4heif19StreamReader_memoryESaIS1_ELN9__gnu_cxx12_Lock_policyE2EE DATA
_ZTSSt23_Sp_counted_ptr_inplaceIN4heif20StreamReader_istreamESaIS1_ELN9__gnu_cxx12_Lock_policyE2EE DATA
_ZTSSt23_Sp_counted_ptr_inplaceIN4heif36SEIMessage_depth_representation_infoESaIS1_ELN9__gnu_cxx12_Lock_policyE2EE DATA
_ZTSSt23_Sp_counted_ptr_inplaceIN4heif3BoxESaIS1_ELN9__gnu_cxx12_Lock_policyE2EE DATA
_ZTSSt23_Sp_counted_ptr_inplaceIN4heif7Box_urlESaIS1_ELN9__gnu_cxx12_Lock_policyE2EE DATA
_ZTSSt23_Sp_counted_ptr_inplaceIN4heif8Box_auxCESaIS1_ELN9__gnu_cxx12_Lock_policyE2EE DATA
_ZTSSt23_Sp_counted_ptr_inplaceIN4heif8Box_clapESaIS1_ELN9__gnu_cxx12_Lock_policyE2EE DATA
_ZTSSt23_Sp_counted_ptr_inplaceIN4heif8Box_colrESaIS1_ELN9__gnu_cxx12_Lock_policyE2EE DATA
_ZTSSt23_Sp_counted_ptr_inplaceIN4heif8Box_dinfESaIS1_ELN9__gnu_cxx12_Lock_policyE2EE DATA
_ZTSSt23_Sp_counted_ptr_inplaceIN4heif8Box_drefESaIS1_ELN9__gnu_cxx12_Lock_policyE2EE DATA
_ZTSSt23_Sp_counted_ptr_inplaceIN4heif8Box_ftypESaIS1_ELN9__gnu_cxx12_Lock_policyE2EE DATA
_ZTSSt23_Sp_counted_ptr_inplaceIN4heif8Box_grplESaIS1_ELN9__gnu_cxx12_Lock_policyE2EE DATA
_ZTSSt23_Sp_counted_ptr_inplaceIN4heif8Box_hdlrESaIS1_ELN9__gnu_cxx12_Lock_policyE2EE DATA
_ZTSSt23_Sp_counted_ptr_inplaceIN4heif8Box_hvcCESaIS1_ELN9__gnu_cxx12_Lock_policyE2EE DATA
_ZTSSt23_Sp_counted_ptr_inplaceIN4heif8Box_idatESaIS1_ELN9__gnu_cxx12_Lock_policyE2EE DATA
_ZTSSt23_Sp_counted_ptr_inplaceIN4heif8Box_iinfESaIS1_ELN9__gnu_cxx12_Lock_policyE2EE DATA
_ZTSSt23_Sp_counted_ptr_inplaceIN4heif8Box_ilocESaIS1_ELN9__gnu_cxx12_Lock_policyE2EE DATA
_ZTSSt23_Sp_counted_ptr_inplaceIN4heif8Box_imirESaIS1_ELN9__gnu_cxx12_Lock_policyE2EE DATA
_ZTSSt23_Sp_counted_ptr_inplaceIN4heif8Box_infeESaIS1_ELN9__gnu_cxx12_Lock_policyE2EE DATA
_ZTSSt23_Sp_counted_ptr_inplaceIN4heif8Box_ipcoESaIS1_ELN9__gnu_cxx12_Lock_policyE2EE DATA
_ZTSSt23_Sp_counted_ptr_inplaceIN4heif8Box_ipmaESaIS1_ELN9__gnu_cxx12_Lock_policyE2EE DATA
_ZTSSt23_Sp_counted_ptr_inplaceIN4heif8Box_iprpESaIS1_ELN9__gnu_cxx12_Lock_policyE2EE DATA
_ZTSSt23_Sp_counted_ptr_inplaceIN4heif8Box_irefESaIS1_ELN9__gnu_cxx12_Lock_policyE2EE DATA
_ZTSSt23_Sp_counted_ptr_inplaceIN4heif8Box_irotESaIS1_ELN9__gnu_cxx12_Lock_policyE2EE DATA
_ZTSSt23_Sp_counted_ptr_inplaceIN4heif8Box_ispeESaIS1_ELN9__gnu_cxx12_Lock_policyE2EE DATA
_ZTSSt23_Sp_counted_ptr_inplaceIN4heif8Box_metaESaIS1_ELN9__gnu_cxx12_Lock_policyE2EE DATA
_ZTSSt23_Sp_counted_ptr_inplaceIN4heif8Box_pitmESaIS1_ELN9__gnu_cxx12_Lock_policyE2EE DATA
_ZTSSt23_Sp_counted_ptr_inplaceIN4heif8Box_pixiESaIS1_ELN9__gnu_cxx12_Lock_policyE2EE DATA
_ZTSSt23_Sp_counted_ptr_inplaceIN4heif8HeifFileESaIS1_ELN9__gnu_cxx12_Lock_policyE2EE DATA
_ZTSSt9exception DATA
_ZTVN4heif17StreamReader_CApiE DATA
_ZTVN4heif17color_profile_rawE DATA
_ZTVN4heif18color_profile_nclxE DATA
_ZTVN4heif19StreamReader_memoryE DATA
_ZTVN4heif20StreamReader_istreamE DATA
_ZTVN4heif36SEIMessage_depth_representation_infoE DATA
_ZTVN4heif3BoxE DATA
_ZTVN4heif7Box_urlE DATA
_ZTVN4heif8Box_auxCE DATA
_ZTVN4heif8Box_clapE DATA
_ZTVN4heif8Box_colrE DATA
_ZTVN4heif8Box_dinfE DATA
_ZTVN4heif8Box_drefE DATA
_ZTVN4heif8Box_ftypE DATA
_ZTVN4heif8Box_grplE DATA
_ZTVN4heif8Box_hdlrE DATA
_ZTVN4heif8Box_hvcCE DATA
_ZTVN4heif8Box_idatE DATA
_ZTVN4heif8Box_iinfE DATA
_ZTVN4heif8Box_ilocE DATA
_ZTVN4heif8Box_imirE DATA
_ZTVN4heif8Box_infeE DATA
_ZTVN4heif8Box_ipcoE DATA
_ZTVN4heif8Box_ipmaE DATA
_ZTVN4heif8Box_iprpE DATA
_ZTVN4heif8Box_irefE DATA
_ZTVN4heif8Box_irotE DATA
_ZTVN4heif8Box_ispeE DATA
_ZTVN4heif8Box_metaE DATA
_ZTVN4heif8Box_pitmE DATA
_ZTVN4heif8Box_pixiE DATA
_ZTVN4heif9BoxHeaderE DATA
_ZTVSt23_Sp_counted_ptr_inplaceIN4heif11HeifContext5ImageESaIS2_ELN9__gnu_cxx12_Lock_policyE2EE DATA
_ZTVSt23_Sp_counted_ptr_inplaceIN4heif11HeifContextESaIS1_ELN9__gnu_cxx12_Lock_policyE2EE DATA
_ZTVSt23_Sp_counted_ptr_inplaceIN4heif13ImageMetadataESaIS1_ELN9__gnu_cxx12_Lock_policyE2EE DATA
_ZTVSt23_Sp_counted_ptr_inplaceIN4heif14HeifPixelImageESaIS1_ELN9__gnu_cxx12_Lock_policyE2EE DATA
_ZTVSt23_Sp_counted_ptr_inplaceIN4heif17StreamReader_CApiESaIS1_ELN9__gnu_cxx12_Lock_policyE2EE DATA
_ZTVSt23_Sp_counted_ptr_inplaceIN4heif17color_profile_rawESaIS1_ELN9__gnu_cxx12_Lock_policyE2EE DATA
_ZTVSt23_Sp_counted_ptr_inplaceIN4heif18color_profile_nclxESaIS1_ELN9__gnu_cxx12_Lock_policyE2EE DATA
_ZTVSt23_Sp_counted_ptr_inplaceIN4heif19StreamReader_memoryESaIS1_ELN9__gnu_cxx12_Lock_policyE2EE DATA
_ZTVSt23_Sp_counted_ptr_inplaceIN4heif20StreamReader_istreamESaIS1_ELN9__gnu_cxx12_Lock_policyE2EE DATA
_ZTVSt23_Sp_counted_ptr_inplaceIN4heif36SEIMessage_depth_representation_infoESaIS1_ELN9__gnu_cxx12_Lock_policyE2EE DATA
_ZTVSt23_Sp_counted_ptr_inplaceIN4heif3BoxESaIS1_ELN9__gnu_cxx12_Lock_policyE2EE DATA
_ZTVSt23_Sp_counted_ptr_inplaceIN4heif7Box_urlESaIS1_ELN9__gnu_cxx12_Lock_policyE2EE DATA
_ZTVSt23_Sp_counted_ptr_inplaceIN4heif8Box_auxCESaIS1_ELN9__gnu_cxx12_Lock_policyE2EE DATA
_ZTVSt23_Sp_counted_ptr_inplaceIN4heif8Box_clapESaIS1_ELN9__gnu_cxx12_Lock_policyE2EE DATA
_ZTVSt23_Sp_counted_ptr_inplaceIN4heif8Box_colrESaIS1_ELN9__gnu_cxx12_Lock_policyE2EE DATA
_ZTVSt23_Sp_counted_ptr_inplaceIN4heif8Box_dinfESaIS1_ELN9__gnu_cxx12_Lock_policyE2EE DATA
_ZTVSt23_Sp_counted_ptr_inplaceIN4heif8Box_drefESaIS1_ELN9__gnu_cxx12_Lock_policyE2EE DATA
_ZTVSt23_Sp_counted_ptr_inplaceIN4heif8Box_ftypESaIS1_ELN9__gnu_cxx12_Lock_policyE2EE DATA
_ZTVSt23_Sp_counted_ptr_inplaceIN4heif8Box_grplESaIS1_ELN9__gnu_cxx12_Lock_policyE2EE DATA
_ZTVSt23_Sp_counted_ptr_inplaceIN4heif8Box_hdlrESaIS1_ELN9__gnu_cxx12_Lock_policyE2EE DATA
_ZTVSt23_Sp_counted_ptr_inplaceIN4heif8Box_hvcCESaIS1_ELN9__gnu_cxx12_Lock_policyE2EE DATA
_ZTVSt23_Sp_counted_ptr_inplaceIN4heif8Box_idatESaIS1_ELN9__gnu_cxx12_Lock_policyE2EE DATA
_ZTVSt23_Sp_counted_ptr_inplaceIN4heif8Box_iinfESaIS1_ELN9__gnu_cxx12_Lock_policyE2EE DATA
_ZTVSt23_Sp_counted_ptr_inplaceIN4heif8Box_ilocESaIS1_ELN9__gnu_cxx12_Lock_policyE2EE DATA
_ZTVSt23_Sp_counted_ptr_inplaceIN4heif8Box_imirESaIS1_ELN9__gnu_cxx12_Lock_policyE2EE DATA
_ZTVSt23_Sp_counted_ptr_inplaceIN4heif8Box_infeESaIS1_ELN9__gnu_cxx12_Lock_policyE2EE DATA
_ZTVSt23_Sp_counted_ptr_inplaceIN4heif8Box_ipcoESaIS1_ELN9__gnu_cxx12_Lock_policyE2EE DATA
_ZTVSt23_Sp_counted_ptr_inplaceIN4heif8Box_ipmaESaIS1_ELN9__gnu_cxx12_Lock_policyE2EE DATA
_ZTVSt23_Sp_counted_ptr_inplaceIN4heif8Box_iprpESaIS1_ELN9__gnu_cxx12_Lock_policyE2EE DATA
_ZTVSt23_Sp_counted_ptr_inplaceIN4heif8Box_irefESaIS1_ELN9__gnu_cxx12_Lock_policyE2EE DATA
_ZTVSt23_Sp_counted_ptr_inplaceIN4heif8Box_irotESaIS1_ELN9__gnu_cxx12_Lock_policyE2EE DATA
_ZTVSt23_Sp_counted_ptr_inplaceIN4heif8Box_ispeESaIS1_ELN9__gnu_cxx12_Lock_policyE2EE DATA
_ZTVSt23_Sp_counted_ptr_inplaceIN4heif8Box_metaESaIS1_ELN9__gnu_cxx12_Lock_policyE2EE DATA
_ZTVSt23_Sp_counted_ptr_inplaceIN4heif8Box_pitmESaIS1_ELN9__gnu_cxx12_Lock_policyE2EE DATA
_ZTVSt23_Sp_counted_ptr_inplaceIN4heif8Box_pixiESaIS1_ELN9__gnu_cxx12_Lock_policyE2EE DATA
_ZTVSt23_Sp_counted_ptr_inplaceIN4heif8HeifFileESaIS1_ELN9__gnu_cxx12_Lock_policyE2EE DATA
cUnknownError DATA
heif_check_filetype
heif_context_add_XMP_metadata
heif_context_add_exif_metadata
heif_context_alloc
heif_context_assign_thumbnail
heif_context_debug_dump_boxes_to_file
heif_context_encode_image
heif_context_encode_thumbnail
heif_context_free
heif_context_get_encoder
heif_context_get_encoder_descriptors
heif_context_get_encoder_for_format
heif_context_get_image_handle
heif_context_get_list_of_top_level_image_IDs
heif_context_get_number_of_top_level_images
heif_context_get_primary_image_ID
heif_context_get_primary_image_handle
heif_context_is_top_level_image_ID
heif_context_read_from_file
heif_context_read_from_memory
heif_context_read_from_memory_without_copy
heif_context_read_from_reader
heif_context_set_primary_image
heif_context_write
heif_context_write_to_file
heif_decode_image
heif_decoding_options_alloc
heif_decoding_options_free
heif_depth_representation_info_free
heif_encoder_descriptor_get_id_name
heif_encoder_descriptor_get_name
heif_encoder_descriptor_supportes_lossless_compression
heif_encoder_descriptor_supportes_lossy_compression
heif_encoder_get_name
heif_encoder_get_parameter
heif_encoder_get_parameter_boolean
heif_encoder_get_parameter_integer
heif_encoder_get_parameter_string
heif_encoder_has_default
heif_encoder_list_parameters
heif_encoder_parameter_get_name
heif_encoder_parameter_get_type
heif_encoder_parameter_get_valid_integer_range
heif_encoder_parameter_get_valid_string_values
heif_encoder_parameter_integer_valid_range
heif_encoder_parameter_string_valid_values
heif_encoder_release
heif_encoder_set_logging_level
heif_encoder_set_lossless
heif_encoder_set_lossy_quality
heif_encoder_set_parameter
heif_encoder_set_parameter_boolean
heif_encoder_set_parameter_integer
heif_encoder_set_parameter_string
heif_encoding_options_alloc
heif_encoding_options_free
heif_error_invalid_parameter_value DATA
heif_error_ok DATA
heif_error_unsupported_parameter DATA
heif_get_version
heif_get_version_number
heif_get_version_number_maintenance
heif_get_version_number_major
heif_get_version_number_minor
heif_have_decoder_for_format
heif_have_encoder_for_format
heif_image_add_plane
heif_image_create
heif_image_get_bits_per_pixel
heif_image_get_chroma_format
heif_image_get_colorspace
heif_image_get_height
heif_image_get_plane
heif_image_get_plane_readonly
heif_image_get_width
heif_image_handle_get_chroma_bits_per_pixel
heif_image_handle_get_color_profile_type
heif_image_handle_get_depth_image_handle
heif_image_handle_get_depth_image_representation_info
heif_image_handle_get_height
heif_image_handle_get_ispe_height
heif_image_handle_get_ispe_width
heif_image_handle_get_list_of_depth_image_IDs
heif_image_handle_get_list_of_metadata_block_IDs
heif_image_handle_get_list_of_thumbnail_IDs
heif_image_handle_get_luma_bits_per_pixel
heif_image_handle_get_metadata
heif_image_handle_get_metadata_content_type
heif_image_handle_get_metadata_size
heif_image_handle_get_metadata_type
heif_image_handle_get_nclx_color_profile
heif_image_handle_get_number_of_depth_images
heif_image_handle_get_number_of_metadata_blocks
heif_image_handle_get_number_of_thumbnails
heif_image_handle_get_raw_color_profile
heif_image_handle_get_raw_color_profile_size
heif_image_handle_get_thumbnail
heif_image_handle_get_width
heif_image_handle_has_alpha_channel
heif_image_handle_has_depth_image
heif_image_handle_is_primary_image
heif_image_handle_release
heif_image_has_channel
heif_image_release
heif_image_scale_image
heif_image_set_nclx_color_profile
heif_image_set_raw_color_profile
heif_main_brand
heif_register_decoder
heif_register_decoder_plugin
heif_register_encoder_plugin
s_encoder_descriptors DATA
