;
; Definition file of libpoppler-89.dll
; Automatic generated by gendef
; written by Kai Tietz 2008
;
LIBRARY "libpoppler-89.dll"
EXPORTS
_Z10GoffsetMaxv
_Z11UTF16toUCS4PKjiPPj
_Z11localtime_rPKxP2tm
_Z11utf16ToUtf8PKtPcii
_Z11utf16ToUtf8PKtPi
_Z11utf8ToUtf16PKcPi
_Z11utf8ToUtf16PKcPtii
_Z12appendToPathP9GooStringPKc
_Z12grandom_fillPhi
_Z12unicodeTypeLj
_Z12unicodeTypeRj
_Z13gbase64EncodeB5cxx11PKvy
_Z14UnicodeIsValidj
_Z14grandom_doublev
_Z14unicodeToUpperj
_Z14unicodeTypeNumj
_Z15getFileSpecNamePK6Object
_Z15parseDateStringPKcPiS1_S1_S1_S1_S1_PcS1_S1_
_Z15unicodeToAscii7PjiPS_PiS1_PS1_
_Z16TextStringToUCS4PK9GooStringPPj
_Z16dateStringToTimePK9GooString
_Z16setErrorCallbackPFvPv13ErrorCategoryxPKcES_
_Z16timeToDateStringPx
_Z19UnicodeIsWhitespacej
_Z19unicodeTypeAlphaNumj
_Z19utf16CountUtf8BytesPKt
_Z20unicodeNormalizeNFKCPjiPiPS0_
_Z20unicodeNormalizeNFKCPjiPiPS0_b
_Z21freeBuiltinFontTablesv
_Z21initBuiltinFontTablesv
_Z21pdfDocEncodingToUTF16PK9GooStringPi
_Z23utf8CountUtf16CodeUnitsPKc
_Z26getFileSpecNameForPlatformPK6Object
_Z35unicodeIsAlphabeticPresentationFormj
_Z3md5PKhiPh
_Z5error13ErrorCategoryxPKcz
_Z6GfseekP6_iobufxi
_Z6GftellP6_iobuf
_Z6printfPKcz
_Z6sscanfPKcS0_z
_Z6timegmP2tm
_Z7fprintfP6_iobufPKcz
_Z7getLinePciP6_iobuf
_Z7mapUTF8jPci
_Z7sprintfPcPKcz
_Z8gmallocniib
_Z8gmtime_rPKxP2tm
_Z8mapUTF16jPci
_Z8openFilePKcS0_
_Z8snprintfPcyPKcz
_Z9gbasenameB5cxx11PKc
_Z9greallocnPviibb
_ZGVZNKSt8__detail11_AnyMatcherINSt7__cxx1112regex_traitsIcEELb0ELb0ELb0EEclEcE5__nul DATA
_ZGVZNKSt8__detail11_AnyMatcherINSt7__cxx1112regex_traitsIcEELb0ELb0ELb1EEclEcE5__nul DATA
_ZGVZNKSt8__detail11_AnyMatcherINSt7__cxx1112regex_traitsIcEELb0ELb1ELb0EEclEcE5__nul DATA
_ZGVZNKSt8__detail11_AnyMatcherINSt7__cxx1112regex_traitsIcEELb0ELb1ELb1EEclEcE5__nul DATA
_ZN10ActualText3endEP8GfxState
_ZN10ActualText5beginEP8GfxStatePK9GooString
_ZN10ActualText7addCharEP8GfxStateddddjiPji
_ZN10ActualTextC1EP8TextPage
_ZN10ActualTextC2EP8TextPage
_ZN10ActualTextD1Ev
_ZN10ActualTextD2Ev
_ZN10AnnotCaret10initializeEP6PDFDocP4Dict
_ZN10AnnotCaret9setSymbolENS_16AnnotCaretSymbolE
_ZN10AnnotCaretC1EP6PDFDocO6ObjectPKS2_
_ZN10AnnotCaretC1EP6PDFDocP12PDFRectangle
_ZN10AnnotCaretC2EP6PDFDocO6ObjectPKS2_
_ZN10AnnotCaretC2EP6PDFDocP12PDFRectangle
_ZN10AnnotCaretD0Ev
_ZN10AnnotCaretD1Ev
_ZN10AnnotCaretD2Ev
_ZN10AnnotColor11adjustColorEi
_ZN10AnnotColorC1EP5Arrayi
_ZN10AnnotColorC1Ed
_ZN10AnnotColorC1Eddd
_ZN10AnnotColorC1Edddd
_ZN10AnnotColorC1Ev
_ZN10AnnotColorC2EP5Arrayi
_ZN10AnnotColorC2Ed
_ZN10AnnotColorC2Eddd
_ZN10AnnotColorC2Edddd
_ZN10AnnotColorC2Ev
_ZN10AnnotMovie10initializeEP6PDFDocP4Dict
_ZN10AnnotMovie4drawEP3Gfxb
_ZN10AnnotMovieC1EP6PDFDocO6ObjectPKS2_
_ZN10AnnotMovieC1EP6PDFDocP12PDFRectangleP5Movie
_ZN10AnnotMovieC2EP6PDFDocO6ObjectPKS2_
_ZN10AnnotMovieC2EP6PDFDocP12PDFRectangleP5Movie
_ZN10AnnotMovieD0Ev
_ZN10AnnotMovieD1Ev
_ZN10AnnotMovieD2Ev
_ZN10AnnotPopup10initializeEP6PDFDocP4Dict
_ZN10AnnotPopup7setOpenEb
_ZN10AnnotPopup9setParentEP5Annot
_ZN10AnnotPopupC1EP6PDFDocO6ObjectPKS2_
_ZN10AnnotPopupC1EP6PDFDocP12PDFRectangle
_ZN10AnnotPopupC2EP6PDFDocO6ObjectPKS2_
_ZN10AnnotPopupC2EP6PDFDocP12PDFRectangle
_ZN10AnnotPopupD0Ev
_ZN10AnnotPopupD1Ev
_ZN10AnnotPopupD2Ev
_ZN10AnnotSound10initializeEP6PDFDocP4Dict
_ZN10AnnotSound4drawEP3Gfxb
_ZN10AnnotSoundC1EP6PDFDocO6ObjectPKS2_
_ZN10AnnotSoundC1EP6PDFDocP12PDFRectangleP5Sound
_ZN10AnnotSoundC2EP6PDFDocO6ObjectPKS2_
_ZN10AnnotSoundC2EP6PDFDocP12PDFRectangleP5Sound
_ZN10AnnotSoundD0Ev
_ZN10AnnotSoundD1Ev
_ZN10AnnotSoundD2Ev
_ZN10AnnotStamp10initializeEP6PDFDocP4Dict
_ZN10AnnotStamp7setIconEP9GooString
_ZN10AnnotStampC1EP6PDFDocO6ObjectPKS2_
_ZN10AnnotStampC1EP6PDFDocP12PDFRectangle
_ZN10AnnotStampC2EP6PDFDocO6ObjectPKS2_
_ZN10AnnotStampC2EP6PDFDocP12PDFRectangle
_ZN10AnnotStampD0Ev
_ZN10AnnotStampD1Ev
_ZN10AnnotStampD2Ev
_ZN10BaseStream11getFileNameEv
_ZN10BaseStream13getBaseStreamEv
_ZN10BaseStream13getDictObjectEv
_ZN10BaseStream18getUndecodedStreamEv
_ZN10BaseStream7getDictEv
_ZN10BaseStream8isBinaryEb
_ZN10BaseStream9getLengthEv
_ZN10BaseStreamC1EO6Objectx
_ZN10BaseStreamC2EO6Objectx
_ZN10BaseStreamD0Ev
_ZN10BaseStreamD1Ev
_ZN10BaseStreamD2Ev
_ZN10CachedFile4readEPvyy
_ZN10CachedFile4seekEli
_ZN10CachedFile4tellEv
_ZN10CachedFile5cacheERKSt6vectorI10_ByteRangeSaIS1_EE
_ZN10CachedFile5cacheEyy
_ZN10CachedFile9decRefCntEv
_ZN10CachedFile9incRefCntEv
_ZN10CachedFileC1EP16CachedFileLoaderP9GooString
_ZN10CachedFileC2EP16CachedFileLoaderP9GooString
_ZN10CachedFileD1Ev
_ZN10CachedFileD2Ev
_ZN10FileStream11hasGetCharsEv
_ZN10FileStream13makeSubStreamExbxO6Object
_ZN10FileStream15unfilteredResetEv
_ZN10FileStream17getUnfilteredCharEv
_ZN10FileStream4copyEv
_ZN10FileStream5closeEv
_ZN10FileStream5resetEv
_ZN10FileStream6getPosEv
_ZN10FileStream6setPosExi
_ZN10FileStream7fillBufEv
_ZN10FileStream7getCharEv
_ZN10FileStream7getKindEv
_ZN10FileStream8getCharsEiPh
_ZN10FileStream8getStartEv
_ZN10FileStream8lookCharEv
_ZN10FileStream9moveStartEx
_ZN10FileStreamC1EP7GooFilexbxO6Object
_ZN10FileStreamC2EP7GooFilexbxO6Object
_ZN10FileStreamD0Ev
_ZN10FileStreamD1Ev
_ZN10FileStreamD2Ev
_ZN10FoFiType1C11readCharsetEv
_ZN10FoFiType1C11readTopDictEv
_ZN10FoFiType1C12readFDSelectEv
_ZN10FoFiType1C13buildEncodingEv
_ZN10FoFiType1C13cvtGlyphWidthEbP9GooStringP17Type1CPrivateDict
_ZN10FoFiType1C13eexecCvtGlyphEP14Type1CEexecBufPKciiP11Type1CIndexP17Type1CPrivateDict
_ZN10FoFiType1C14convertToType0EPKcPiiPFvPvS1_iES3_
_ZN10FoFiType1C14convertToType1EPKcPS1_bPFvPvS1_iES3_
_ZN10FoFiType1C15readPrivateDictEiiP17Type1CPrivateDict
_ZN10FoFiType1C17convertToCIDType0EPKcPiiPFvPvS1_iES3_
_ZN10FoFiType1C4loadEPKc
_ZN10FoFiType1C4makeEPKci
_ZN10FoFiType1C5getOpEibPb
_ZN10FoFiType1C5parseEv
_ZN10FoFiType1C6readFDEiiP17Type1CPrivateDict
_ZN10FoFiType1C8cvtGlyphEiiP9GooStringP11Type1CIndexP17Type1CPrivateDictb
_ZN10FoFiType1CC1EPKcib
_ZN10FoFiType1CC2EPKcib
_ZN10FoFiType1CD0Ev
_ZN10FoFiType1CD1Ev
_ZN10FoFiType1CD2Ev
_ZN10FormWidget11setReadOnlyEb
_ZN10FormWidget14setPartialNameERK9GooString
_ZN10FormWidget19getActivationActionEv
_ZN10FormWidget19getAdditionalActionEN5Annot25FormAdditionalActionsTypeE
_ZN10FormWidget19setAdditionalActionEN5Annot25FormAdditionalActionsTypeERK9GooString
_ZN10FormWidget21getFullyQualifiedNameEv
_ZN10FormWidget22createWidgetAnnotationEv
_ZN10FormWidget5printEi
_ZN10FormWidget8decodeIDEjPjS0_
_ZN10FormWidget8encodeIDEjj
_ZN10FormWidgetC1EP6PDFDocP6Objectj3RefP9FormField
_ZN10FormWidgetC2EP6PDFDocP6Objectj3RefP9FormField
_ZN10FormWidgetD0Ev
_ZN10FormWidgetD1Ev
_ZN10FormWidgetD2Ev
_ZN10GfxCIDFont12mapCodeToGIDEP12FoFiTrueTypeijb
_ZN10GfxCIDFont15getCodeToGIDMapEP12FoFiTrueTypePi
_ZN10GfxCIDFont8getWModeEv
_ZN10GfxCIDFontC1EP4XRefPKc3RefP9GooString11GfxFontTypeS4_P4Dict
_ZN10GfxCIDFontC2EP4XRefPKc3RefP9GooString11GfxFontTypeS4_P4Dict
_ZN10GfxCIDFontD0Ev
_ZN10GfxCIDFontD1Ev
_ZN10GfxCIDFontD2Ev
_ZN10GfxFontLocC1Ev
_ZN10GfxFontLocC2Ev
_ZN10GfxFontLocD1Ev
_ZN10GfxFontLocD2Ev
_ZN10GfxPattern5parseEP12GfxResourcesP6ObjectP9OutputDevP8GfxStatei
_ZN10GfxPatternC1Eii
_ZN10GfxPatternC2Eii
_ZN10GfxPatternD0Ev
_ZN10GfxPatternD1Ev
_ZN10GfxPatternD2Ev
_ZN10GfxShading4initEP12GfxResourcesP4DictP9OutputDevP8GfxState
_ZN10GfxShading5parseEP12GfxResourcesP6ObjectP9OutputDevP8GfxState
_ZN10GfxShadingC1EPS_
_ZN10GfxShadingC1Ei
_ZN10GfxShadingC2EPS_
_ZN10GfxShadingC2Ei
_ZN10GfxShadingD0Ev
_ZN10GfxShadingD1Ev
_ZN10GfxShadingD2Ev
_ZN10GfxSubpath5closeEv
_ZN10GfxSubpath6lineToEdd
_ZN10GfxSubpath6offsetEdd
_ZN10GfxSubpath7curveToEdddddd
_ZN10GfxSubpathC1EPKS_
_ZN10GfxSubpathC1Edd
_ZN10GfxSubpathC2EPKS_
_ZN10GfxSubpathC2Edd
_ZN10GfxSubpathD1Ev
_ZN10GfxSubpathD2Ev
_ZN10JpegWriter10setQualityEi
_ZN10JpegWriter11setOptimizeEb
_ZN10JpegWriter11supportCMYKEv
_ZN10JpegWriter13writePointersEPPhi
_ZN10JpegWriter14setProgressiveEb
_ZN10JpegWriter4initEP6_iobufiiii
_ZN10JpegWriter5closeEv
_ZN10JpegWriter8writeRowEPPh
_ZN10JpegWriterC1ENS_6FormatE
_ZN10JpegWriterC1EibNS_6FormatE
_ZN10JpegWriterC2ENS_6FormatE
_ZN10JpegWriterC2EibNS_6FormatE
_ZN10JpegWriterD0Ev
_ZN10JpegWriterD1Ev
_ZN10JpegWriterD2Ev
_ZN10LZWEncoder11getPSFilterEiPKc
_ZN10LZWEncoder5resetEv
_ZN10LZWEncoder7fillBufEv
_ZN10LZWEncoder7getCharEv
_ZN10LZWEncoder7getKindEv
_ZN10LZWEncoder8isBinaryEb
_ZN10LZWEncoder8lookCharEv
_ZN10LZWEncoder9isEncoderEv
_ZN10LZWEncoderC1EP6Stream
_ZN10LZWEncoderC2EP6Stream
_ZN10LZWEncoderD0Ev
_ZN10LZWEncoderD1Ev
_ZN10LZWEncoderD2Ev
_ZN10LinkAction11parseActionEPK6ObjectPK9GooString
_ZN10LinkAction11parseActionEPK6ObjectPK9GooStringPSt3setIiSt4lessIiESaIiEE
_ZN10LinkAction14setNextActionsEPSt6vectorIPS_SaIS1_EE
_ZN10LinkAction9parseDestEPK6Object
_ZN10LinkActionC1Ev
_ZN10LinkActionC2Ev
_ZN10LinkActionD0Ev
_ZN10LinkActionD1Ev
_ZN10LinkActionD2Ev
_ZN10LinkLaunchC1EPK6Object
_ZN10LinkLaunchC2EPK6Object
_ZN10LinkLaunchD0Ev
_ZN10LinkLaunchD1Ev
_ZN10LinkLaunchD2Ev
_ZN10TiffWriter11supportCMYKEv
_ZN10TiffWriter13writePointersEPPhi
_ZN10TiffWriter20setCompressionStringEPKc
_ZN10TiffWriter4initEP6_iobufiiii
_ZN10TiffWriter5closeEv
_ZN10TiffWriter8writeRowEPPh
_ZN10TiffWriterC1ENS_6FormatE
_ZN10TiffWriterC2ENS_6FormatE
_ZN10TiffWriterD0Ev
_ZN10TiffWriterD1Ev
_ZN10TiffWriterD2Ev
_ZN10UnicodeMap10mapUnicodeEjPci
_ZN10UnicodeMap4swapERS_
_ZN10UnicodeMap5parseEP9GooString
_ZN10UnicodeMap9decRefCntEv
_ZN10UnicodeMap9incRefCntEv
_ZN10UnicodeMapC1EOS_
_ZN10UnicodeMapC1EP9GooString
_ZN10UnicodeMapC1EPKcbP15UnicodeMapRangei
_ZN10UnicodeMapC1EPKcbPFijPciE
_ZN10UnicodeMapC2EOS_
_ZN10UnicodeMapC2EP9GooString
_ZN10UnicodeMapC2EPKcbP15UnicodeMapRangei
_ZN10UnicodeMapC2EPKcbPFijPciE
_ZN10UnicodeMapD1Ev
_ZN10UnicodeMapD2Ev
_ZN10UnicodeMapaSEOS_
_ZN11AnnotBorder14parseDashArrayEP6Object
_ZN11AnnotBorder8setWidthEd
_ZN11AnnotBorderC1Ev
_ZN11AnnotBorderC2Ev
_ZN11AnnotBorderD0Ev
_ZN11AnnotBorderD1Ev
_ZN11AnnotBorderD2Ev
_ZN11AnnotMarkup10initializeEP6PDFDocP4Dict
_ZN11AnnotMarkup10setOpacityEd
_ZN11AnnotMarkup23removeReferencedObjectsEv
_ZN11AnnotMarkup7setDateEP9GooString
_ZN11AnnotMarkup8setLabelEP9GooString
_ZN11AnnotMarkup8setPopupEOSt10unique_ptrI10AnnotPopupSt14default_deleteIS1_EE
_ZN11AnnotMarkupC1EP6PDFDocO6ObjectPKS2_
_ZN11AnnotMarkupC1EP6PDFDocP12PDFRectangle
_ZN11AnnotMarkupC2EP6PDFDocO6ObjectPKS2_
_ZN11AnnotMarkupC2EP6PDFDocP12PDFRectangle
_ZN11AnnotMarkupD0Ev
_ZN11AnnotMarkupD1Ev
_ZN11AnnotMarkupD2Ev
_ZN11AnnotScreen10initializeEP6PDFDocP4Dict
_ZN11AnnotScreen19getAdditionalActionEN5Annot21AdditionalActionsTypeE
_ZN11AnnotScreenC1EP6PDFDocO6ObjectPKS2_
_ZN11AnnotScreenC1EP6PDFDocP12PDFRectangle
_ZN11AnnotScreenC2EP6PDFDocO6ObjectPKS2_
_ZN11AnnotScreenC2EP6PDFDocP12PDFRectangle
_ZN11AnnotScreenD0Ev
_ZN11AnnotScreenD1Ev
_ZN11AnnotScreenD2Ev
_ZN11AnnotWidget10initializeEP6PDFDocP4Dict
_ZN11AnnotWidget16setNewAppearanceEO6Object
_ZN11AnnotWidget19getAdditionalActionEN5Annot21AdditionalActionsTypeE
_ZN11AnnotWidget22updateAppearanceStreamEv
_ZN11AnnotWidget23generateFieldAppearanceEPb
_ZN11AnnotWidget23getFormAdditionalActionEN5Annot25FormAdditionalActionsTypeE
_ZN11AnnotWidget23setFormAdditionalActionEN5Annot25FormAdditionalActionsTypeERK9GooString
_ZN11AnnotWidget4drawEP3Gfxb
_ZN11AnnotWidgetC1EP6PDFDocO6ObjectPKS2_
_ZN11AnnotWidgetC1EP6PDFDocP6ObjectS3_P9FormField
_ZN11AnnotWidgetC2EP6PDFDocO6ObjectPKS2_
_ZN11AnnotWidgetC2EP6PDFDocP6ObjectS3_P9FormField
_ZN11AnnotWidgetD0Ev
_ZN11AnnotWidgetD1Ev
_ZN11AnnotWidgetD2Ev
_ZN11EmbedStream11hasGetCharsEv
_ZN11EmbedStream13makeSubStreamExbxO6Object
_ZN11EmbedStream15unfilteredResetEv
_ZN11EmbedStream17getUnfilteredCharEv
_ZN11EmbedStream4copyEv
_ZN11EmbedStream5resetEv
_ZN11EmbedStream6getPosEv
_ZN11EmbedStream6rewindEv
_ZN11EmbedStream6setPosExi
_ZN11EmbedStream7getCharEv
_ZN11EmbedStream7getKindEv
_ZN11EmbedStream7restoreEv
_ZN11EmbedStream8getCharsEiPh
_ZN11EmbedStream8getStartEv
_ZN11EmbedStream8lookCharEv
_ZN11EmbedStream9moveStartEx
_ZN11EmbedStreamC1EP6StreamO6Objectbxb
_ZN11EmbedStreamC2EP6StreamO6Objectbxb
_ZN11EmbedStreamD0Ev
_ZN11EmbedStreamD1Ev
_ZN11EmbedStreamD2Ev
_ZN11FlateStream10distDecodeE DATA
_ZN11FlateStream10flateResetEb
_ZN11FlateStream10getRawCharEv
_ZN11FlateStream10startBlockEv
_ZN11FlateStream11getCodeWordEi
_ZN11FlateStream11getPSFilterEiPKc
_ZN11FlateStream11getRawCharsEiPi
_ZN11FlateStream11hasGetCharsEv
_ZN11FlateStream12lengthDecodeE DATA
_ZN11FlateStream14codeLenCodeMapE DATA
_ZN11FlateStream14loadFixedCodesEv
_ZN11FlateStream15fixedLitCodeTabE DATA
_ZN11FlateStream15unfilteredResetEv
_ZN11FlateStream16compHuffmanCodesEPiiP15FlateHuffmanTab
_ZN11FlateStream16fixedDistCodeTabE DATA
_ZN11FlateStream16readDynamicCodesEv
_ZN11FlateStream18getHuffmanCodeWordEP15FlateHuffmanTab
_ZN11FlateStream5resetEv
_ZN11FlateStream7getCharEv
_ZN11FlateStream7getKindEv
_ZN11FlateStream8getCharsEiPh
_ZN11FlateStream8isBinaryEb
_ZN11FlateStream8lookCharEv
_ZN11FlateStream8readSomeEv
_ZN11FlateStreamC1EP6Streamiiii
_ZN11FlateStreamC2EP6Streamiiii
_ZN11FlateStreamD0Ev
_ZN11FlateStreamD1Ev
_ZN11FlateStreamD2Ev
_ZN11Gfx8BitFont11getCharProcEi
_ZN11Gfx8BitFont12getCharProcsEv
_ZN11Gfx8BitFont12getResourcesEv
_ZN11Gfx8BitFont13getCharProcNFEi
_ZN11Gfx8BitFont15getCodeToGIDMapEP12FoFiTrueType
_ZN11Gfx8BitFontC1EP4XRefPKc3RefP9GooString11GfxFontTypeS4_P4Dict
_ZN11Gfx8BitFontC2EP4XRefPKc3RefP9GooString11GfxFontTypeS4_P4Dict
_ZN11Gfx8BitFontD0Ev
_ZN11Gfx8BitFontD1Ev
_ZN11Gfx8BitFontD2Ev
_ZN11GfxFontDict14hashFontObjectEP6Object
_ZN11GfxFontDict15hashFontObject1EPK6ObjectP7FNVHash
_ZN11GfxFontDict6lookupEPKc
_ZN11GfxFontDictC1EP4XRefP3RefP4Dict
_ZN11GfxFontDictC2EP4XRefP3RefP4Dict
_ZN11GfxFontDictD1Ev
_ZN11GfxFontDictD2Ev
_ZN11ImageStream5closeEv
_ZN11ImageStream5resetEv
_ZN11ImageStream7getLineEv
_ZN11ImageStream8getPixelEPh
_ZN11ImageStream8skipLineEv
_ZN11ImageStreamC1EP6Streamiii
_ZN11ImageStreamC2EP6Streamiii
_ZN11ImageStreamD1Ev
_ZN11ImageStreamD2Ev
_ZN11JBIG2Bitmap10clearToOneEv
_ZN11JBIG2Bitmap11clearToZeroEv
_ZN11JBIG2Bitmap12duplicateRowEii
_ZN11JBIG2Bitmap6expandEij
_ZN11JBIG2Bitmap7combineEPS_iij
_ZN11JBIG2Bitmap7getTypeEv
_ZN11JBIG2Bitmap8getPixelEii
_ZN11JBIG2Bitmap8getSliceEjjjj
_ZN11JBIG2BitmapC1EjPS_
_ZN11JBIG2BitmapC1Ejii
_ZN11JBIG2BitmapC2EjPS_
_ZN11JBIG2BitmapC2Ejii
_ZN11JBIG2BitmapD0Ev
_ZN11JBIG2BitmapD1Ev
_ZN11JBIG2BitmapD2Ev
_ZN11JBIG2Stream11findSegmentEj
_ZN11JBIG2Stream11getPSFilterEiPKc
_ZN11JBIG2Stream11hasGetCharsEv
_ZN11JBIG2Stream12readSegmentsEv
_ZN11JBIG2Stream13resetIntStatsEi
_ZN11JBIG2Stream14discardSegmentEj
_ZN11JBIG2Stream14readTextRegionEbbiijjiP17JBIG2HuffmanTablejPP11JBIG2BitmapjjjjiS1_S1_S1_S1_S1_S1_S1_S1_jPiS5_
_ZN11JBIG2Stream15readPageInfoSegEj
_ZN11JBIG2Stream15readProfilesSegEj
_ZN11JBIG2Stream16getGlobalsStreamEv
_ZN11JBIG2Stream16readCodeTableSegEjj
_ZN11JBIG2Stream16readExtensionSegEj
_ZN11JBIG2Stream17readGenericBitmapEbiiibbP11JBIG2BitmapPiS2_i
_ZN11JBIG2Stream17readSymbolDictSegEjjPjj
_ZN11JBIG2Stream17readTextRegionSegEjbbjPjj
_ZN11JBIG2Stream17resetGenericStatsEjP23JArithmeticDecoderStats
_ZN11JBIG2Stream18readEndOfStripeSegEj
_ZN11JBIG2Stream18readPatternDictSegEjj
_ZN11JBIG2Stream19getGlobalsStreamRefEv
_ZN11JBIG2Stream20readGenericRegionSegEjbbj
_ZN11JBIG2Stream20resetRefinementStatsEjP23JArithmeticDecoderStats
_ZN11JBIG2Stream21readHalftoneRegionSegEjbbjPjj
_ZN11JBIG2Stream27readGenericRefinementRegionEiiibP11JBIG2BitmapiiPiS2_
_ZN11JBIG2Stream30readGenericRefinementRegionSegEjbbjPjj
_ZN11JBIG2Stream5closeEv
_ZN11JBIG2Stream5resetEv
_ZN11JBIG2Stream6getPosEv
_ZN11JBIG2Stream7getCharEv
_ZN11JBIG2Stream7getKindEv
_ZN11JBIG2Stream8getCharsEiPh
_ZN11JBIG2Stream8isBinaryEb
_ZN11JBIG2Stream8lookCharEv
_ZN11JBIG2Stream8readByteEPi
_ZN11JBIG2Stream8readLongEPi
_ZN11JBIG2Stream9readUByteEPj
_ZN11JBIG2Stream9readULongEPj
_ZN11JBIG2Stream9readUWordEPj
_ZN11JBIG2StreamC1EP6StreamO6ObjectPS2_
_ZN11JBIG2StreamC2EP6StreamO6ObjectPS2_
_ZN11JBIG2StreamD0Ev
_ZN11JBIG2StreamD1Ev
_ZN11JBIG2StreamD2Ev
_ZN11LinkUnknownC1EPKc
_ZN11LinkUnknownC2EPKc
_ZN11LinkUnknownD0Ev
_ZN11LinkUnknownD1Ev
_ZN11LinkUnknownD2Ev
_ZN11OutlineItem12readItemListEPS_PK6ObjectP4XRef
_ZN11OutlineItem4openEv
_ZN11OutlineItem5closeEv
_ZN11OutlineItemC1EPK4DictiPS_P4XRef
_ZN11OutlineItemC2EPK4DictiPS_P4XRef
_ZN11OutlineItemD1Ev
_ZN11OutlineItemD2Ev
_ZN11PSOutputDev10drawStringEP8GfxStatePK9GooString
_ZN11PSOutputDev10opiBegin13EP8GfxStateP4Dict
_ZN11PSOutputDev10opiBegin20EP8GfxStateP4Dict
_ZN11PSOutputDev10setupFontsEP4Dict
_ZN11PSOutputDev10setupFormsEP4Dict
_ZN11PSOutputDev10setupImageE3RefP6Streamb
_ZN11PSOutputDev10updateFontEP8GfxState
_ZN11PSOutputDev10updateRiseEP8GfxState
_ZN11PSOutputDev10upsideDownEv
_ZN11PSOutputDev10writePSBufEPKci
_ZN11PSOutputDev10writePSFmtEPKcz
_ZN11PSOutputDev11cvtFunctionEPK8Functionb
_ZN11PSOutputDev11saveTextPosEP8GfxState
_ZN11PSOutputDev11setupImagesEP4Dict
_ZN11PSOutputDev11useDrawCharEv
_ZN11PSOutputDev11useDrawFormEv
_ZN11PSOutputDev11writeHeaderEiPK12PDFRectangleS2_iPKc
_ZN11PSOutputDev11writePSCharEc
_ZN11PSOutputDev11writePSNameEPKc
_ZN11PSOutputDev12doImageL1SepEP6ObjectP16GfxImageColorMapbbP6StreamiiiPiS5_iib
_ZN11PSOutputDev12filterPSNameEPK9GooString
_ZN11PSOutputDev12opiTransformEP8GfxStateddPdS2_
_ZN11PSOutputDev12restoreStateEP8GfxState
_ZN11PSOutputDev12updateRenderEP8GfxState
_ZN11PSOutputDev12writeTrailerEv
_ZN11PSOutputDev13drawImageMaskEP8GfxStateP6ObjectP6Streamiibbb
_ZN11PSOutputDev13endTextObjectEP8GfxState
_ZN11PSOutputDev13filterPSLabelEP9GooStringPb
_ZN11PSOutputDev13updateLineCapEP8GfxState
_ZN11PSOutputDev13updateTextMatEP8GfxState
_ZN11PSOutputDev13updateTextPosEP8GfxState
_ZN11PSOutputDev13writeDocSetupEP7CatalogRKSt6vectorIiSaIiEEb
_ZN11PSOutputDev13writePSStringEPK9GooString
_ZN11PSOutputDev14addCustomColorEP23GfxSeparationColorSpace
_ZN11PSOutputDev14checkPageSliceEP4PageddibbiiiibPFbPvES2_PFbP5AnnotS2_ES2_
_ZN11PSOutputDev14makePSFontNameEP7GfxFontPK3Ref
_ZN11PSOutputDev14restoreTextPosEP8GfxState
_ZN11PSOutputDev14setupResourcesEP4Dict
_ZN11PSOutputDev14setupType3FontEP7GfxFontP9GooStringP4Dict
_ZN11PSOutputDev14updateFlatnessEP8GfxState
_ZN11PSOutputDev14updateLineDashEP8GfxState
_ZN11PSOutputDev14updateLineJoinEP8GfxState
_ZN11PSOutputDev14updateTransferEP8GfxState
_ZN11PSOutputDev14useShadedFillsEi
_ZN11PSOutputDev15addProcessColorEdddd
_ZN11PSOutputDev15axialShadedFillEP8GfxStateP15GfxAxialShadingdd
_ZN11PSOutputDev15beginTextObjectEP8GfxState
_ZN11PSOutputDev15drawMaskedImageEP8GfxStateP6ObjectP6StreamiiP16GfxImageColorMapbS5_iibb
_ZN11PSOutputDev15updateCharSpaceEP8GfxState
_ZN11PSOutputDev15updateFillColorEP8GfxState
_ZN11PSOutputDev15updateLineWidthEP8GfxState
_ZN11PSOutputDev15updateTextShiftEP8GfxStated
_ZN11PSOutputDev15updateWordSpaceEP8GfxState
_ZN11PSOutputDev15writePSTextLineEPK9GooString
_ZN11PSOutputDev16clipToStrokePathEP8GfxState
_ZN11PSOutputDev16dumpColorSpaceL2EP13GfxColorSpacebbb
_ZN11PSOutputDev16radialShadedFillEP8GfxStateP16GfxRadialShadingdd
_ZN11PSOutputDev16updateMiterLimitEP8GfxState
_ZN11PSOutputDev16writePageTrailerEv
_ZN11PSOutputDev16writeXpdfProcsetEv
_ZN11PSOutputDev17needClipToCropBoxEv
_ZN11PSOutputDev17tilingPatternFillEP8GfxStateP3GfxP7CatalogP6ObjectPKdiiP4DictS9_S9_iiiidd
_ZN11PSOutputDev17updateStrokeColorEP8GfxState
_ZN11PSOutputDev18functionShadedFillEP8GfxStateP18GfxFunctionShading
_ZN11PSOutputDev18maskToClippingPathEP6Streamiib
_ZN11PSOutputDev18updateHorizScalingEP8GfxState
_ZN11PSOutputDev19interpretType3CharsEv
_ZN11PSOutputDev19patchMeshShadedFillEP8GfxStateP19GfxPatchMeshShading
_ZN11PSOutputDev19tilingPatternFillL1EP8GfxStateP7CatalogP6ObjectPKdiiP4DictS7_S7_iiiidd
_ZN11PSOutputDev19tilingPatternFillL2EP8GfxStateP7CatalogP6ObjectPKdiiP4DictS7_S7_iiiidd
_ZN11PSOutputDev19updateFillOverprintEP8GfxState
_ZN11PSOutputDev19updateOverprintModeEP8GfxState
_ZN11PSOutputDev20updateFillColorSpaceEP8GfxState
_ZN11PSOutputDev20useTilingPatternFillEv
_ZN11PSOutputDev21updateStrokeOverprintEP8GfxState
_ZN11PSOutputDev22setupEmbeddedType1FontEP3RefP9GooString
_ZN11PSOutputDev22setupExternalType1FontEP9GooStringS1_
_ZN11PSOutputDev22updateStrokeColorSpaceEP8GfxState
_ZN11PSOutputDev23setupEmbeddedType1CFontEP7GfxFontP3RefP9GooString
_ZN11PSOutputDev23updateFontMaxValidGlyphEP7GfxFonti
_ZN11PSOutputDev24setSoftMaskFromImageMaskEP8GfxStateP6ObjectP6StreamiibbPd
_ZN11PSOutputDev25setupEmbeddedCIDType0FontEP7GfxFontP3RefP9GooString
_ZN11PSOutputDev25setupEmbeddedTrueTypeFontEP7GfxFontP3RefP9GooString
_ZN11PSOutputDev25setupExternalTrueTypeFontEP7GfxFontP9GooStringS3_
_ZN11PSOutputDev26unsetSoftMaskFromImageMaskEP8GfxStatePd
_ZN11PSOutputDev28setupEmbeddedCIDTrueTypeFontEP7GfxFontP3RefP9GooStringb
_ZN11PSOutputDev28setupEmbeddedOpenTypeCFFFontEP7GfxFontP3RefP9GooString
_ZN11PSOutputDev28setupEmbeddedOpenTypeT1CFontEP7GfxFontP3RefP9GooString
_ZN11PSOutputDev28setupExternalCIDTrueTypeFontEP7GfxFontP9GooStringS3_b
_ZN11PSOutputDev4clipEP8GfxState
_ZN11PSOutputDev4fillEP8GfxState
_ZN11PSOutputDev4initEPFvPvPKciES0_10PSFileTypePcP6PDFDocRKSt6vectorIiSaIiEE9PSOutModeiiiibiibb
_ZN11PSOutputDev4isOkEv
_ZN11PSOutputDev6doPathEP7GfxPath
_ZN11PSOutputDev6eoClipEP8GfxState
_ZN11PSOutputDev6eoFillEP8GfxState
_ZN11PSOutputDev6opiEndEP8GfxStateP4Dict
_ZN11PSOutputDev6strokeEP8GfxState
_ZN11PSOutputDev7endPageEv
_ZN11PSOutputDev7type3D0EP8GfxStatedd
_ZN11PSOutputDev7type3D1EP8GfxStatedddddd
_ZN11PSOutputDev7writePSEPKc
_ZN11PSOutputDev8drawFormE3Ref
_ZN11PSOutputDev8opiBeginEP8GfxStateP4Dict
_ZN11PSOutputDev8postInitEv
_ZN11PSOutputDev9doImageL1EP6ObjectP16GfxImageColorMapbbP6StreamiiiPiS5_iib
_ZN11PSOutputDev9doImageL2EP6ObjectP16GfxImageColorMapbbP6StreamiiiPiS5_iib
_ZN11PSOutputDev9doImageL3EP6ObjectP16GfxImageColorMapbbP6StreamiiiPiS5_iib
_ZN11PSOutputDev9drawImageEP8GfxStateP6ObjectP6StreamiiP16GfxImageColorMapbPib
_ZN11PSOutputDev9psXObjectEP6StreamS1_
_ZN11PSOutputDev9saveStateEP8GfxState
_ZN11PSOutputDev9setupFontEP7GfxFontP4Dict
_ZN11PSOutputDev9setupFormE3RefP6Object
_ZN11PSOutputDev9startPageEiP8GfxStateP4XRef
_ZN11PSOutputDev9updateCTMEP8GfxStatedddddd
_ZN11PSOutputDevC1EPFvPvPKciES0_PcP6PDFDocRKSt6vectorIiSaIiEE9PSOutModeiibbiiiibbPFP9GooStringPS_23PSOutCustomCodeLocationiS0_ES0_
_ZN11PSOutputDevC1EPKcP6PDFDocPcRKSt6vectorIiSaIiEE9PSOutModeiibbiiiibbPFP9GooStringPS_23PSOutCustomCodeLocationiPvESF_
_ZN11PSOutputDevC2EPFvPvPKciES0_PcP6PDFDocRKSt6vectorIiSaIiEE9PSOutModeiibbiiiibbPFP9GooStringPS_23PSOutCustomCodeLocationiS0_ES0_
_ZN11PSOutputDevC2EPKcP6PDFDocPcRKSt6vectorIiSaIiEE9PSOutModeiibbiiiibbPFP9GooStringPS_23PSOutCustomCodeLocationiPvESF_
_ZN11PSOutputDevD0Ev
_ZN11PSOutputDevD1Ev
_ZN11PSOutputDevD2Ev
_ZN11PSTokenizer11consumeCharEv
_ZN11PSTokenizer7getCharEv
_ZN11PSTokenizer8getTokenEPciPi
_ZN11PSTokenizer8lookCharEv
_ZN11PSTokenizerC1EPFiPvES0_
_ZN11PSTokenizerC2EPFiPvES0_
_ZN11PSTokenizerD1Ev
_ZN11PSTokenizerD2Ev
_ZN11ProfileData10addElementEd
_ZN11SysFontInfo5matchEP9GooStringbb
_ZN11SysFontInfo5matchEP9GooStringbbbb
_ZN11SysFontInfo5matchEPS_
_ZN11SysFontInfoC1EP9GooStringbbbbS1_11SysFontTypeiS1_
_ZN11SysFontInfoC2EP9GooStringbbbbS1_11SysFontTypeiS1_
_ZN11SysFontInfoD1Ev
_ZN11SysFontInfoD2Ev
_ZN11SysFontList15makeWindowsFontEPKciS1_
_ZN11SysFontList16scanWindowsFontsEP9GooString
_ZN11SysFontList4findEPK9GooStringbb
_ZN11SysFontListC1Ev
_ZN11SysFontListC2Ev
_ZN11SysFontListD1Ev
_ZN11SysFontListD2Ev
_ZN12AnnotIconFitC1EP4Dict
_ZN12AnnotIconFitC2EP4Dict
_ZN12AnnotPolygon10initializeEP6PDFDocP4Dict
_ZN12AnnotPolygon11setVerticesEP9AnnotPath
_ZN12AnnotPolygon16setInteriorColorEOSt10unique_ptrI10AnnotColorSt14default_deleteIS1_EE
_ZN12AnnotPolygon16setStartEndStyleE20AnnotLineEndingStyleS0_
_ZN12AnnotPolygon26generatePolyLineAppearanceEP22AnnotAppearanceBuilder
_ZN12AnnotPolygon4drawEP3Gfxb
_ZN12AnnotPolygon7setTypeEN5Annot12AnnotSubtypeE
_ZN12AnnotPolygon9setIntentENS_18AnnotPolygonIntentE
_ZN12AnnotPolygonC1EP6PDFDocO6ObjectPKS2_
_ZN12AnnotPolygonC1EP6PDFDocP12PDFRectangleN5Annot12AnnotSubtypeE
_ZN12AnnotPolygonC2EP6PDFDocO6ObjectPKS2_
_ZN12AnnotPolygonC2EP6PDFDocP12PDFRectangleN5Annot12AnnotSubtypeE
_ZN12AnnotPolygonD0Ev
_ZN12AnnotPolygonD1Ev
_ZN12AnnotPolygonD2Ev
_ZN12FilterStream13getBaseStreamEv
_ZN12FilterStream13getDictObjectEv
_ZN12FilterStream13getNextStreamEv
_ZN12FilterStream15unfilteredResetEv
_ZN12FilterStream17getUnfilteredCharEv
_ZN12FilterStream18getUndecodedStreamEv
_ZN12FilterStream5closeEv
_ZN12FilterStream6getPosEv
_ZN12FilterStream6setPosExi
_ZN12FilterStream7getDictEv
_ZN12FilterStreamC1EP6Stream
_ZN12FilterStreamC2EP6Stream
_ZN12FilterStreamD0Ev
_ZN12FilterStreamD1Ev
_ZN12FilterStreamD2Ev
_ZN12FlateEncoder11getPSFilterEiPKc
_ZN12FlateEncoder5resetEv
_ZN12FlateEncoder7fillBufEv
_ZN12FlateEncoder7getCharEv
_ZN12FlateEncoder7getKindEv
_ZN12FlateEncoder8isBinaryEb
_ZN12FlateEncoder8lookCharEv
_ZN12FlateEncoder9isEncoderEv
_ZN12FlateEncoderC1EP6Stream
_ZN12FlateEncoderC2EP6Stream
_ZN12FlateEncoderD0Ev
_ZN12FlateEncoderD1Ev
_ZN12FlateEncoderD2Ev
_ZN12FoFiTrueType12mapToVertGIDEj
_ZN12FoFiTrueType13readPostTableEv
_ZN12FoFiTrueType14doMapToVertGIDEj
_ZN12FoFiTrueType14scanLookupListEjj
_ZN12FoFiTrueType18checkGIDInCoverageEjj
_ZN12FoFiTrueType18scanLookupSubTableEjj
_ZN12FoFiTrueType4loadEPKci
_ZN12FoFiTrueType4makeEPKcii
_ZN12FoFiTrueType5parseEv
_ZN12FoFiTrueType9charToTagEPKc
_ZN12FoFiTrueType9setupGSUBEPKc
_ZN12FoFiTrueType9setupGSUBEPKcS1_
_ZN12FoFiTrueTypeC1EPKcibi
_ZN12FoFiTrueTypeC2EPKcibi
_ZN12FoFiTrueTypeD0Ev
_ZN12FoFiTrueTypeD1Ev
_ZN12FoFiTrueTypeD2Ev
_ZN12GfxResources10lookupFontEPKc
_ZN12GfxResources12lookupGStateEPKc
_ZN12GfxResources13lookupPatternEPKcP9OutputDevP8GfxState
_ZN12GfxResources13lookupShadingEPKcP9OutputDevP8GfxState
_ZN12GfxResources13lookupXObjectEPKc
_ZN12GfxResources14lookupGStateNFEPKc
_ZN12GfxResources15lookupXObjectNFEPKc
_ZN12GfxResources16lookupColorSpaceEPKc
_ZN12GfxResources21lookupMarkedContentNFEPKc
_ZN12GfxResourcesC1EP4XRefP4DictPS_
_ZN12GfxResourcesC2EP4XRefP4DictPS_
_ZN12GfxResourcesD1Ev
_ZN12GfxResourcesD2Ev
_ZN12GlobalParams10addCMapDirEPK9GooStringS2_
_ZN12GlobalParams10getPSLevelEv
_ZN12GlobalParams10getTextEOLEv
_ZN12GlobalParams10setPSLevelE7PSLevel
_ZN12GlobalParams10setTextEOLEPc
_ZN12GlobalParams11addFontFileEP9GooStringS1_
_ZN12GlobalParams11getErrQuietEv
_ZN12GlobalParams11parseYesNo2EPKcPb
_ZN12GlobalParams11setErrQuietEb
_ZN12GlobalParams12findCMapFileEPK9GooStringS2_
_ZN12GlobalParams12findFontFileEPK9GooString
_ZN12GlobalParams13addUnicodeMapEPK9GooStringS2_
_ZN12GlobalParams13getUnicodeMapEP9GooString
_ZN12GlobalParams14getUnicodeMap2EP9GooString
_ZN12GlobalParams14setupBaseFontsEPc
_ZN12GlobalParams15addCIDToUnicodeEPK9GooStringS2_
_ZN12GlobalParams15getCIDToUnicodeEP9GooString
_ZN12GlobalParams15getTextEncodingEv
_ZN12GlobalParams15setTextEncodingEPc
_ZN12GlobalParams16getEncodingNamesEv
_ZN12GlobalParams16getPrintCommandsEv
_ZN12GlobalParams16scanEncodingDirsEv
_ZN12GlobalParams16setPrintCommandsEb
_ZN12GlobalParams17findToUnicodeFileEPK9GooString
_ZN12GlobalParams17getEnableFreeTypeEv
_ZN12GlobalParams17getPSShrinkLargerEv
_ZN12GlobalParams17getTextPageBreaksEv
_ZN12GlobalParams17getUnicodeMapFileEPK9GooString
_ZN12GlobalParams17setEnableFreeTypeEPc
_ZN12GlobalParams17setPSShrinkLargerEb
_ZN12GlobalParams17setTextPageBreaksEb
_ZN12GlobalParams18findBase14FontFileEPK9GooStringP7GfxFont
_ZN12GlobalParams18findSystemFontFileEP7GfxFontP11SysFontTypePiP9GooStringPKS5_
_ZN12GlobalParams18getPSExpandSmallerEv
_ZN12GlobalParams18getProfileCommandsEv
_ZN12GlobalParams18parseNameToUnicodeEPK9GooString
_ZN12GlobalParams18setPSExpandSmallerEb
_ZN12GlobalParams18setProfileCommandsEb
_ZN12GlobalParams19getMacRomanCharCodeEPc
_ZN12GlobalParams19getTextEncodingNameEv
_ZN12GlobalParams19mapNameToUnicodeAllEPKc
_ZN12GlobalParams19setOverprintPreviewEb
_ZN12GlobalParams20mapNameToUnicodeTextEPKc
_ZN12GlobalParams21getResidentUnicodeMapEPK9GooString
_ZN12GlobalParams7getCMapEPK9GooStringPS0_P6Stream
_ZN12GlobalParamsC1EPKc
_ZN12GlobalParamsC2EPKc
_ZN12GlobalParamsD1Ev
_ZN12GlobalParamsD2Ev
_ZN12LinkOCGState9StateListD1Ev
_ZN12LinkOCGState9StateListD2Ev
_ZN12LinkOCGStateC1EPK6Object
_ZN12LinkOCGStateC2EPK6Object
_ZN12LinkOCGStateD0Ev
_ZN12LinkOCGStateD1Ev
_ZN12LinkOCGStateD2Ev
_ZN12NetPBMWriter13writePointersEPPhi
_ZN12NetPBMWriter4initEP6_iobufiiii
_ZN12NetPBMWriter5closeEv
_ZN12NetPBMWriter8writeRowEPPh
_ZN12NetPBMWriterC1ENS_6FormatE
_ZN12NetPBMWriterC2ENS_6FormatE
_ZN12NetPBMWriterD0Ev
_ZN12NetPBMWriterD1Ev
_ZN12ObjectStream9getObjectEii
_ZN12ObjectStreamC1EP4XRefii
_ZN12ObjectStreamC2EP4XRefii
_ZN12ObjectStreamD1Ev
_ZN12ObjectStreamD2Ev
_ZN12PDFRectangle6clipToEPS_
_ZN12PopplerCacheIx12ObjectStreamE3putERKxPS0_
_ZN12TextFontInfoC1EP8GfxState
_ZN12TextFontInfoC2EP8GfxState
_ZN12TextFontInfoD1Ev
_ZN12TextFontInfoD2Ev
_ZN12TextLineFrag12cmpXYLineRotEPKvS1_
_ZN12TextLineFrag12cmpYXLineRotEPKvS1_
_ZN12TextLineFrag13computeCoordsEb
_ZN12TextLineFrag15cmpYXPrimaryRotEPKvS1_
_ZN12TextLineFrag18cmpXYColumnLineRotEPKvS1_
_ZN12TextLineFrag21cmpXYColumnPrimaryRotEPKvS1_
_ZN12TextLineFrag4initEP8TextLineii
_ZN12TextWordList3getEi
_ZN12TextWordList9getLengthEv
_ZN12TextWordListC1EP8TextPageb
_ZN12TextWordListC2EP8TextPageb
_ZN12TextWordListD1Ev
_ZN12TextWordListD2Ev
_ZN13ASCII85Stream11getPSFilterEiPKc
_ZN13ASCII85Stream5resetEv
_ZN13ASCII85Stream7getCharEv
_ZN13ASCII85Stream7getKindEv
_ZN13ASCII85Stream8isBinaryEb
_ZN13ASCII85Stream8lookCharEv
_ZN13ASCII85StreamC1EP6Stream
_ZN13ASCII85StreamC2EP6Stream
_ZN13ASCII85StreamD0Ev
_ZN13ASCII85StreamD1Ev
_ZN13ASCII85StreamD2Ev
_ZN13AnnotBorderBSC1EP4Dict
_ZN13AnnotBorderBSC1Ev
_ZN13AnnotBorderBSC2EP4Dict
_ZN13AnnotBorderBSC2Ev
_ZN13AnnotBorderBSD0Ev
_ZN13AnnotBorderBSD1Ev
_ZN13AnnotFreeText10initializeEP6PDFDocP4Dict
_ZN13AnnotFreeText11setContentsEP9GooString
_ZN13AnnotFreeText11setQuaddingENS_21AnnotFreeTextQuaddingE
_ZN13AnnotFreeText14setCalloutLineEP16AnnotCalloutLine
_ZN13AnnotFreeText14setStyleStringEP9GooString
_ZN13AnnotFreeText19undefinedFontPtSizeE DATA
_ZN13AnnotFreeText20getAppearanceResDictEv
_ZN13AnnotFreeText20setDefaultAppearanceERK17DefaultAppearance
_ZN13AnnotFreeText26generateFreeTextAppearanceEv
_ZN13AnnotFreeText4drawEP3Gfxb
_ZN13AnnotFreeText9setIntentENS_19AnnotFreeTextIntentE
_ZN13AnnotFreeTextC1EP6PDFDocO6ObjectPKS2_
_ZN13AnnotFreeTextC1EP6PDFDocP12PDFRectangleRK17DefaultAppearance
_ZN13AnnotFreeTextC2EP6PDFDocO6ObjectPKS2_
_ZN13AnnotFreeTextC2EP6PDFDocP12PDFRectangleRK17DefaultAppearance
_ZN13AnnotFreeTextD0Ev
_ZN13AnnotFreeTextD1Ev
_ZN13AnnotFreeTextD2Ev
_ZN13AnnotGeometry10initializeEP6PDFDocP4Dict
_ZN13AnnotGeometry16setInteriorColorEOSt10unique_ptrI10AnnotColorSt14default_deleteIS1_EE
_ZN13AnnotGeometry4drawEP3Gfxb
_ZN13AnnotGeometry7setTypeEN5Annot12AnnotSubtypeE
_ZN13AnnotGeometryC1EP6PDFDocO6ObjectPKS2_
_ZN13AnnotGeometryC1EP6PDFDocP12PDFRectangleN5Annot12AnnotSubtypeE
_ZN13AnnotGeometryC2EP6PDFDocO6ObjectPKS2_
_ZN13AnnotGeometryC2EP6PDFDocP12PDFRectangleN5Annot12AnnotSubtypeE
_ZN13AnnotGeometryD0Ev
_ZN13AnnotGeometryD1Ev
_ZN13AnnotGeometryD2Ev
_ZN13BaseMemStreamIKcE11hasGetCharsEv
_ZN13BaseMemStreamIKcE13makeSubStreamExbxO6Object
_ZN13BaseMemStreamIKcE15unfilteredResetEv
_ZN13BaseMemStreamIKcE17getUnfilteredCharEv
_ZN13BaseMemStreamIKcE4copyEv
_ZN13BaseMemStreamIKcE5closeEv
_ZN13BaseMemStreamIKcE5resetEv
_ZN13BaseMemStreamIKcE6getPosEv
_ZN13BaseMemStreamIKcE6setPosExi
_ZN13BaseMemStreamIKcE7getCharEv
_ZN13BaseMemStreamIKcE7getKindEv
_ZN13BaseMemStreamIKcE8getCharsEiPh
_ZN13BaseMemStreamIKcE8getStartEv
_ZN13BaseMemStreamIKcE8lookCharEv
_ZN13BaseMemStreamIKcE9moveStartEx
_ZN13BaseMemStreamIKcED0Ev
_ZN13BaseMemStreamIKcED1Ev
_ZN13BaseMemStreamIcE11hasGetCharsEv
_ZN13BaseMemStreamIcE13makeSubStreamExbxO6Object
_ZN13BaseMemStreamIcE15unfilteredResetEv
_ZN13BaseMemStreamIcE17getUnfilteredCharEv
_ZN13BaseMemStreamIcE4copyEv
_ZN13BaseMemStreamIcE5closeEv
_ZN13BaseMemStreamIcE5resetEv
_ZN13BaseMemStreamIcE6getPosEv
_ZN13BaseMemStreamIcE6setPosExi
_ZN13BaseMemStreamIcE7getCharEv
_ZN13BaseMemStreamIcE7getKindEv
_ZN13BaseMemStreamIcE8getCharsEiPh
_ZN13BaseMemStreamIcE8getStartEv
_ZN13BaseMemStreamIcE8lookCharEv
_ZN13BaseMemStreamIcE9moveStartEx
_ZN13BaseMemStreamIcED0Ev
_ZN13BaseMemStreamIcED1Ev
_ZN13DecryptStream5resetEv
_ZN13DecryptStream8lookCharEv
_ZN13DecryptStreamC1EP6StreamPKh14CryptAlgorithmiii
_ZN13DecryptStreamC2EP6StreamPKh14CryptAlgorithmiii
_ZN13DecryptStreamD0Ev
_ZN13DecryptStreamD1Ev
_ZN13DecryptStreamD2Ev
_ZN13EncryptStream5resetEv
_ZN13EncryptStream8lookCharEv
_ZN13EncryptStreamC1EP6StreamPKh14CryptAlgorithmiii
_ZN13EncryptStreamC2EP6StreamPKh14CryptAlgorithmiii
_ZN13EncryptStreamD0Ev
_ZN13EncryptStreamD1Ev
_ZN13EncryptStreamD2Ev
_ZN13FileOutStream3putEc
_ZN13FileOutStream5closeEv
_ZN13FileOutStream6getPosEv
_ZN13FileOutStream6printfEPKcz
_ZN13FileOutStreamC1EP6_iobufx
_ZN13FileOutStreamC2EP6_iobufx
_ZN13FileOutStreamD0Ev
_ZN13FileOutStreamD1Ev
_ZN13FileOutStreamD2Ev
_ZN13FormFieldText10tokenizeDAEPK9GooStringPSt6vectorIPS0_SaIS4_EEPKc
_ZN13FormFieldText14setContentCopyEPK9GooString
_ZN13FormFieldText15getTextFontSizeEv
_ZN13FormFieldText15setTextFontSizeEi
_ZN13FormFieldText5printEi
_ZN13FormFieldText7parseDAEPSt6vectorIP9GooStringSaIS2_EE
_ZN13FormFieldTextC1EP6PDFDocO6Object3RefP9FormFieldPSt3setIiSt4lessIiESaIiEE
_ZN13FormFieldTextC2EP6PDFDocO6Object3RefP9FormFieldPSt3setIiSt4lessIiESaIiEE
_ZN13FormFieldTextD0Ev
_ZN13FormFieldTextD1Ev
_ZN13FormFieldTextD2Ev
_ZN13GfxColorSpace10getRGBLineEPhPji
_ZN13GfxColorSpace10getRGBLineEPhS0_i
_ZN13GfxColorSpace11getCMYKLineEPhS0_i
_ZN13GfxColorSpace11getGrayLineEPhS0_i
_ZN13GfxColorSpace11getRGBXLineEPhS0_i
_ZN13GfxColorSpace13createMappingEPSt6vectorIP23GfxSeparationColorSpaceSaIS2_EEi
_ZN13GfxColorSpace13getRGBProfileEv
_ZN13GfxColorSpace14getDeviceNLineEPhS0_i
_ZN13GfxColorSpace16getDefaultRangesEPdS0_i
_ZN13GfxColorSpace17getDisplayProfileEv
_ZN13GfxColorSpace17setDisplayProfileEPv
_ZN13GfxColorSpace18setupColorProfilesEv
_ZN13GfxColorSpace21getColorSpaceModeNameEi
_ZN13GfxColorSpace21getNumColorSpaceModesEv
_ZN13GfxColorSpace21setDisplayProfileNameEP9GooString
_ZN13GfxColorSpace5parseEP12GfxResourcesP6ObjectP9OutputDevP8GfxStatei
_ZN13GfxColorSpaceC1Ev
_ZN13GfxColorSpaceC2Ev
_ZN13GfxColorSpaceD0Ev
_ZN13GfxColorSpaceD1Ev
_ZN13GfxColorSpaceD2Ev
_ZN13Linearization11getEndFirstEv
_ZN13Linearization11getNumPagesEv
_ZN13Linearization12getPageFirstEv
_ZN13Linearization14getHintsLengthEv
_ZN13Linearization14getHintsOffsetEv
_ZN13Linearization15getHintsLength2Ev
_ZN13Linearization15getHintsOffset2Ev
_ZN13Linearization20getObjectNumberFirstEv
_ZN13Linearization24getMainXRefEntriesOffsetEv
_ZN13Linearization9getLengthEv
_ZN13LinearizationC1EP10BaseStream
_ZN13LinearizationC2EP10BaseStream
_ZN13LinearizationD1Ev
_ZN13LinearizationD2Ev
_ZN13LinkRenditionC1EPK6Object
_ZN13LinkRenditionC2EPK6Object
_ZN13LinkRenditionD0Ev
_ZN13LinkRenditionD1Ev
_ZN13LinkRenditionD2Ev
_ZN13OCDisplayNode11addChildrenEPSt6vectorIPS_SaIS1_EE
_ZN13OCDisplayNode12takeChildrenEv
_ZN13OCDisplayNode5parseEPK6ObjectP4OCGsP4XRefi
_ZN13OCDisplayNode8addChildEPS_
_ZN13OCDisplayNodeC1EP20OptionalContentGroup
_ZN13OCDisplayNodeC1EPK9GooString
_ZN13OCDisplayNodeC1Ev
_ZN13OCDisplayNodeC2EP20OptionalContentGroup
_ZN13OCDisplayNodeC2EPK9GooString
_ZN13OCDisplayNodeC2Ev
_ZN13OCDisplayNodeD1Ev
_ZN13OCDisplayNodeD2Ev
_ZN13PDFDocFactory12createPDFDocERK9GooStringPS0_S3_Pv
_ZN13PDFDocFactory21registerPDFDocBuilderEP13PDFDocBuilder
_ZN13PDFDocFactoryC1EPSt6vectorIP13PDFDocBuilderSaIS2_EE
_ZN13PDFDocFactoryC2EPSt6vectorIP13PDFDocBuilderSaIS2_EE
_ZN13PDFDocFactoryD1Ev
_ZN13PDFDocFactoryD2Ev
_ZN13PageLabelInfo5parseEP6Object
_ZN13PageLabelInfo8IntervalC1EP6Objecti
_ZN13PageLabelInfo8IntervalC2EP6Objecti
_ZN13PageLabelInfoC1EP6Objecti
_ZN13PageLabelInfoC2EP6Objecti
_ZN13SignatureInfo11setLocationEPKc
_ZN13SignatureInfo12getSubjectDNEv
_ZN13SignatureInfo12setSubjectDNEPKc
_ZN13SignatureInfo13getSignerNameEv
_ZN13SignatureInfo13setSignerNameEPc
_ZN13SignatureInfo14getSigningTimeEv
_ZN13SignatureInfo14setSigningTimeEx
_ZN13SignatureInfo16getHashAlgorithmEv
_ZN13SignatureInfo16setHashAlgorithmEi
_ZN13SignatureInfo18setCertificateInfoESt10unique_ptrI19X509CertificateInfoSt14default_deleteIS1_EE
_ZN13SignatureInfo21getSignatureValStatusEv
_ZN13SignatureInfo21setSignatureValStatusE25SignatureValidationStatus
_ZN13SignatureInfo23getCertificateValStatusEv
_ZN13SignatureInfo23setCertificateValStatusE27CertificateValidationStatus
_ZN13SignatureInfo9setReasonEPKc
_ZN13SignatureInfoC1E25SignatureValidationStatus27CertificateValidationStatus
_ZN13SignatureInfoC1Ev
_ZN13SignatureInfoC2E25SignatureValidationStatus27CertificateValidationStatus
_ZN13SignatureInfoC2Ev
_ZN13SignatureInfoD1Ev
_ZN13SignatureInfoD2Ev
_ZN13StructElement10StructDataC1Ev
_ZN13StructElement10StructDataC2Ev
_ZN13StructElement10StructDataD1Ev
_ZN13StructElement10StructDataD2Ev
_ZN13StructElement10parseChildEPK6ObjectPS0_RSt3setIiSt4lessIiESaIiEE
_ZN13StructElement13parseChildrenEP4DictRSt3setIiSt4lessIiESaIiEE
_ZN13StructElement15parseAttributesEP4Dictb
_ZN13StructElement5parseEP4Dict
_ZN13StructElementC1E3RefP14StructTreeRootPS_
_ZN13StructElementC1EP4DictP14StructTreeRootPS_RSt3setIiSt4lessIiESaIiEE
_ZN13StructElementC1EiP14StructTreeRootPS_
_ZN13StructElementC2E3RefP14StructTreeRootPS_
_ZN13StructElementC2EP4DictP14StructTreeRootPS_RSt3setIiSt4lessIiESaIiEE
_ZN13StructElementC2EiP14StructTreeRootPS_
_ZN13StructElementD1Ev
_ZN13StructElementD2Ev
_ZN13TextOutputDev10updateFontEP8GfxState
_ZN13TextOutputDev10upsideDownEv
_ZN13TextOutputDev11beginStringEP8GfxStatePK9GooString
_ZN13TextOutputDev11needNonTextEv
_ZN13TextOutputDev11processLinkEP9AnnotLink
_ZN13TextOutputDev11useDrawCharEv
_ZN13TextOutputDev12incCharCountEi
_ZN13TextOutputDev12makeWordListEv
_ZN13TextOutputDev12restoreStateEP8GfxState
_ZN13TextOutputDev13drawSelectionEP9OutputDevdiP12PDFRectangle14SelectionStyleP8GfxColorS6_
_ZN13TextOutputDev13endActualTextEP8GfxState
_ZN13TextOutputDev13findCharRangeEiiPdS0_S0_S0_
_ZN13TextOutputDev13needCharCountEv
_ZN13TextOutputDev15beginActualTextEP8GfxStatePK9GooString
_ZN13TextOutputDev16getSelectionTextEP12PDFRectangle14SelectionStyle
_ZN13TextOutputDev17setMergeCombiningEb
_ZN13TextOutputDev18getSelectionRegionEP12PDFRectangle14SelectionStyled
_ZN13TextOutputDev19interpretType3CharsEv
_ZN13TextOutputDev4fillEP8GfxState
_ZN13TextOutputDev4isOkEv
_ZN13TextOutputDev6eoFillEP8GfxState
_ZN13TextOutputDev6strokeEP8GfxState
_ZN13TextOutputDev7endPageEv
_ZN13TextOutputDev7getTextEdddd
_ZN13TextOutputDev8drawCharEP8GfxStateddddddjiPji
_ZN13TextOutputDev8findTextEPjibbbbbbbPdS1_S1_S1_
_ZN13TextOutputDev8getFlowsEv
_ZN13TextOutputDev8takeTextEv
_ZN13TextOutputDev9endStringEP8GfxState
_ZN13TextOutputDev9startPageEiP8GfxStateP4XRef
_ZN13TextOutputDevC1EPFvPvPKciES0_bdb
_ZN13TextOutputDevC1EPKcbdbb
_ZN13TextOutputDevC2EPFvPvPKciES0_bdb
_ZN13TextOutputDevC2EPKcbdbb
_ZN13TextOutputDevD0Ev
_ZN13TextOutputDevD1Ev
_ZN13TextOutputDevD2Ev
_ZN14ASCII85Encoder11getPSFilterEiPKc
_ZN14ASCII85Encoder5resetEv
_ZN14ASCII85Encoder7fillBufEv
_ZN14ASCII85Encoder7getCharEv
_ZN14ASCII85Encoder7getKindEv
_ZN14ASCII85Encoder8isBinaryEb
_ZN14ASCII85Encoder8lookCharEv
_ZN14ASCII85Encoder9isEncoderEv
_ZN14ASCII85EncoderC1EP6Stream
_ZN14ASCII85EncoderC2EP6Stream
_ZN14ASCII85EncoderD0Ev
_ZN14ASCII85EncoderD1Ev
_ZN14ASCII85EncoderD2Ev
_ZN14ASCIIHexStream11getPSFilterEiPKc
_ZN14ASCIIHexStream5resetEv
_ZN14ASCIIHexStream7getCharEv
_ZN14ASCIIHexStream7getKindEv
_ZN14ASCIIHexStream8isBinaryEb
_ZN14ASCIIHexStream8lookCharEv
_ZN14ASCIIHexStreamC1EP6Stream
_ZN14ASCIIHexStreamC2EP6Stream
_ZN14ASCIIHexStreamD0Ev
_ZN14ASCIIHexStreamD1Ev
_ZN14ASCIIHexStreamD2Ev
_ZN14AnnotRichMedia10ActivationC1EP4Dict
_ZN14AnnotRichMedia10ActivationC2EP4Dict
_ZN14AnnotRichMedia10initializeEP6PDFDocP4Dict
_ZN14AnnotRichMedia12DeactivationC1EP4Dict
_ZN14AnnotRichMedia12DeactivationC2EP4Dict
_ZN14AnnotRichMedia13ConfigurationC1EP4Dict
_ZN14AnnotRichMedia13ConfigurationC2EP4Dict
_ZN14AnnotRichMedia13ConfigurationD1Ev
_ZN14AnnotRichMedia13ConfigurationD2Ev
_ZN14AnnotRichMedia5AssetC1Ev
_ZN14AnnotRichMedia5AssetC2Ev
_ZN14AnnotRichMedia5AssetD1Ev
_ZN14AnnotRichMedia5AssetD2Ev
_ZN14AnnotRichMedia6ParamsC1EP4Dict
_ZN14AnnotRichMedia6ParamsC2EP4Dict
_ZN14AnnotRichMedia6ParamsD1Ev
_ZN14AnnotRichMedia6ParamsD2Ev
_ZN14AnnotRichMedia7ContentC1EP4Dict
_ZN14AnnotRichMedia7ContentC2EP4Dict
_ZN14AnnotRichMedia7ContentD1Ev
_ZN14AnnotRichMedia7ContentD2Ev
_ZN14AnnotRichMedia8InstanceC1EP4Dict
_ZN14AnnotRichMedia8InstanceC2EP4Dict
_ZN14AnnotRichMedia8InstanceD1Ev
_ZN14AnnotRichMedia8InstanceD2Ev
_ZN14AnnotRichMedia8SettingsC1EP4Dict
_ZN14AnnotRichMedia8SettingsC2EP4Dict
_ZN14AnnotRichMedia8SettingsD1Ev
_ZN14AnnotRichMedia8SettingsD2Ev
_ZN14AnnotRichMediaC1EP6PDFDocO6ObjectPKS2_
_ZN14AnnotRichMediaC1EP6PDFDocP12PDFRectangle
_ZN14AnnotRichMediaC2EP6PDFDocO6ObjectPKS2_
_ZN14AnnotRichMediaC2EP6PDFDocP12PDFRectangle
_ZN14AnnotRichMediaD0Ev
_ZN14AnnotRichMediaD1Ev
_ZN14AnnotRichMediaD2Ev
_ZN14CCITTFaxStream10ccittResetEb
_ZN14CCITTFaxStream11getPSFilterEiPKc
_ZN14CCITTFaxStream12getBlackCodeEv
_ZN14CCITTFaxStream12getWhiteCodeEv
_ZN14CCITTFaxStream13getTwoDimCodeEv
_ZN14CCITTFaxStream15unfilteredResetEv
_ZN14CCITTFaxStream5resetEv
_ZN14CCITTFaxStream7getCharEv
_ZN14CCITTFaxStream7getKindEv
_ZN14CCITTFaxStream8isBinaryEb
_ZN14CCITTFaxStream8lookBitsEi
_ZN14CCITTFaxStream8lookCharEv
_ZN14CCITTFaxStreamC1EP6Streamibbiibbi
_ZN14CCITTFaxStreamC2EP6Streamibbiibbi
_ZN14CCITTFaxStreamD0Ev
_ZN14CCITTFaxStreamD1Ev
_ZN14CCITTFaxStreamD2Ev
_ZN14DeviceNRecoder11getPSFilterEiPKc
_ZN14DeviceNRecoder5resetEv
_ZN14DeviceNRecoder7fillBufEv
_ZN14DeviceNRecoder7getCharEv
_ZN14DeviceNRecoder7getKindEv
_ZN14DeviceNRecoder8isBinaryEb
_ZN14DeviceNRecoder8lookCharEv
_ZN14DeviceNRecoder9isEncoderEv
_ZN14DeviceNRecoderC1EP6StreamiiP16GfxImageColorMap
_ZN14DeviceNRecoderC2EP6StreamiiP16GfxImageColorMap
_ZN14DeviceNRecoderD0Ev
_ZN14DeviceNRecoderD1Ev
_ZN14DeviceNRecoderD2Ev
_ZN14FoFiIdentifier11identifyMemEPKci
_ZN14FoFiIdentifier12identifyFileEPKc
_ZN14FoFiIdentifier14identifyStreamEPFiPvES0_
_ZN14FormWidgetText10setContentEPK9GooString
_ZN14FormWidgetText15getTextFontSizeEv
_ZN14FormWidgetText15setTextFontSizeEi
_ZN14FormWidgetText22updateWidgetAppearanceEv
_ZN14FormWidgetTextC1EP6PDFDocP6Objectj3RefP9FormField
_ZN14FormWidgetTextC2EP6PDFDocP6Objectj3RefP9FormField
_ZN14FormWidgetTextD0Ev
_ZN14FormWidgetTextD1Ev
_ZN14JBIG2CodeTable7getTypeEv
_ZN14JBIG2CodeTableC1EjP17JBIG2HuffmanTable
_ZN14JBIG2CodeTableC2EjP17JBIG2HuffmanTable
_ZN14JBIG2CodeTableD0Ev
_ZN14JBIG2CodeTableD1Ev
_ZN14JBIG2CodeTableD2Ev
_ZN14LinkJavaScript12createObjectEP4XRefRK9GooString
_ZN14LinkJavaScriptC1EP6Object
_ZN14LinkJavaScriptC2EP6Object
_ZN14LinkJavaScriptD0Ev
_ZN14LinkJavaScriptD1Ev
_ZN14LinkJavaScriptD2Ev
_ZN14MediaRendition12outputToFileEP6_iobuf
_ZN14MediaRenditionC1EP6Object
_ZN14MediaRenditionC1ERKS_
_ZN14MediaRenditionC2EP6Object
_ZN14MediaRenditionC2ERKS_
_ZN14MediaRenditionD1Ev
_ZN14MediaRenditionD2Ev
_ZN14NameToCharCode3addEPKcj
_ZN14NameToCharCode4hashEPKc
_ZN14NameToCharCode6lookupEPKc
_ZN14NameToCharCodeC1Ev
_ZN14NameToCharCodeC2Ev
_ZN14NameToCharCodeD1Ev
_ZN14NameToCharCodeD2Ev
_ZN14PageTransitionC1EP6Object
_ZN14PageTransitionC2EP6Object
_ZN14PageTransitionD1Ev
_ZN14PageTransitionD2Ev
_ZN14RGBGrayEncoder11getPSFilterEiPKc
_ZN14RGBGrayEncoder5resetEv
_ZN14RGBGrayEncoder7fillBufEv
_ZN14RGBGrayEncoder7getCharEv
_ZN14RGBGrayEncoder7getKindEv
_ZN14RGBGrayEncoder8isBinaryEb
_ZN14RGBGrayEncoder8lookCharEv
_ZN14RGBGrayEncoder9isEncoderEv
_ZN14RGBGrayEncoderC1EP6Stream
_ZN14RGBGrayEncoderC2EP6Stream
_ZN14RGBGrayEncoderD0Ev
_ZN14RGBGrayEncoderD1Ev
_ZN14RGBGrayEncoderD2Ev
_ZN14StructTreeRoot13parentTreeAddE3RefP13StructElement
_ZN14StructTreeRoot19parseNumberTreeNodeEP4Dict
_ZN14StructTreeRoot5parseEP4Dict
_ZN14StructTreeRootC1EP6PDFDocP4Dict
_ZN14StructTreeRootC2EP6PDFDocP4Dict
_ZN14StructTreeRootD1Ev
_ZN14StructTreeRootD2Ev
_ZN15ASCIIHexEncoder11getPSFilterEiPKc
_ZN15ASCIIHexEncoder5resetEv
_ZN15ASCIIHexEncoder7fillBufEv
_ZN15ASCIIHexEncoder7getCharEv
_ZN15ASCIIHexEncoder7getKindEv
_ZN15ASCIIHexEncoder8isBinaryEb
_ZN15ASCIIHexEncoder8lookCharEv
_ZN15ASCIIHexEncoder9isEncoderEv
_ZN15ASCIIHexEncoderC1EP6Stream
_ZN15ASCIIHexEncoderC2EP6Stream
_ZN15ASCIIHexEncoderD0Ev
_ZN15ASCIIHexEncoderD1Ev
_ZN15ASCIIHexEncoderD2Ev
_ZN15AnnotAppearance11getStateKeyEi
_ZN15AnnotAppearance12getNumStatesEv
_ZN15AnnotAppearance12removeStreamE3Ref
_ZN15AnnotAppearance16referencesStreamE3Ref
_ZN15AnnotAppearance16referencesStreamEPK6Object3Ref
_ZN15AnnotAppearance16removeAllStreamsEv
_ZN15AnnotAppearance18removeStateStreamsEPK6Object
_ZN15AnnotAppearance19getAppearanceStreamENS_19AnnotAppearanceTypeEPKc
_ZN15AnnotAppearanceC1EP6PDFDocP6Object
_ZN15AnnotAppearanceC2EP6PDFDocP6Object
_ZN15AnnotAppearanceD1Ev
_ZN15AnnotAppearanceD2Ev
_ZN15AnnotTextMarkup10initializeEP6PDFDocP4Dict
_ZN15AnnotTextMarkup17setQuadrilateralsEP19AnnotQuadrilaterals
_ZN15AnnotTextMarkup4drawEP3Gfxb
_ZN15AnnotTextMarkup7setTypeEN5Annot12AnnotSubtypeE
_ZN15AnnotTextMarkupC1EP6PDFDocO6ObjectPKS2_
_ZN15AnnotTextMarkupC1EP6PDFDocP12PDFRectangleN5Annot12AnnotSubtypeE
_ZN15AnnotTextMarkupC2EP6PDFDocO6ObjectPKS2_
_ZN15AnnotTextMarkupC2EP6PDFDocP12PDFRectangleN5Annot12AnnotSubtypeE
_ZN15AnnotTextMarkupD0Ev
_ZN15AnnotTextMarkupD1Ev
_ZN15AnnotTextMarkupD2Ev
_ZN15BaseCryptStream13setAutoDeleteEb
_ZN15BaseCryptStream18getUndecodedStreamEv
_ZN15BaseCryptStream5resetEv
_ZN15BaseCryptStream6getPosEv
_ZN15BaseCryptStream7getCharEv
_ZN15BaseCryptStream7getKindEv
_ZN15BaseCryptStream8isBinaryEb
_ZN15BaseCryptStreamC1EP6StreamPKh14CryptAlgorithmiii
_ZN15BaseCryptStreamC2EP6StreamPKh14CryptAlgorithmiii
_ZN15BaseCryptStreamD0Ev
_ZN15BaseCryptStreamD1Ev
_ZN15BaseCryptStreamD2Ev
_ZN15CMYKGrayEncoder11getPSFilterEiPKc
_ZN15CMYKGrayEncoder5resetEv
_ZN15CMYKGrayEncoder7fillBufEv
_ZN15CMYKGrayEncoder7getCharEv
_ZN15CMYKGrayEncoder7getKindEv
_ZN15CMYKGrayEncoder8isBinaryEb
_ZN15CMYKGrayEncoder8lookCharEv
_ZN15CMYKGrayEncoder9isEncoderEv
_ZN15CMYKGrayEncoderC1EP6Stream
_ZN15CMYKGrayEncoderC2EP6Stream
_ZN15CMYKGrayEncoderD0Ev
_ZN15CMYKGrayEncoderD1Ev
_ZN15CMYKGrayEncoderD2Ev
_ZN15FontInfoScanner4scanEi
_ZN15FontInfoScanner9scanFontsEP4XRefP4DictPSt6vectorIP8FontInfoSaIS6_EE
_ZN15FontInfoScannerC1EP6PDFDoci
_ZN15FontInfoScannerC2EP6PDFDoci
_ZN15FontInfoScannerD1Ev
_ZN15FontInfoScannerD2Ev
_ZN15FormFieldButton11updateStateEPKc
_ZN15FormFieldButton14setNumSiblingsEi
_ZN15FormFieldButton22fillChildrenSiblingsIDEv
_ZN15FormFieldButton5printEi
_ZN15FormFieldButton8setStateEPKc
_ZN15FormFieldButtonC1EP6PDFDocO6Object3RefP9FormFieldPSt3setIiSt4lessIiESaIiEE
_ZN15FormFieldButtonC2EP6PDFDocO6Object3RefP9FormFieldPSt3setIiSt4lessIiESaIiEE
_ZN15FormFieldButtonD0Ev
_ZN15FormFieldButtonD1Ev
_ZN15FormFieldButtonD2Ev
_ZN15FormFieldChoice11deselectAllEv
_ZN15FormFieldChoice11unselectAllEv
_ZN15FormFieldChoice13setEditChoiceEPK9GooString
_ZN15FormFieldChoice14getNumSelectedEv
_ZN15FormFieldChoice15updateSelectionEv
_ZN15FormFieldChoice5printEi
_ZN15FormFieldChoice6selectEi
_ZN15FormFieldChoice6toggleEi
_ZN15FormFieldChoiceC1EP6PDFDocO6Object3RefP9FormFieldPSt3setIiSt4lessIiESaIiEE
_ZN15FormFieldChoiceC2EP6PDFDocO6Object3RefP9FormFieldPSt3setIiSt4lessIiESaIiEE
_ZN15FormFieldChoiceD0Ev
_ZN15FormFieldChoiceD1Ev
_ZN15FormFieldChoiceD2Ev
_ZN15FormPageWidgetsC1EP6AnnotsjP4Form
_ZN15FormPageWidgetsC2EP6AnnotsjP4Form
_ZN15FormPageWidgetsD1Ev
_ZN15FormPageWidgetsD2Ev
_ZN15GfxAxialShading11getDistanceEdd
_ZN15GfxAxialShading17getParameterRangeEPdS0_dddd
_ZN15GfxAxialShading4copyEv
_ZN15GfxAxialShading5parseEP12GfxResourcesP4DictP9OutputDevP8GfxState
_ZN15GfxAxialShadingC1EPS_
_ZN15GfxAxialShadingC1EddddddPP8Functionibb
_ZN15GfxAxialShadingC2EPS_
_ZN15GfxAxialShadingC2EddddddPP8Functionibb
_ZN15GfxAxialShadingD0Ev
_ZN15GfxAxialShadingD1Ev
_ZN15GfxAxialShadingD2Ev
_ZN15JBIG2MMRDecoder12getBlackCodeEv
_ZN15JBIG2MMRDecoder12getWhiteCodeEv
_ZN15JBIG2MMRDecoder5resetEv
_ZN15JBIG2MMRDecoder6skipToEj
_ZN15JBIG2MMRDecoder9get24BitsEv
_ZN15JBIG2MMRDecoder9get2DCodeEv
_ZN15JBIG2MMRDecoderC1Ev
_ZN15JBIG2MMRDecoderC2Ev
_ZN15JBIG2MMRDecoderD1Ev
_ZN15JBIG2MMRDecoderD2Ev
_ZN15JBIG2SymbolDict7getTypeEv
_ZN15JBIG2SymbolDictC1Ejj
_ZN15JBIG2SymbolDictC2Ejj
_ZN15JBIG2SymbolDictD0Ev
_ZN15JBIG2SymbolDictD1Ev
_ZN15JBIG2SymbolDictD2Ev
_ZN15MediaParameters24parseMediaPlayParametersEP6Object
_ZN15MediaParameters26parseMediaScreenParametersEP6Object
_ZN15MediaParametersC1Ev
_ZN15MediaParametersC2Ev
_ZN15MediaParametersD1Ev
_ZN15MediaParametersD2Ev
_ZN15RunLengthStream11getPSFilterEiPKc
_ZN15RunLengthStream11hasGetCharsEv
_ZN15RunLengthStream5resetEv
_ZN15RunLengthStream7fillBufEv
_ZN15RunLengthStream7getCharEv
_ZN15RunLengthStream7getKindEv
_ZN15RunLengthStream8getCharsEiPh
_ZN15RunLengthStream8isBinaryEb
_ZN15RunLengthStream8lookCharEv
_ZN15RunLengthStreamC1EP6Stream
_ZN15RunLengthStreamC2EP6Stream
_ZN15RunLengthStreamD0Ev
_ZN15RunLengthStreamD1Ev
_ZN15RunLengthStreamD2Ev
_ZN15SampledFunctionC1EP6ObjectP4Dict
_ZN15SampledFunctionC1EPKS_
_ZN15SampledFunctionC2EP6ObjectP4Dict
_ZN15SampledFunctionC2EPKS_
_ZN15SampledFunctionD0Ev
_ZN15SampledFunctionD1Ev
_ZN15SampledFunctionD2Ev
_ZN15SecurityHandler13isUnencryptedEv
_ZN15SecurityHandler15checkEncryptionEPK9GooStringS2_
_ZN15SecurityHandler4makeEP6PDFDocP6Object
_ZN15SecurityHandlerC1EP6PDFDoc
_ZN15SecurityHandlerC2EP6PDFDoc
_ZN15SecurityHandlerD0Ev
_ZN15SecurityHandlerD1Ev
_ZN15SecurityHandlerD2Ev
_ZN15StreamPredictor11getNextLineEv
_ZN15StreamPredictor7getCharEv
_ZN15StreamPredictor8getCharsEiPh
_ZN15StreamPredictor8lookCharEv
_ZN15StreamPredictorC1EP6Streamiiii
_ZN15StreamPredictorC2EP6Streamiiii
_ZN15StreamPredictorD1Ev
_ZN15StreamPredictorD2Ev
_ZN15UnicodeMapCache13getUnicodeMapEP9GooString
_ZN15UnicodeMapCacheC1Ev
_ZN15UnicodeMapCacheC2Ev
_ZN15UnicodeMapCacheD1Ev
_ZN15UnicodeMapCacheD2Ev
_ZN16AnnotBorderArrayC1EP5Array
_ZN16AnnotBorderArrayC1Ev
_ZN16AnnotBorderArrayC2EP5Array
_ZN16AnnotBorderArrayC2Ev
_ZN16AnnotBorderArrayD0Ev
_ZN16AnnotBorderArrayD1Ev
_ZN16AnnotCalloutLineC1Edddd
_ZN16AnnotCalloutLineC2Edddd
_ZN16AnnotCalloutLineD0Ev
_ZN16AnnotCalloutLineD1Ev
_ZN16BaseStreamStream13getBaseStreamEv
_ZN16BaseStreamStream13getDictObjectEv
_ZN16BaseStreamStream15unfilteredResetEv
_ZN16BaseStreamStream17getUnfilteredCharEv
_ZN16BaseStreamStream18getUndecodedStreamEv
_ZN16BaseStreamStream5resetEv
_ZN16BaseStreamStream6getPosEv
_ZN16BaseStreamStream6setPosExi
_ZN16BaseStreamStream7getCharEv
_ZN16BaseStreamStream7getDictEv
_ZN16BaseStreamStream7getKindEv
_ZN16BaseStreamStream8isBinaryEb
_ZN16BaseStreamStream8lookCharEv
_ZN16BaseStreamStreamD0Ev
_ZN16BaseStreamStreamD1Ev
_ZN16CachedFileStream13makeSubStreamExbxO6Object
_ZN16CachedFileStream15unfilteredResetEv
_ZN16CachedFileStream17getUnfilteredCharEv
_ZN16CachedFileStream4copyEv
_ZN16CachedFileStream5closeEv
_ZN16CachedFileStream5resetEv
_ZN16CachedFileStream6getPosEv
_ZN16CachedFileStream6setPosExi
_ZN16CachedFileStream7fillBufEv
_ZN16CachedFileStream7getCharEv
_ZN16CachedFileStream7getKindEv
_ZN16CachedFileStream8getStartEv
_ZN16CachedFileStream8lookCharEv
_ZN16CachedFileStream9moveStartEx
_ZN16CachedFileStreamC1EP10CachedFilexbxO6Object
_ZN16CachedFileStreamC2EP10CachedFilexbxO6Object
_ZN16CachedFileStreamD0Ev
_ZN16CachedFileStreamD1Ev
_ZN16CachedFileStreamD2Ev
_ZN16CachedFileWriter5writeEPKcy
_ZN16CachedFileWriterC1EP10CachedFilePSt6vectorIiSaIiEE
_ZN16CachedFileWriterC2EP10CachedFilePSt6vectorIiSaIiEE
_ZN16CachedFileWriterD1Ev
_ZN16CachedFileWriterD2Ev
_ZN16FormWidgetButton18setAppearanceStateEPKc
_ZN16FormWidgetButton22updateWidgetAppearanceEv
_ZN16FormWidgetButton8setStateEb
_ZN16FormWidgetButtonC1EP6PDFDocP6Objectj3RefP9FormField
_ZN16FormWidgetButtonC2EP6PDFDocP6Objectj3RefP9FormField
_ZN16FormWidgetButtonD0Ev
_ZN16FormWidgetButtonD1Ev
_ZN16FormWidgetButtonD2Ev
_ZN16FormWidgetChoice11deselectAllEv
_ZN16FormWidgetChoice13setEditChoiceEPK9GooString
_ZN16FormWidgetChoice22updateWidgetAppearanceEv
_ZN16FormWidgetChoice6selectEi
_ZN16FormWidgetChoice6toggleEi
_ZN16FormWidgetChoiceC1EP6PDFDocP6Objectj3RefP9FormField
_ZN16FormWidgetChoiceC2EP6PDFDocP6Objectj3RefP9FormField
_ZN16FormWidgetChoiceD0Ev
_ZN16FormWidgetChoiceD1Ev
_ZN16FormWidgetChoiceD2Ev
_ZN16GfxImageColorMap10getDeviceNEPhP8GfxColor
_ZN16GfxImageColorMap10getRGBLineEPhPji
_ZN16GfxImageColorMap10getRGBLineEPhS0_i
_ZN16GfxImageColorMap11getCMYKLineEPhS0_i
_ZN16GfxImageColorMap11getGrayLineEPhS0_i
_ZN16GfxImageColorMap11getRGBXLineEPhS0_i
_ZN16GfxImageColorMap14getDeviceNLineEPhS0_i
_ZN16GfxImageColorMap6getRGBEPhP6GfxRGB
_ZN16GfxImageColorMap7getCMYKEPhP7GfxCMYK
_ZN16GfxImageColorMap7getGrayEPhPi
_ZN16GfxImageColorMap8getColorEPhP8GfxColor
_ZN16GfxImageColorMapC1EPS_
_ZN16GfxImageColorMapC1EiP6ObjectP13GfxColorSpace
_ZN16GfxImageColorMapC2EPS_
_ZN16GfxImageColorMapC2EiP6ObjectP13GfxColorSpace
_ZN16GfxImageColorMapD1Ev
_ZN16GfxImageColorMapD2Ev
_ZN16GfxLabColorSpace15getDefaultColorEP8GfxColor
_ZN16GfxLabColorSpace16getDefaultRangesEPdS0_i
_ZN16GfxLabColorSpace4copyEv
_ZN16GfxLabColorSpace5parseEP5ArrayP8GfxState
_ZN16GfxLabColorSpace7getModeEv
_ZN16GfxLabColorSpaceC1Ev
_ZN16GfxLabColorSpaceC2Ev
_ZN16GfxLabColorSpaceD0Ev
_ZN16GfxLabColorSpaceD1Ev
_ZN16GfxLabColorSpaceD2Ev
_ZN16GfxRadialShading11getDistanceEdd
_ZN16GfxRadialShading17getParameterRangeEPdS0_dddd
_ZN16GfxRadialShading4copyEv
_ZN16GfxRadialShading5parseEP12GfxResourcesP4DictP9OutputDevP8GfxState
_ZN16GfxRadialShadingC1EPS_
_ZN16GfxRadialShadingC1EddddddddPP8Functionibb
_ZN16GfxRadialShadingC2EPS_
_ZN16GfxRadialShadingC2EddddddddPP8Functionibb
_ZN16GfxRadialShadingD0Ev
_ZN16GfxRadialShadingD1Ev
_ZN16GfxRadialShadingD2Ev
_ZN16GfxShadingBitBuf7getBitsEiPj
_ZN16GfxShadingBitBuf9flushBitsEv
_ZN16GfxShadingBitBufC1EP6Stream
_ZN16GfxShadingBitBufC2EP6Stream
_ZN16GfxShadingBitBufD1Ev
_ZN16GfxShadingBitBufD2Ev
_ZN16GfxTilingPattern4copyEv
_ZN16GfxTilingPattern5parseEP6Objecti
_ZN16GfxTilingPatternC1EiiPdddP6ObjectS0_S2_i
_ZN16GfxTilingPatternC2EiiPdddP6ObjectS0_S2_i
_ZN16GfxTilingPatternD0Ev
_ZN16GfxTilingPatternD1Ev
_ZN16GfxTilingPatternD2Ev
_ZN16IdentityFunctionC1Ev
_ZN16IdentityFunctionC2Ev
_ZN16IdentityFunctionD0Ev
_ZN16IdentityFunctionD1Ev
_ZN16IdentityFunctionD2Ev
_ZN16JBIG2PatternDict7getTypeEv
_ZN16JBIG2PatternDictC1Ejj
_ZN16JBIG2PatternDictC2Ejj
_ZN16JBIG2PatternDictD0Ev
_ZN16JBIG2PatternDictD1Ev
_ZN16JBIG2PatternDictD2Ev
_ZN16JPXStreamPrivate5init2E12CODEC_FORMATPhib
_ZN16PSOutCustomColorC1EddddP9GooString
_ZN16PSOutCustomColorC2EddddP9GooString
_ZN16PSOutCustomColorD1Ev
_ZN16PSOutCustomColorD2Ev
_ZN16PreScanOutputDev10clearStatsEv
_ZN16PreScanOutputDev10upsideDownEv
_ZN16PreScanOutputDev11endStringOpEP8GfxState
_ZN16PreScanOutputDev11setSoftMaskEP8GfxStatePKdbP8FunctionP8GfxColor
_ZN16PreScanOutputDev11useDrawCharEv
_ZN16PreScanOutputDev12endType3CharEP8GfxState
_ZN16PreScanOutputDev13beginStringOpEP8GfxState
_ZN16PreScanOutputDev13drawImageMaskEP8GfxStateP6ObjectP6Streamiibbb
_ZN16PreScanOutputDev14beginType3CharEP8GfxStateddddjPji
_ZN16PreScanOutputDev14useShadedFillsEi
_ZN16PreScanOutputDev15axialShadedFillEP8GfxStateP15GfxAxialShadingdd
_ZN16PreScanOutputDev15drawMaskedImageEP8GfxStateP6ObjectP6StreamiiP16GfxImageColorMapbS5_iibb
_ZN16PreScanOutputDev16radialShadedFillEP8GfxStateP16GfxRadialShadingdd
_ZN16PreScanOutputDev17tilingPatternFillEP8GfxStateP3GfxP7CatalogP6ObjectPKdiiP4DictS9_S9_iiiidd
_ZN16PreScanOutputDev18functionShadedFillEP8GfxStateP18GfxFunctionShading
_ZN16PreScanOutputDev19drawSoftMaskedImageEP8GfxStateP6ObjectP6StreamiiP16GfxImageColorMapbS5_iiS7_b
_ZN16PreScanOutputDev19interpretType3CharsEv
_ZN16PreScanOutputDev20useTilingPatternFillEv
_ZN16PreScanOutputDev22beginTransparencyGroupEP8GfxStatePKdP13GfxColorSpacebbb
_ZN16PreScanOutputDev22paintTransparencyGroupEP8GfxStatePKd
_ZN16PreScanOutputDev4clipEP8GfxState
_ZN16PreScanOutputDev4fillEP8GfxState
_ZN16PreScanOutputDev5checkEP13GfxColorSpacePK8GfxColord12GfxBlendMode
_ZN16PreScanOutputDev6eoClipEP8GfxState
_ZN16PreScanOutputDev6eoFillEP8GfxState
_ZN16PreScanOutputDev6strokeEP8GfxState
_ZN16PreScanOutputDev7endPageEv
_ZN16PreScanOutputDev9drawImageEP8GfxStateP6ObjectP6StreamiiP16GfxImageColorMapbPib
_ZN16PreScanOutputDev9startPageEiP8GfxStateP4XRef
_ZN16PreScanOutputDevC1EP6PDFDoc
_ZN16PreScanOutputDevC2EP6PDFDoc
_ZN16PreScanOutputDevD0Ev
_ZN16PreScanOutputDevD1Ev
_ZN16PreScanOutputDevD2Ev
_ZN16RunLengthEncoder11getPSFilterEiPKc
_ZN16RunLengthEncoder5resetEv
_ZN16RunLengthEncoder7fillBufEv
_ZN16RunLengthEncoder7getCharEv
_ZN16RunLengthEncoder7getKindEv
_ZN16RunLengthEncoder8isBinaryEb
_ZN16RunLengthEncoder8lookCharEv
_ZN16RunLengthEncoder9isEncoderEv
_ZN16RunLengthEncoderC1EP6Stream
_ZN16RunLengthEncoderC2EP6Stream
_ZN16RunLengthEncoderD0Ev
_ZN16RunLengthEncoderD1Ev
_ZN16RunLengthEncoderD2Ev
_ZN16StdinCacheLoader4initEP9GooStringP10CachedFile
_ZN16StdinCacheLoader4loadERKSt6vectorI10_ByteRangeSaIS1_EEP16CachedFileWriter
_ZN16StdinCacheLoaderD0Ev
_ZN16StdinCacheLoaderD1Ev
_ZN17AnnotBorderEffectC1EP4Dict
_ZN17AnnotBorderEffectC2EP4Dict
_ZN17AttributeDefaultsC1Ev
_ZN17AutoFreeMemStreamD0Ev
_ZN17AutoFreeMemStreamD1Ev
_ZN17BuiltinFontWidths4hashEPKc
_ZN17BuiltinFontWidths8getWidthEPKcPt
_ZN17BuiltinFontWidthsC1EP16BuiltinFontWidthi
_ZN17BuiltinFontWidthsC2EP16BuiltinFontWidthi
_ZN17BuiltinFontWidthsD1Ev
_ZN17BuiltinFontWidthsD2Ev
_ZN17CharCodeToUnicode10addMappingEjPcii
_ZN17CharCodeToUnicode10parseCMap1EPFiPvES0_i
_ZN17CharCodeToUnicode10setMappingEjPji
_ZN17CharCodeToUnicode12mapToUnicodeEjPPj
_ZN17CharCodeToUnicode17make8BitToUnicodeEPj
_ZN17CharCodeToUnicode17parseCIDToUnicodeEPKcP9GooString
_ZN17CharCodeToUnicode17parseCMapFromFileEP9GooStringi
_ZN17CharCodeToUnicode19makeIdentityMappingEv
_ZN17CharCodeToUnicode21parseUnicodeToUnicodeEP9GooString
_ZN17CharCodeToUnicode5matchEP9GooString
_ZN17CharCodeToUnicode9decRefCntEv
_ZN17CharCodeToUnicode9incRefCntEv
_ZN17CharCodeToUnicode9mergeCMapEP9GooStringi
_ZN17CharCodeToUnicode9parseCMapEP9GooStringi
_ZN17CharCodeToUnicodeC1EP9GooString
_ZN17CharCodeToUnicodeC1EP9GooStringPjjbP23CharCodeToUnicodeStringii
_ZN17CharCodeToUnicodeC1Ev
_ZN17CharCodeToUnicodeC2EP9GooString
_ZN17CharCodeToUnicodeC2EP9GooStringPjjbP23CharCodeToUnicodeStringii
_ZN17CharCodeToUnicodeC2Ev
_ZN17CharCodeToUnicodeD1Ev
_ZN17CharCodeToUnicodeD2Ev
_ZN17DefaultAppearance11setFontNameEO6Object
_ZN17DefaultAppearance12setFontColorESt10unique_ptrI10AnnotColorSt14default_deleteIS1_EE
_ZN17DefaultAppearance13setFontPtSizeEd
_ZN17DefaultAppearanceC1EO6ObjectdSt10unique_ptrI10AnnotColorSt14default_deleteIS3_EE
_ZN17DefaultAppearanceC1EP9GooString
_ZN17DefaultAppearanceC2EO6ObjectdSt10unique_ptrI10AnnotColorSt14default_deleteIS3_EE
_ZN17DefaultAppearanceC2EP9GooString
_ZN17GfxColorTransform11doTransformEPvS0_j
_ZN17GfxColorTransform3refEv
_ZN17GfxColorTransform5unrefEv
_ZN17GfxColorTransformC1EPvijj
_ZN17GfxColorTransformC2EPvijj
_ZN17GfxColorTransformD1Ev
_ZN17GfxColorTransformD2Ev
_ZN17GfxShadingPattern4copyEv
_ZN17GfxShadingPattern5parseEP12GfxResourcesP6ObjectP9OutputDevP8GfxStatei
_ZN17GfxShadingPatternC1EP10GfxShadingPdi
_ZN17GfxShadingPatternC2EP10GfxShadingPdi
_ZN17GfxShadingPatternD0Ev
_ZN17GfxShadingPatternD1Ev
_ZN17GfxShadingPatternD2Ev
_ZN17StitchingFunctionC1EP6ObjectP4DictPSt3setIiSt4lessIiESaIiEE
_ZN17StitchingFunctionC1EPKS_
_ZN17StitchingFunctionC2EP6ObjectP4DictPSt3setIiSt4lessIiESaIiEE
_ZN17StitchingFunctionC2EPKS_
_ZN17StitchingFunctionD0Ev
_ZN17StitchingFunctionD1Ev
_ZN17StitchingFunctionD2Ev
_ZN17ViewerPreferences4initEv
_ZN17ViewerPreferencesC1EP4Dict
_ZN17ViewerPreferencesC2EP4Dict
_ZN17ViewerPreferencesD1Ev
_ZN17ViewerPreferencesD2Ev
_ZN18FixedLengthEncoder11getPSFilterEiPKc
_ZN18FixedLengthEncoder5resetEv
_ZN18FixedLengthEncoder7getCharEv
_ZN18FixedLengthEncoder7getKindEv
_ZN18FixedLengthEncoder8isBinaryEb
_ZN18FixedLengthEncoder8lookCharEv
_ZN18FixedLengthEncoder9isEncoderEv
_ZN18FixedLengthEncoderC1EP6Streami
_ZN18FixedLengthEncoderC2EP6Streami
_ZN18FixedLengthEncoderD0Ev
_ZN18FixedLengthEncoderD1Ev
_ZN18FixedLengthEncoderD2Ev
_ZN18FormFieldSignature17validateSignatureEbbx
_ZN18FormFieldSignature19hashSignedDataBlockEP16SignatureHandlerx
_ZN18FormFieldSignature5printEi
_ZN18FormFieldSignature9parseInfoEv
_ZN18FormFieldSignatureC1EP6PDFDocO6Object3RefP9FormFieldPSt3setIiSt4lessIiESaIiEE
_ZN18FormFieldSignatureC2EP6PDFDocO6Object3RefP9FormFieldPSt3setIiSt4lessIiESaIiEE
_ZN18FormFieldSignatureD0Ev
_ZN18FormFieldSignatureD1Ev
_ZN18FormFieldSignatureD2Ev
_ZN18GfxFunctionShading4copyEv
_ZN18GfxFunctionShading5parseEP12GfxResourcesP4DictP9OutputDevP8GfxState
_ZN18GfxFunctionShadingC1EPS_
_ZN18GfxFunctionShadingC1EddddPdPP8Functioni
_ZN18GfxFunctionShadingC2EPS_
_ZN18GfxFunctionShadingC2EddddPdPP8Functioni
_ZN18GfxFunctionShadingD0Ev
_ZN18GfxFunctionShadingD1Ev
_ZN18GfxFunctionShadingD2Ev
_ZN18JArithmeticDecoder10decodeByteEjP23JArithmeticDecoderStats
_ZN18JArithmeticDecoder10decodeIAIDEjP23JArithmeticDecoderStats
_ZN18JArithmeticDecoder12decodeIntBitEP23JArithmeticDecoderStats
_ZN18JArithmeticDecoder5qeTabE DATA
_ZN18JArithmeticDecoder5startEv
_ZN18JArithmeticDecoder6byteInEv
_ZN18JArithmeticDecoder7cleanupEv
_ZN18JArithmeticDecoder7nlpsTabE DATA
_ZN18JArithmeticDecoder7nmpsTabE DATA
_ZN18JArithmeticDecoder7restartEi
_ZN18JArithmeticDecoder9decodeBitEjP23JArithmeticDecoderStats
_ZN18JArithmeticDecoder9decodeIntEPiP23JArithmeticDecoderStats
_ZN18JArithmeticDecoder9switchTabE DATA
_ZN18JArithmeticDecoderC1Ev
_ZN18JArithmeticDecoderC2Ev
_ZN18JArithmeticDecoderD1Ev
_ZN18JArithmeticDecoderD2Ev
_ZN18LocalPDFDocBuilder11buildPDFDocERK9GooStringPS0_S3_Pv
_ZN18LocalPDFDocBuilder8supportsERK9GooString
_ZN18LocalPDFDocBuilderD0Ev
_ZN18LocalPDFDocBuilderD1Ev
_ZN18PostScriptFunction10resizeCodeEi
_ZN18PostScriptFunction8getTokenEP6Stream
_ZN18PostScriptFunction9parseCodeEP6StreamPi
_ZN18PostScriptFunctionC1EP6ObjectP4Dict
_ZN18PostScriptFunctionC1EPKS_
_ZN18PostScriptFunctionC2EP6ObjectP4Dict
_ZN18PostScriptFunctionC2EPKS_
_ZN18PostScriptFunctionD0Ev
_ZN18PostScriptFunctionD1Ev
_ZN18PostScriptFunctionD2Ev
_ZN18StdinPDFDocBuilder11buildPDFDocERK9GooStringPS0_S3_Pv
_ZN18StdinPDFDocBuilder8supportsERK9GooString
_ZN18StdinPDFDocBuilderD0Ev
_ZN18StdinPDFDocBuilderD1Ev
_ZN18TextSelectionSizer10visitBlockEP9TextBlockP8TextLineS3_P12PDFRectangle
_ZN18TextSelectionSizer9visitLineEP8TextLineP8TextWordS3_iiP12PDFRectangle
_ZN18TextSelectionSizer9visitWordEP8TextWordiiP12PDFRectangle
_ZN18TextSelectionSizerC1EP8TextPaged
_ZN18TextSelectionSizerC2EP8TextPaged
_ZN18TextSelectionSizerD0Ev
_ZN18TextSelectionSizerD1Ev
_ZN19AnnotAppearanceBBox8extendToEdd
_ZN19AnnotAppearanceBBoxC1EP12PDFRectangle
_ZN19AnnotAppearanceBBoxC2EP12PDFRectangle
_ZN19AnnotFileAttachment10initializeEP6PDFDocP4Dict
_ZN19AnnotFileAttachment4drawEP3Gfxb
_ZN19AnnotFileAttachmentC1EP6PDFDocO6ObjectPKS2_
_ZN19AnnotFileAttachmentC1EP6PDFDocP12PDFRectangleP9GooString
_ZN19AnnotFileAttachmentC2EP6PDFDocO6ObjectPKS2_
_ZN19AnnotFileAttachmentC2EP6PDFDocP12PDFRectangleP9GooString
_ZN19AnnotFileAttachmentD0Ev
_ZN19AnnotFileAttachmentD1Ev
_ZN19AnnotFileAttachmentD2Ev
_ZN19AnnotQuadrilaterals18AnnotQuadrilateralC1Edddddddd
_ZN19AnnotQuadrilaterals18AnnotQuadrilateralC1Ev
_ZN19AnnotQuadrilaterals18AnnotQuadrilateralC2Edddddddd
_ZN19AnnotQuadrilaterals18AnnotQuadrilateralC2Ev
_ZN19AnnotQuadrilaterals5getX1Ei
_ZN19AnnotQuadrilaterals5getX2Ei
_ZN19AnnotQuadrilaterals5getX3Ei
_ZN19AnnotQuadrilaterals5getX4Ei
_ZN19AnnotQuadrilaterals5getY1Ei
_ZN19AnnotQuadrilaterals5getY2Ei
_ZN19AnnotQuadrilaterals5getY3Ei
_ZN19AnnotQuadrilaterals5getY4Ei
_ZN19AnnotQuadrilateralsC1EOSt10unique_ptrIA_NS_18AnnotQuadrilateralESt14default_deleteIS2_EEi
_ZN19AnnotQuadrilateralsC1EP5ArrayP12PDFRectangle
_ZN19AnnotQuadrilateralsC2EOSt10unique_ptrIA_NS_18AnnotQuadrilateralESt14default_deleteIS2_EEi
_ZN19AnnotQuadrilateralsC2EP5ArrayP12PDFRectangle
_ZN19AnnotQuadrilateralsD1Ev
_ZN19AnnotQuadrilateralsD2Ev
_ZN19ExponentialFunctionC1EP6ObjectP4Dict
_ZN19ExponentialFunctionC1EPKS_
_ZN19ExponentialFunctionC2EP6ObjectP4Dict
_ZN19ExponentialFunctionC2EPKS_
_ZN19ExponentialFunctionD0Ev
_ZN19ExponentialFunctionD1Ev
_ZN19ExponentialFunctionD2Ev
_ZN19FormWidgetSignature13signatureTypeEv
_ZN19FormWidgetSignature17validateSignatureEbbx
_ZN19FormWidgetSignature19getCheckedSignatureEPx
_ZN19FormWidgetSignature20getSignedRangeBoundsEv
_ZN19FormWidgetSignature22updateWidgetAppearanceEv
_ZN19FormWidgetSignatureC1EP6PDFDocP6Objectj3RefP9FormField
_ZN19FormWidgetSignatureC2EP6PDFDocP6Objectj3RefP9FormField
_ZN19FormWidgetSignatureD0Ev
_ZN19FormWidgetSignatureD1Ev
_ZN19GfxCalRGBColorSpace15getDefaultColorEP8GfxColor
_ZN19GfxCalRGBColorSpace4copyEv
_ZN19GfxCalRGBColorSpace5parseEP5ArrayP8GfxState
_ZN19GfxCalRGBColorSpace7getModeEv
_ZN19GfxCalRGBColorSpaceC1Ev
_ZN19GfxCalRGBColorSpaceC2Ev
_ZN19GfxCalRGBColorSpaceD0Ev
_ZN19GfxCalRGBColorSpaceD1Ev
_ZN19GfxCalRGBColorSpaceD2Ev
_ZN19GfxPatchMeshShading4copyEv
_ZN19GfxPatchMeshShading5parseEP12GfxResourcesiP4DictP6StreamP9OutputDevP8GfxState
_ZN19GfxPatchMeshShadingC1EPS_
_ZN19GfxPatchMeshShadingC1EiP8GfxPatchiPP8Functioni
_ZN19GfxPatchMeshShadingC2EPS_
_ZN19GfxPatchMeshShadingC2EiP8GfxPatchiPP8Functioni
_ZN19GfxPatchMeshShadingD0Ev
_ZN19GfxPatchMeshShadingD1Ev
_ZN19GfxPatchMeshShadingD2Ev
_ZN19JBIG2HuffmanDecoder10buildTableEP17JBIG2HuffmanTablej
_ZN19JBIG2HuffmanDecoder5resetEv
_ZN19JBIG2HuffmanDecoder7readBitEv
_ZN19JBIG2HuffmanDecoder8readBitsEj
_ZN19JBIG2HuffmanDecoder9decodeIntEPiP17JBIG2HuffmanTable
_ZN19JBIG2HuffmanDecoderC1Ev
_ZN19JBIG2HuffmanDecoderC2Ev
_ZN19JBIG2HuffmanDecoderD1Ev
_ZN19JBIG2HuffmanDecoderD2Ev
_ZN19TextSelectionDumper10finishLineEv
_ZN19TextSelectionDumper10visitBlockEP9TextBlockP8TextLineS3_P12PDFRectangle
_ZN19TextSelectionDumper12takeWordListEPi
_ZN19TextSelectionDumper7endPageEv
_ZN19TextSelectionDumper7getTextEv
_ZN19TextSelectionDumper9startLineEv
_ZN19TextSelectionDumper9visitLineEP8TextLineP8TextWordS3_iiP12PDFRectangle
_ZN19TextSelectionDumper9visitWordEP8TextWordiiP12PDFRectangle
_ZN19TextSelectionDumperC1EP8TextPage
_ZN19TextSelectionDumperC2EP8TextPage
_ZN19TextSelectionDumperD0Ev
_ZN19TextSelectionDumperD1Ev
_ZN19TextSelectionDumperD2Ev
_ZN19X509CertificateInfo10EntityInfoC1EOS0_
_ZN19X509CertificateInfo10EntityInfoC1Ev
_ZN19X509CertificateInfo10EntityInfoC2EOS0_
_ZN19X509CertificateInfo10EntityInfoC2Ev
_ZN19X509CertificateInfo10EntityInfoD1Ev
_ZN19X509CertificateInfo10EntityInfoD2Ev
_ZN19X509CertificateInfo10EntityInfoaSEOS0_
_ZN19X509CertificateInfo10setVersionEi
_ZN19X509CertificateInfo11setValidityENS_8ValidityE
_ZN19X509CertificateInfo13PublicKeyInfoC1EOS0_
_ZN19X509CertificateInfo13PublicKeyInfoC1Ev
_ZN19X509CertificateInfo13PublicKeyInfoC2EOS0_
_ZN19X509CertificateInfo13PublicKeyInfoC2Ev
_ZN19X509CertificateInfo13PublicKeyInfoaSEOS0_
_ZN19X509CertificateInfo13setIssuerInfoEONS_10EntityInfoE
_ZN19X509CertificateInfo14setSubjectInfoEONS_10EntityInfoE
_ZN19X509CertificateInfo15setIsSelfSignedEb
_ZN19X509CertificateInfo15setSerialNumberERK9GooString
_ZN19X509CertificateInfo16setPublicKeyInfoEONS_13PublicKeyInfoE
_ZN19X509CertificateInfo17setCertificateDERERK9GooString
_ZN19X509CertificateInfo21setKeyUsageExtensionsEj
_ZN19X509CertificateInfoC1Ev
_ZN19X509CertificateInfoC2Ev
_ZN19X509CertificateInfoD1Ev
_ZN19X509CertificateInfoD2Ev
_ZN20GfxCalGrayColorSpace15getDefaultColorEP8GfxColor
_ZN20GfxCalGrayColorSpace4copyEv
_ZN20GfxCalGrayColorSpace5parseEP5ArrayP8GfxState
_ZN20GfxCalGrayColorSpace7getModeEv
_ZN20GfxCalGrayColorSpaceC1Ev
_ZN20GfxCalGrayColorSpaceC2Ev
_ZN20GfxCalGrayColorSpaceD0Ev
_ZN20GfxCalGrayColorSpaceD1Ev
_ZN20GfxCalGrayColorSpaceD2Ev
_ZN20GfxDeviceNColorSpace13createMappingEPSt6vectorIP23GfxSeparationColorSpaceSaIS2_EEi
_ZN20GfxDeviceNColorSpace15getDefaultColorEP8GfxColor
_ZN20GfxDeviceNColorSpace4copyEv
_ZN20GfxDeviceNColorSpace5parseEP12GfxResourcesP5ArrayP9OutputDevP8GfxStatei
_ZN20GfxDeviceNColorSpace7getModeEv
_ZN20GfxDeviceNColorSpaceC1EiPP9GooStringP13GfxColorSpaceP8FunctionPSt6vectorIP23GfxSeparationColorSpaceSaIS9_EE
_ZN20GfxDeviceNColorSpaceC1EiPP9GooStringP13GfxColorSpaceP8FunctionPSt6vectorIP23GfxSeparationColorSpaceSaIS9_EEPibj
_ZN20GfxDeviceNColorSpaceC2EiPP9GooStringP13GfxColorSpaceP8FunctionPSt6vectorIP23GfxSeparationColorSpaceSaIS9_EE
_ZN20GfxDeviceNColorSpaceC2EiPP9GooStringP13GfxColorSpaceP8FunctionPSt6vectorIP23GfxSeparationColorSpaceSaIS9_EEPibj
_ZN20GfxDeviceNColorSpaceD0Ev
_ZN20GfxDeviceNColorSpaceD1Ev
_ZN20GfxDeviceNColorSpaceD2Ev
_ZN20GfxIndexedColorSpace10getRGBLineEPhPji
_ZN20GfxIndexedColorSpace10getRGBLineEPhS0_i
_ZN20GfxIndexedColorSpace11getCMYKLineEPhS0_i
_ZN20GfxIndexedColorSpace11getRGBXLineEPhS0_i
_ZN20GfxIndexedColorSpace13createMappingEPSt6vectorIP23GfxSeparationColorSpaceSaIS2_EEi
_ZN20GfxIndexedColorSpace14getDeviceNLineEPhS0_i
_ZN20GfxIndexedColorSpace15getDefaultColorEP8GfxColor
_ZN20GfxIndexedColorSpace16getDefaultRangesEPdS0_i
_ZN20GfxIndexedColorSpace4copyEv
_ZN20GfxIndexedColorSpace5parseEP12GfxResourcesP5ArrayP9OutputDevP8GfxStatei
_ZN20GfxIndexedColorSpace7getModeEv
_ZN20GfxIndexedColorSpaceC1EP13GfxColorSpacei
_ZN20GfxIndexedColorSpaceC2EP13GfxColorSpacei
_ZN20GfxIndexedColorSpaceD0Ev
_ZN20GfxIndexedColorSpaceD1Ev
_ZN20GfxIndexedColorSpaceD2Ev
_ZN20GfxPatternColorSpace15getDefaultColorEP8GfxColor
_ZN20GfxPatternColorSpace4copyEv
_ZN20GfxPatternColorSpace5parseEP12GfxResourcesP5ArrayP9OutputDevP8GfxStatei
_ZN20GfxPatternColorSpace7getModeEv
_ZN20GfxPatternColorSpaceC1EP13GfxColorSpace
_ZN20GfxPatternColorSpaceC2EP13GfxColorSpace
_ZN20GfxPatternColorSpaceD0Ev
_ZN20GfxPatternColorSpaceD1Ev
_ZN20GfxPatternColorSpaceD2Ev
_ZN20GfxUnivariateShading10setupCacheEPK6Matrixdddd
_ZN20GfxUnivariateShading8getColorEdP8GfxColor
_ZN20GfxUnivariateShadingC1EPS_
_ZN20GfxUnivariateShadingC1EiddPP8Functionibb
_ZN20GfxUnivariateShadingC2EPS_
_ZN20GfxUnivariateShadingC2EiddPP8Functionibb
_ZN20GfxUnivariateShadingD0Ev
_ZN20GfxUnivariateShadingD1Ev
_ZN20GfxUnivariateShadingD2Ev
_ZN20OptionalContentGroup6setRefE3Ref
_ZN20OptionalContentGroupC1EP4Dict
_ZN20OptionalContentGroupC1EP9GooString
_ZN20OptionalContentGroupC2EP4Dict
_ZN20OptionalContentGroupC2EP9GooString
_ZN20OptionalContentGroupD1Ev
_ZN20OptionalContentGroupD2Ev
_ZN20TextSelectionPainter10visitBlockEP9TextBlockP8TextLineS3_P12PDFRectangle
_ZN20TextSelectionPainter7endPageEv
_ZN20TextSelectionPainter9visitLineEP8TextLineP8TextWordS3_iiP12PDFRectangle
_ZN20TextSelectionPainter9visitWordEP8TextWordiiP12PDFRectangle
_ZN20TextSelectionPainterC1EP8TextPagediP9OutputDevP8GfxColorS5_
_ZN20TextSelectionPainterC2EP8TextPagediP9OutputDevP8GfxColorS5_
_ZN20TextSelectionPainterD0Ev
_ZN20TextSelectionPainterD1Ev
_ZN20TextSelectionPainterD2Ev
_ZN20TextSelectionVisitorC1EP8TextPage
_ZN20TextSelectionVisitorC2EP8TextPage
_ZN21AnnotCalloutMultiLineC1Edddddd
_ZN21AnnotCalloutMultiLineC2Edddddd
_ZN21AnnotCalloutMultiLineD0Ev
_ZN21AnnotCalloutMultiLineD1Ev
_ZN21GfxICCBasedColorSpace10getRGBLineEPhPji
_ZN21GfxICCBasedColorSpace10getRGBLineEPhS0_i
_ZN21GfxICCBasedColorSpace11getCMYKLineEPhS0_i
_ZN21GfxICCBasedColorSpace11getRGBXLineEPhS0_i
_ZN21GfxICCBasedColorSpace14getDeviceNLineEPhS0_i
_ZN21GfxICCBasedColorSpace15getDefaultColorEP8GfxColor
_ZN21GfxICCBasedColorSpace16getDefaultRangesEPdS0_i
_ZN21GfxICCBasedColorSpace4copyEv
_ZN21GfxICCBasedColorSpace5parseEP5ArrayP9OutputDevP8GfxStatei
_ZN21GfxICCBasedColorSpace7getModeEv
_ZN21GfxICCBasedColorSpaceC1EiP13GfxColorSpace
_ZN21GfxICCBasedColorSpaceC2EiP13GfxColorSpace
_ZN21GfxICCBasedColorSpaceD0Ev
_ZN21GfxICCBasedColorSpaceD1Ev
_ZN21GfxICCBasedColorSpaceD2Ev
_ZN21MediaWindowParameters13parseFWParamsEP6Object
_ZN21MediaWindowParametersC1Ev
_ZN21MediaWindowParametersC2Ev
_ZN21MediaWindowParametersD1Ev
_ZN21MediaWindowParametersD2Ev
_ZN22AnnotAppearanceBuilder10drawCircleEdddb
_ZN22AnnotAppearanceBuilder11drawListBoxEPK15FormFieldChoicePK11AnnotBorderPK12PDFRectanglePK9GooStringPK12GfxResourcesi
_ZN22AnnotAppearanceBuilder11setTextFontERK6Objectd
_ZN22AnnotAppearanceBuilder11writeStringERK9GooString
_ZN22AnnotAppearanceBuilder12setDrawColorEPK10AnnotColorb
_ZN22AnnotAppearanceBuilder13drawFormFieldEPK9FormFieldPK4FormPK12GfxResourcesPK9GooStringPK11AnnotBorderPK22AnnotAppearanceCharacsPK12PDFRectangleSB_P4XRefPb
_ZN22AnnotAppearanceBuilder14drawLineEndingE20AnnotLineEndingStyledddbRK6Matrix
_ZN22AnnotAppearanceBuilder15drawFieldBorderEPK9FormFieldPK11AnnotBorderPK22AnnotAppearanceCharacsPK12PDFRectangle
_ZN22AnnotAppearanceBuilder16drawLineEndArrowEdddibbRK6Matrix
_ZN22AnnotAppearanceBuilder16drawLineEndSlashEdddRK6Matrix
_ZN22AnnotAppearanceBuilder17drawCircleTopLeftEddd
_ZN22AnnotAppearanceBuilder17drawFormFieldTextEPK13FormFieldTextPK4FormPK12GfxResourcesPK9GooStringPK11AnnotBorderPK22AnnotAppearanceCharacsPK12PDFRectangle
_ZN22AnnotAppearanceBuilder17drawLineEndCircleEdddbRK6Matrix
_ZN22AnnotAppearanceBuilder17drawLineEndSquareEdddbRK6Matrix
_ZN22AnnotAppearanceBuilder18drawLineEndDiamondEdddbRK6Matrix
_ZN22AnnotAppearanceBuilder18lineEndingXShortenE20AnnotLineEndingStyled
_ZN22AnnotAppearanceBuilder19drawFormFieldButtonEPK15FormFieldButtonPK12GfxResourcesPK9GooStringPK11AnnotBorderPK22AnnotAppearanceCharacsPK12PDFRectangleS8_P4XRefPb
_ZN22AnnotAppearanceBuilder19drawFormFieldChoiceEPK15FormFieldChoicePK4FormPK12GfxResourcesPK9GooStringPK11AnnotBorderPK22AnnotAppearanceCharacsPK12PDFRectangle
_ZN22AnnotAppearanceBuilder21drawCircleBottomRightEddd
_ZN22AnnotAppearanceBuilder21lineEndingXExtendBBoxE20AnnotLineEndingStyled
_ZN22AnnotAppearanceBuilder21setLineStyleForBorderEPK11AnnotBorder
_ZN22AnnotAppearanceBuilder6appendEPKc
_ZN22AnnotAppearanceBuilder7appendfEPKcz
_ZN22AnnotAppearanceBuilder8drawTextEPK9GooStringS2_PK12GfxResourcesPK11AnnotBorderPK22AnnotAppearanceCharacsPK12PDFRectanglebiibbP4XRefPbb
_ZN22AnnotAppearanceBuilderC1Ev
_ZN22AnnotAppearanceBuilderC2Ev
_ZN22AnnotAppearanceBuilderD1Ev
_ZN22AnnotAppearanceBuilderD2Ev
_ZN22AnnotAppearanceCharacsC1EP4Dict
_ZN22AnnotAppearanceCharacsC2EP4Dict
_ZN22AnnotAppearanceCharacsD1Ev
_ZN22AnnotAppearanceCharacsD2Ev
_ZN22CharCodeToUnicodeCache20getCharCodeToUnicodeEP9GooString
_ZN22CharCodeToUnicodeCache3addEP17CharCodeToUnicode
_ZN22CharCodeToUnicodeCacheC1Ei
_ZN22CharCodeToUnicodeCacheC2Ei
_ZN22CharCodeToUnicodeCacheD1Ev
_ZN22CharCodeToUnicodeCacheD2Ev
_ZN22GfxDeviceRGBColorSpace10getRGBLineEPhPji
_ZN22GfxDeviceRGBColorSpace10getRGBLineEPhS0_i
_ZN22GfxDeviceRGBColorSpace11getCMYKLineEPhS0_i
_ZN22GfxDeviceRGBColorSpace11getGrayLineEPhS0_i
_ZN22GfxDeviceRGBColorSpace11getRGBXLineEPhS0_i
_ZN22GfxDeviceRGBColorSpace14getDeviceNLineEPhS0_i
_ZN22GfxDeviceRGBColorSpace15getDefaultColorEP8GfxColor
_ZN22GfxDeviceRGBColorSpace4copyEv
_ZN22GfxDeviceRGBColorSpace7getModeEv
_ZN22GfxDeviceRGBColorSpaceC1Ev
_ZN22GfxDeviceRGBColorSpaceC2Ev
_ZN22GfxDeviceRGBColorSpaceD0Ev
_ZN22GfxDeviceRGBColorSpaceD1Ev
_ZN22GfxDeviceRGBColorSpaceD2Ev
_ZN22MarkedContentOutputDev10upsideDownEv
_ZN22MarkedContentOutputDev11needNonTextEv
_ZN22MarkedContentOutputDev11useDrawCharEv
_ZN22MarkedContentOutputDev13needCharCountEv
_ZN22MarkedContentOutputDev16endMarkedContentEP8GfxState
_ZN22MarkedContentOutputDev18beginMarkedContentEPKcP4Dict
_ZN22MarkedContentOutputDev19interpretType3CharsEv
_ZN22MarkedContentOutputDev4isOkEv
_ZN22MarkedContentOutputDev7endPageEv
_ZN22MarkedContentOutputDev7endSpanEv
_ZN22MarkedContentOutputDev8drawCharEP8GfxStateddddddjiPji
_ZN22MarkedContentOutputDev9startPageEiP8GfxStateP4XRef
_ZN22MarkedContentOutputDevC1Ei
_ZN22MarkedContentOutputDevC2Ei
_ZN22MarkedContentOutputDevD0Ev
_ZN22MarkedContentOutputDevD1Ev
_ZN22MarkedContentOutputDevD2Ev
_ZN23GfxDeviceCMYKColorSpace10getRGBLineEPhPji
_ZN23GfxDeviceCMYKColorSpace10getRGBLineEPhS0_i
_ZN23GfxDeviceCMYKColorSpace11getCMYKLineEPhS0_i
_ZN23GfxDeviceCMYKColorSpace11getRGBXLineEPhS0_i
_ZN23GfxDeviceCMYKColorSpace14getDeviceNLineEPhS0_i
_ZN23GfxDeviceCMYKColorSpace15getDefaultColorEP8GfxColor
_ZN23GfxDeviceCMYKColorSpace4copyEv
_ZN23GfxDeviceCMYKColorSpace7getModeEv
_ZN23GfxDeviceCMYKColorSpaceC1Ev
_ZN23GfxDeviceCMYKColorSpaceC2Ev
_ZN23GfxDeviceCMYKColorSpaceD0Ev
_ZN23GfxDeviceCMYKColorSpaceD1Ev
_ZN23GfxDeviceCMYKColorSpaceD2Ev
_ZN23GfxDeviceGrayColorSpace10getRGBLineEPhPji
_ZN23GfxDeviceGrayColorSpace10getRGBLineEPhS0_i
_ZN23GfxDeviceGrayColorSpace11getCMYKLineEPhS0_i
_ZN23GfxDeviceGrayColorSpace11getGrayLineEPhS0_i
_ZN23GfxDeviceGrayColorSpace11getRGBXLineEPhS0_i
_ZN23GfxDeviceGrayColorSpace14getDeviceNLineEPhS0_i
_ZN23GfxDeviceGrayColorSpace15getDefaultColorEP8GfxColor
_ZN23GfxDeviceGrayColorSpace4copyEv
_ZN23GfxDeviceGrayColorSpace7getModeEv
_ZN23GfxDeviceGrayColorSpaceC1Ev
_ZN23GfxDeviceGrayColorSpaceC2Ev
_ZN23GfxDeviceGrayColorSpaceD0Ev
_ZN23GfxDeviceGrayColorSpaceD1Ev
_ZN23GfxDeviceGrayColorSpaceD2Ev
_ZN23GfxSeparationColorSpace13createMappingEPSt6vectorIPS_SaIS1_EEi
_ZN23GfxSeparationColorSpace15getDefaultColorEP8GfxColor
_ZN23GfxSeparationColorSpace4copyEv
_ZN23GfxSeparationColorSpace5parseEP12GfxResourcesP5ArrayP9OutputDevP8GfxStatei
_ZN23GfxSeparationColorSpace7getModeEv
_ZN23GfxSeparationColorSpaceC1EP9GooStringP13GfxColorSpaceP8Function
_ZN23GfxSeparationColorSpaceC1EP9GooStringP13GfxColorSpaceP8FunctionbjPi
_ZN23GfxSeparationColorSpaceC2EP9GooStringP13GfxColorSpaceP8Function
_ZN23GfxSeparationColorSpaceC2EP9GooStringP13GfxColorSpaceP8FunctionbjPi
_ZN23GfxSeparationColorSpaceD0Ev
_ZN23GfxSeparationColorSpaceD1Ev
_ZN23GfxSeparationColorSpaceD2Ev
_ZN23JArithmeticDecoderStats4copyEv
_ZN23JArithmeticDecoderStats5resetEv
_ZN23JArithmeticDecoderStats8copyFromEPS_
_ZN23JArithmeticDecoderStats8setEntryEjii
_ZN23JArithmeticDecoderStatsC1Ei
_ZN23JArithmeticDecoderStatsC2Ei
_ZN23JArithmeticDecoderStatsD1Ev
_ZN23JArithmeticDecoderStatsD2Ev
_ZN23StandardSecurityHandler10getFileKeyEv
_ZN23StandardSecurityHandler11getAuthDataEv
_ZN23StandardSecurityHandler12freeAuthDataEPv
_ZN23StandardSecurityHandler12makeAuthDataEPK9GooStringS2_
_ZN23StandardSecurityHandler13getEncVersionEv
_ZN23StandardSecurityHandler13isUnencryptedEv
_ZN23StandardSecurityHandler14getEncRevisionEv
_ZN23StandardSecurityHandler15getEncAlgorithmEv
_ZN23StandardSecurityHandler16getFileKeyLengthEv
_ZN23StandardSecurityHandler18getOwnerPasswordOkEv
_ZN23StandardSecurityHandler18getPermissionFlagsEv
_ZN23StandardSecurityHandler9authorizeEPv
_ZN23StandardSecurityHandlerC1EP6PDFDocP6Object
_ZN23StandardSecurityHandlerC2EP6PDFDocP6Object
_ZN23StandardSecurityHandlerD0Ev
_ZN23StandardSecurityHandlerD1Ev
_ZN23StandardSecurityHandlerD2Ev
_ZN25GfxGouraudTriangleShading11getTriangleEiPdS0_P8GfxColorS0_S0_S2_S0_S0_S2_
_ZN25GfxGouraudTriangleShading11getTriangleEiPdS0_S0_S0_S0_S0_S0_S0_S0_
_ZN25GfxGouraudTriangleShading4copyEv
_ZN25GfxGouraudTriangleShading5parseEP12GfxResourcesiP4DictP6StreamP9OutputDevP8GfxState
_ZN25GfxGouraudTriangleShadingC1EPS_
_ZN25GfxGouraudTriangleShadingC1EiP16GfxGouraudVertexiPA3_iiPP8Functioni
_ZN25GfxGouraudTriangleShadingC2EPS_
_ZN25GfxGouraudTriangleShadingC2EiP16GfxGouraudVertexiPA3_iiPP8Functioni
_ZN25GfxGouraudTriangleShadingD0Ev
_ZN25GfxGouraudTriangleShadingD1Ev
_ZN25GfxGouraudTriangleShadingD2Ev
_ZN25MovieActivationParameters20parseMovieActivationEPK6Object
_ZN25MovieActivationParametersC1Ev
_ZN25MovieActivationParametersC2Ev
_ZN25MovieActivationParametersD1Ev
_ZN25MovieActivationParametersD2Ev
_ZN3Gfx10doShowTextEPK9GooString
_ZN3Gfx10doSoftMaskEP6ObjectbP13GfxColorSpacebbP8FunctionP8GfxColor
_ZN3Gfx10opCurveTo1EP6Objecti
_ZN3Gfx10opCurveTo2EP6Objecti
_ZN3Gfx10opEndImageEP6Objecti
_ZN3Gfx10opShowTextEP6Objecti
_ZN3Gfx10opTextMoveEP6Objecti
_ZN3Gfx11bottomGuardEv
_ZN3Gfx11opBeginTextEP6Objecti
_ZN3Gfx11opClosePathEP6Objecti
_ZN3Gfx11opImageDataEP6Objecti
_ZN3Gfx11opMarkPointEP6Objecti
_ZN3Gfx11opRectangleEP6Objecti
_ZN3Gfx12opBeginImageEP6Objecti
_ZN3Gfx12opFillStrokeEP6Objecti
_ZN3Gfx12opSetLineCapEP6Objecti
_ZN3Gfx12popResourcesEv
_ZN3Gfx12restoreStateEv
_ZN3Gfx13doAxialShFillEP15GfxAxialShading
_ZN3Gfx13doPatternFillEb
_ZN3Gfx13doPatternTextEv
_ZN3Gfx13opCloseStrokeEP6Objecti
_ZN3Gfx13opSetFillGrayEP6Objecti
_ZN3Gfx13opSetLineJoinEP6Objecti
_ZN3Gfx13opSetTextRiseEP6Objecti
_ZN3Gfx13opTextMoveSetEP6Objecti
_ZN3Gfx13popStateGuardEv
_ZN3Gfx13pushResourcesEP4Dict
_ZN3Gfx14doIncCharCountEPK9GooString
_ZN3Gfx14doRadialShFillEP16GfxRadialShading
_ZN3Gfx14opEOFillStrokeEP6Objecti
_ZN3Gfx14opMoveShowTextEP6Objecti
_ZN3Gfx14opSetCharWidthEP6Objecti
_ZN3Gfx14opSetExtGStateEP6Objecti
_ZN3Gfx14opSetFillColorEP6Objecti
_ZN3Gfx14opSetLineWidthEP6Objecti
_ZN3Gfx14opTextNextLineEP6Objecti
_ZN3Gfx14pushStateGuardEv
_ZN3Gfx14saveStateStackEv
_ZN3Gfx15contentIsHiddenEv
_ZN3Gfx15doPatternStrokeEv
_ZN3Gfx15opSetFillColorNEP6Objecti
_ZN3Gfx15opSetMiterLimitEP6Objecti
_ZN3Gfx15opSetStrokeGrayEP6Objecti
_ZN3Gfx15opSetTextMatrixEP6Objecti
_ZN3Gfx15opSetTextRenderEP6Objecti
_ZN3Gfx15opShowSpaceTextEP6Objecti
_ZN3Gfx16buildImageStreamEv
_ZN3Gfx16doFunctionShFillEP18GfxFunctionShading
_ZN3Gfx16opEndIgnoreUndefEP6Objecti
_ZN3Gfx16opSetCacheDeviceEP6Objecti
_ZN3Gfx16opSetCharSpacingEP6Objecti
_ZN3Gfx16opSetStrokeColorEP6Objecti
_ZN3Gfx16opSetTextLeadingEP6Objecti
_ZN3Gfx16opSetWordSpacingEP6Objecti
_ZN3Gfx16popMarkedContentEv
_ZN3Gfx17doFunctionShFill1EP18GfxFunctionShadingddddP8GfxColori
_ZN3Gfx17doPatchMeshShFillEP19GfxPatchMeshShading
_ZN3Gfx17opCloseFillStrokeEP6Objecti
_ZN3Gfx17opMoveSetShowTextEP6Objecti
_ZN3Gfx17opSetFillRGBColorEP6Objecti
_ZN3Gfx17opSetHorizScalingEP6Objecti
_ZN3Gfx17opSetStrokeColorNEP6Objecti
_ZN3Gfx17pushMarkedContentEv
_ZN3Gfx17restoreStateStackEP8GfxState
_ZN3Gfx18doPatternImageMaskEP6ObjectP6Streamiibb
_ZN3Gfx18initDisplayProfileEv
_ZN3Gfx18opBeginIgnoreUndefEP6Objecti
_ZN3Gfx18opEndMarkedContentEP6Objecti
_ZN3Gfx18opSetFillCMYKColorEP6Objecti
_ZN3Gfx19doTilingPatternFillEP16GfxTilingPatternbbb
_ZN3Gfx19gouraudFillTriangleEddP8GfxColorddS1_ddS1_iiPN8GfxState20ReusablePathIteratorE
_ZN3Gfx19gouraudFillTriangleEddddddddddiP25GfxGouraudTriangleShadingPN8GfxState20ReusablePathIteratorE
_ZN3Gfx19opCloseEOFillStrokeEP6Objecti
_ZN3Gfx19opSetFillColorSpaceEP6Objecti
_ZN3Gfx19opSetStrokeRGBColorEP6Objecti
_ZN3Gfx20doShadingPatternFillEP17GfxShadingPatternbbb
_ZN3Gfx20opBeginMarkedContentEP6Objecti
_ZN3Gfx20opSetRenderingIntentEP6Objecti
_ZN3Gfx20opSetStrokeCMYKColorEP6Objecti
_ZN3Gfx21opSetStrokeColorSpaceEP6Objecti
_ZN3Gfx22checkTransparencyGroupEP4Dict
_ZN3Gfx23doGouraudTriangleShFillEP25GfxGouraudTriangleShading
_ZN3Gfx2goEb
_ZN3Gfx5opTabE DATA
_ZN3Gfx6doFormEP6Object
_ZN3Gfx6execOpEP6ObjectS1_i
_ZN3Gfx6findOpEPKc
_ZN3Gfx6getPosEv
_ZN3Gfx6opClipEP6Objecti
_ZN3Gfx6opFillEP6Objecti
_ZN3Gfx6opSaveEP6Objecti
_ZN3Gfx7displayEP6Objectb
_ZN3Gfx7doImageEP6ObjectP6Streamb
_ZN3Gfx8checkArgEP6Object8TchkType
_ZN3Gfx8drawFormEP6ObjectP4DictPKdS5_bbP13GfxColorSpacebbbP8FunctionP8GfxColor
_ZN3Gfx8opConcatEP6Objecti
_ZN3Gfx8opEOClipEP6Objecti
_ZN3Gfx8opEOFillEP6Objecti
_ZN3Gfx8opLineToEP6Objecti
_ZN3Gfx8opMoveToEP6Objecti
_ZN3Gfx8opShFillEP6Objecti
_ZN3Gfx8opStrokeEP6Objecti
_ZN3Gfx9doEndPathEv
_ZN3Gfx9drawAnnotEP6ObjectP11AnnotBorderP10AnnotColorddddi
_ZN3Gfx9fillPatchEPK8GfxPatchiidiPK19GfxPatchMeshShading
_ZN3Gfx9opCurveToEP6Objecti
_ZN3Gfx9opEndPathEP6Objecti
_ZN3Gfx9opEndTextEP6Objecti
_ZN3Gfx9opRestoreEP6Objecti
_ZN3Gfx9opSetDashEP6Objecti
_ZN3Gfx9opSetFlatEP6Objecti
_ZN3Gfx9opSetFontEP6Objecti
_ZN3Gfx9opXObjectEP6Objecti
_ZN3Gfx9saveStateEv
_ZN3GfxC1EP6PDFDocP9OutputDevP4DictPK12PDFRectangleS8_PFbPvES9_PS_
_ZN3GfxC1EP6PDFDocP9OutputDeviP4DictddPK12PDFRectangleS8_iPFbPvES9_P4XRef
_ZN3GfxC2EP6PDFDocP9OutputDevP4DictPK12PDFRectangleS8_PFbPvES9_PS_
_ZN3GfxC2EP6PDFDocP9OutputDeviP4DictddPK12PDFRectangleS8_iPFbPvES9_P4XRef
_ZN3GfxD1Ev
_ZN3GfxD2Ev
_ZN4CMap10copyVectorEP15CMapVectorEntryS1_
_ZN4CMap13setReverseMapEPjjj
_ZN4CMap14freeCMapVectorEP15CMapVectorEntry
_ZN4CMap19setReverseMapVectorEjP15CMapVectorEntryPjjj
_ZN4CMap5matchEPK9GooStringS2_
_ZN4CMap5parseEP9CMapCachePK9GooStringP6Object
_ZN4CMap5parseEP9CMapCachePK9GooStringP6Stream
_ZN4CMap5parseEP9CMapCachePK9GooStringS4_
_ZN4CMap5parseEP9CMapCachePK9GooStringS4_P6Stream
_ZN4CMap6getCIDEPKciPjPi
_ZN4CMap6parse2EP9CMapCachePFiPvES2_
_ZN4CMap7addCIDsEjjjj
_ZN4CMap7useCMapEP9CMapCacheP6Object
_ZN4CMap7useCMapEP9CMapCachePc
_ZN4CMap9decRefCntEv
_ZN4CMap9incRefCntEv
_ZN4CMapC1EP9GooStringS1_
_ZN4CMapC1EP9GooStringS1_i
_ZN4CMapC2EP9GooStringS1_
_ZN4CMapC2EP9GooStringS1_i
_ZN4CMapD1Ev
_ZN4CMapD2Ev
_ZN4Dict3addEPKcO6Object
_ZN4Dict3setEPKcO6Object
_ZN4Dict6removeEPKc
_ZN4DictC1EP4XRef
_ZN4DictC1EPKS_
_ZN4DictC2EP4XRef
_ZN4DictC2EPKS_
_ZN4Form11fieldLookupEP4DictPKc
_ZN4Form15findWidgetByRefE3Ref
_ZN4Form15postWidgetsLoadEv
_ZN4Form19createFieldFromDictEO6ObjectP6PDFDoc3RefP9FormFieldPSt3setIiSt4lessIiESaIiEE
_ZN4FormC1EP6PDFDocP6Object
_ZN4FormC2EP6PDFDocP6Object
_ZN4FormD1Ev
_ZN4FormD2Ev
_ZN4GDir12getNextEntryEv
_ZN4GDir6rewindEv
_ZN4GDirC1EPKcb
_ZN4GDirC2EPKcb
_ZN4GDirD1Ev
_ZN4GDirD2Ev
_ZN4OCGs12findOcgByRefE3Ref
_ZN4OCGs14getDisplayRootEv
_ZN4OCGs19optContentIsVisibleEPK6Object
_ZN4OCGs20evalOCVisibilityExprEPK6Objecti
_ZN4OCGs5allOnEP5Array
_ZN4OCGs5anyOnEP5Array
_ZN4OCGs6allOffEP5Array
_ZN4OCGs6anyOffEP5Array
_ZN4OCGsC1EP6ObjectP4XRef
_ZN4OCGsC2EP6ObjectP4XRef
_ZN4Page11removeAnnotEP5Annot
_ZN4Page11replaceXRefEP4XRef
_ZN4Page12displaySliceEP9OutputDevddibbiiiibPFbPvES2_PFbP5AnnotS2_ES2_b
_ZN4Page12processLinksEP9OutputDev
_ZN4Page13getDefaultCTMEPdddibb
_ZN4Page14getFormWidgetsEv
_ZN4Page15getResourceDictEv
_ZN4Page19getAdditionalActionENS_25PageAdditionalActionsTypeE
_ZN4Page19getResourceDictCopyEP4XRef
_ZN4Page21getResourceDictObjectEv
_ZN4Page7displayEP3Gfx
_ZN4Page7displayEP9OutputDevddibbbPFbPvES2_PFbP5AnnotS2_ES2_b
_ZN4Page7makeBoxEddibbddddP12PDFRectanglePb
_ZN4Page8addAnnotEP5Annot
_ZN4Page8getLinksEv
_ZN4Page9createGfxEP9OutputDevddibbiiiibPFbPvES2_P4XRef
_ZN4Page9getAnnotsEP4XRef
_ZN4Page9loadThumbEPPhPiS2_S2_
_ZN4PageC1EP6PDFDociO6Object3RefP9PageAttrsP4Form
_ZN4PageC2EP6PDFDociO6Object3RefP9PageAttrsP4Form
_ZN4PageD1Ev
_ZN4PageD2Ev
_ZN4XRef10getCatalogEv
_ZN4XRef10getDocInfoEv
_ZN4XRef10parseEntryExP9XRefEntry
_ZN4XRef11getNumEntryEx
_ZN4XRef12getDocInfoNFEv
_ZN4XRef12getStreamEndExPx
_ZN4XRef13constructXRefEPbb
_ZN4XRef13readXRefTableEP6ParserPxPSt6vectorIxSaIxEEPS3_IiSaIiEE
_ZN4XRef13readXRefUntilEiPSt6vectorIiSaIiEE
_ZN4XRef13removeDocInfoEv
_ZN4XRef13setEncryptionEibPKhiii14CryptAlgorithm
_ZN4XRef14readXRefStreamEP6StreamPx
_ZN4XRef15XRefTableWriter10writeEntryExi13XRefEntryType
_ZN4XRef15XRefTableWriter12startSectionEii
_ZN4XRef15XRefTableWriterC1EP9OutStream
_ZN4XRef15XRefTableWriterC2EP9OutStream
_ZN4XRef15XRefTableWriterD0Ev
_ZN4XRef15XRefTableWriterD1Ev
_ZN4XRef15markUnencryptedEP6Object
_ZN4XRef15markUnencryptedEv
_ZN4XRef16XRefStreamWriter10writeEntryExi13XRefEntryType
_ZN4XRef16XRefStreamWriter12startSectionEii
_ZN4XRef16XRefStreamWriterC1EP5ArrayP9GooStringi
_ZN4XRef16XRefStreamWriterC2EP5ArrayP9GooStringi
_ZN4XRef16XRefStreamWriterD0Ev
_ZN4XRef16XRefStreamWriterD1Ev
_ZN4XRef16scanSpecialFlagsEv
_ZN4XRef16writeTableToFileEP9OutStreamb
_ZN4XRef17XRefPreScanWriter10writeEntryExi13XRefEntryType
_ZN4XRef17XRefPreScanWriter12startSectionEii
_ZN4XRef17XRefPreScanWriterC1Ev
_ZN4XRef17XRefPreScanWriterC2Ev
_ZN4XRef17XRefPreScanWriterD0Ev
_ZN4XRef17XRefPreScanWriterD1Ev
_ZN4XRef17addIndirectObjectEPK6Object
_ZN4XRef17setModifiedObjectEPK6Object3Ref
_ZN4XRef19writeStreamToBufferEP9GooStringP4DictPS_
_ZN4XRef20removeIndirectObjectE3Ref
_ZN4XRef21readXRefStreamSectionEP6StreamPiii
_ZN4XRef23getEncryptionParametersEPPhP14CryptAlgorithmPi
_ZN4XRef25createDocInfoIfNoneExistsEv
_ZN4XRef3addEiixb
_ZN4XRef4lockEv
_ZN4XRef5fetchE3Refi
_ZN4XRef5fetchEiii
_ZN4XRef6resizeEi
_ZN4XRef6unlockEv
_ZN4XRef7reserveEi
_ZN4XRef8getEntryEib
_ZN4XRef8readXRefEPxPSt6vectorIxSaIxEEPS1_IiSaIiEE
_ZN4XRef9writeXRefEPNS_10XRefWriterEb
_ZN4XRefC1EP10BaseStreamxxPbb
_ZN4XRefC1EPK6Object
_ZN4XRefC1Ev
_ZN4XRefC2EP10BaseStreamxxPbb
_ZN4XRefC2EPK6Object
_ZN4XRefC2Ev
_ZN4XRefD1Ev
_ZN4XRefD2Ev
_ZN5Annot10createFormEPK9GooStringPdbO6Object
_ZN5Annot10createFormEPK9GooStringPdbP4Dict
_ZN5Annot10initializeEP6PDFDocP4Dict
_ZN5Annot10layoutTextEPK9GooStringPS0_PiPK7GfxFontPddS4_b
_ZN5Annot11setContentsEP9GooString
_ZN5Annot11setModifiedEP9GooString
_ZN5Annot12readArrayNumEP6ObjectiPd
_ZN5Annot18setAppearanceStateEPKc
_ZN5Annot19createResourcesDictEPKcO6ObjectS1_dS1_
_ZN5Annot20getAppearanceResDictEv
_ZN5Annot20invalidateAppearanceEv
_ZN5Annot23removeReferencedObjectsEv
_ZN5Annot4drawEP3Gfxb
_ZN5Annot6updateEPKcO6Object
_ZN5Annot7getXMaxEv
_ZN5Annot7getXMinEv
_ZN5Annot7getYMaxEv
_ZN5Annot7getYMinEv
_ZN5Annot7setNameEP9GooString
_ZN5Annot7setPageEib
_ZN5Annot7setRectEP12PDFRectangle
_ZN5Annot7setRectEdddd
_ZN5Annot8setColorEOSt10unique_ptrI10AnnotColorSt14default_deleteIS1_EE
_ZN5Annot8setFlagsEj
_ZN5Annot9decRefCntEv
_ZN5Annot9incRefCntEv
_ZN5Annot9isVisibleEb
_ZN5Annot9setBorderEOSt10unique_ptrI11AnnotBorderSt14default_deleteIS1_EE
_ZN5AnnotC1EP6PDFDocO6Object
_ZN5AnnotC1EP6PDFDocO6ObjectPKS2_
_ZN5AnnotC1EP6PDFDocP12PDFRectangle
_ZN5AnnotC2EP6PDFDocO6Object
_ZN5AnnotC2EP6PDFDocO6ObjectPKS2_
_ZN5AnnotC2EP6PDFDocP12PDFRectangle
_ZN5AnnotD0Ev
_ZN5AnnotD1Ev
_ZN5AnnotD2Ev
_ZN5Array3addEO6Object
_ZN5Array6removeEi
_ZN5ArrayC1EP4XRef
_ZN5ArrayC2EP4XRef
_ZN5ArrayD1Ev
_ZN5ArrayD2Ev
_ZN5Hints10readTablesEP10BaseStreamP13LinearizationP4XRefP15SecurityHandler
_ZN5Hints13getPageOffsetEi
_ZN5Hints13getPageRangesEi
_ZN5Hints16getPageObjectNumEi
_ZN5Hints19readPageOffsetTableEP6Stream
_ZN5Hints22readSharedObjectsTableEP6Stream
_ZN5HintsC1EP10BaseStreamP13LinearizationP4XRefP15SecurityHandler
_ZN5HintsC2EP10BaseStreamP13LinearizationP4XRefP15SecurityHandler
_ZN5HintsD1Ev
_ZN5HintsD2Ev
_ZN5Lexer14skipToNextLineEv
_ZN5Lexer6getObjEPKci
_ZN5Lexer6getObjEi
_ZN5Lexer6getPosEv
_ZN5Lexer7getCharEb
_ZN5Lexer7isSpaceEi
_ZN5Lexer8lookCharEv
_ZN5LexerC1EP4XRefP6Object
_ZN5LexerC1EP4XRefP6Stream
_ZN5LexerC2EP4XRefP6Object
_ZN5LexerC2EP4XRefP6Stream
_ZN5LexerD1Ev
_ZN5LexerD2Ev
_ZN5LinksC1EP6Annots
_ZN5LinksC2EP6Annots
_ZN5LinksD1Ev
_ZN5LinksD2Ev
_ZN5Movie10parseMovieEPK6Object
_ZN5Movie21getFloatingWindowSizeEPiS0_
_ZN5MovieC1EPK6Object
_ZN5MovieC1EPK6ObjectS2_
_ZN5MovieC1ERKS_
_ZN5MovieC2EPK6Object
_ZN5MovieC2EPK6ObjectS2_
_ZN5MovieC2ERKS_
_ZN5MovieD1Ev
_ZN5MovieD2Ev
_ZN5Sound10parseSoundEP6Object
_ZN5Sound9getStreamEv
_ZN5SoundC1EPK6Objectb
_ZN5SoundC2EPK6Objectb
_ZN5SoundD1Ev
_ZN5SoundD2Ev
_ZN6Annots11appendAnnotEP5Annot
_ZN6Annots11createAnnotEO6ObjectPKS0_
_ZN6Annots11removeAnnotEP5Annot
_ZN6Annots9findAnnotEP3Ref
_ZN6AnnotsC1EP6PDFDociP6Object
_ZN6AnnotsC2EP6PDFDociP6Object
_ZN6AnnotsD1Ev
_ZN6AnnotsD2Ev
_ZN6Matrix5scaleEdd
_ZN6Matrix9translateEdd
_ZN6Object10takeStringEv
_ZN6Object4freeEv
_ZN6ObjectC1E7ObjTypePKc
_ZN6PDFDoc10getOutlineEv
_ZN6PDFDoc10markObjectEP6ObjectP4XRefS3_jiiPSt3setIP4DictSt4lessIS6_ESaIS6_EE
_ZN6PDFDoc10savePageAsEPK9GooStringi
_ZN6PDFDoc11ErrorPDFDocEiPK9GooString
_ZN6PDFDoc11checkFooterEv
_ZN6PDFDoc11checkHeaderEv
_ZN6PDFDoc11displayPageEP9OutputDeviddibbbPFbPvES2_PFbP5AnnotS2_ES2_b
_ZN6PDFDoc11getNumPagesEv
_ZN6PDFDoc11writeHeaderEP9OutStreamii
_ZN6PDFDoc11writeObjectEP6ObjectP9OutStreamP4XRefjPh14CryptAlgorithmiiiPSt3setIP4DictSt4lessISA_ESaISA_EE
_ZN6PDFDoc11writeStreamEP6StreamP9OutStream
_ZN6PDFDoc11writeStringEPK9GooStringP9OutStreamPKh14CryptAlgorithmiii
_ZN6PDFDoc12displayPagesEP9OutputDeviiddibbbPFbPvES2_PFbP5AnnotS2_ES2_
_ZN6PDFDoc12getStartXRefEb
_ZN6PDFDoc12isLinearizedEb
_ZN6PDFDoc12markAcroFormEP6ObjectP4XRefS3_jii
_ZN6PDFDoc12processLinksEP9OutputDevi
_ZN6PDFDoc13strToLongLongEPKc
_ZN6PDFDoc14writeRawStreamEP6StreamP9OutStream
_ZN6PDFDoc15checkEncryptionEPK9GooStringS2_
_ZN6PDFDoc15markAnnotationsEP6ObjectP4XRefS3_jiiPSt3setIP4DictSt4lessIS6_ESaIS6_EE
_ZN6PDFDoc15markDictionnaryEP4DictP4XRefS3_jiiPSt3setIS1_St4lessIS1_ESaIS1_EE
_ZN6PDFDoc15markPageObjectsEP4DictP4XRefS3_jiiPSt3setIS1_St4lessIS1_ESaIS1_EE
_ZN6PDFDoc15replacePageDictEiiPK12PDFRectangleS2_
_ZN6PDFDoc16displayPageSliceEP9OutputDeviddibbbiiiiPFbPvES2_PFbP5AnnotS2_ES2_b
_ZN6PDFDoc16getLinearizationEv
_ZN6PDFDoc16writeDictionnaryEP4DictP9OutStreamP4XRefjPh14CryptAlgorithmiiiPSt3setIS1_St4lessIS1_ESaIS1_EE
_ZN6PDFDoc16writePageObjectsEP9OutStreamP4XRefjb
_ZN6PDFDoc17createTrailerDictEibxP3RefP4XRefPKcx
_ZN6PDFDoc17extractPDFSubtypeEv
_ZN6PDFDoc17writeObjectFooterEP9OutStream
_ZN6PDFDoc17writeObjectHeaderEP3RefP9OutStream
_ZN6PDFDoc18checkLinearizationEv
_ZN6PDFDoc18setDocInfoModifiedEP6Object
_ZN6PDFDoc19getSignatureWidgetsEv
_ZN6PDFDoc19saveCompleteRewriteEP9OutStream
_ZN6PDFDoc20saveWithoutChangesAsEP9OutStream
_ZN6PDFDoc20saveWithoutChangesAsEPK9GooString
_ZN6PDFDoc21getDocInfoStringEntryEPKc
_ZN6PDFDoc21saveIncrementalUpdateEP9OutStream
_ZN6PDFDoc21setDocInfoStringEntryEPKcP9GooString
_ZN6PDFDoc21writeXRefTableTrailerEO6ObjectP4XRefbxP9OutStreamS3_
_ZN6PDFDoc21writeXRefTableTrailerExP4XRefbiP9OutStreamb
_ZN6PDFDoc22writeXRefStreamTrailerEO6ObjectP4XRefP3RefxP9OutStreamS3_
_ZN6PDFDoc24getMainXRefEntriesOffsetEb
_ZN6PDFDoc4initEv
_ZN6PDFDoc5setupEPK9GooStringS2_
_ZN6PDFDoc6saveAsEP9OutStream12PDFWriteMode
_ZN6PDFDoc6saveAsEPK9GooString12PDFWriteMode
_ZN6PDFDoc7getPageEi
_ZN6PDFDoc8getHintsEv
_ZN6PDFDoc8getLinksEi
_ZN6PDFDoc9parsePageEi
_ZN6PDFDocC1EP10BaseStreamPK9GooStringS4_Pv
_ZN6PDFDocC1EPK9GooStringS2_S2_Pv
_ZN6PDFDocC1EPwiP9GooStringS2_Pv
_ZN6PDFDocC1Ev
_ZN6PDFDocC2EP10BaseStreamPK9GooStringS4_Pv
_ZN6PDFDocC2EPK9GooStringS2_S2_Pv
_ZN6PDFDocC2EPwiP9GooStringS2_Pv
_ZN6PDFDocC2Ev
_ZN6PDFDocD1Ev
_ZN6PDFDocD2Ev
_ZN6Parser10makeStreamEO6ObjectPh14CryptAlgorithmiiiib
_ZN6Parser5shiftEPKci
_ZN6Parser5shiftEi
_ZN6Parser6getObjEbPh14CryptAlgorithmiiiib
_ZN6Parser6getObjEi
_ZN6ParserC1EP4XRefP6Objectb
_ZN6ParserC1EP4XRefP6Streamb
_ZN6ParserC2EP4XRefP6Objectb
_ZN6ParserC2EP4XRefP6Streamb
_ZN6ParserD1Ev
_ZN6ParserD2Ev
_ZN6Stream10addFiltersEP4Dicti
_ZN6Stream10getRawCharEv
_ZN6Stream10makeFilterEPKcPS_P6ObjectiP4Dict
_ZN6Stream11getPSFilterEiPKc
_ZN6Stream11getRawCharsEiPi
_ZN6Stream11hasGetCharsEv
_ZN6Stream13fillGooStringEP9GooString
_ZN6Stream13getNextStreamEv
_ZN6Stream14getImageParamsEPiP20StreamColorSpaceMode
_ZN6Stream15toUnsignedCharsEPiii
_ZN6Stream5closeEv
_ZN6Stream7getLineEPci
_ZN6Stream8getCharsEiPh
_ZN6Stream9isEncoderEv
_ZN6StreamC1Ev
_ZN6StreamC2Ev
_ZN6StreamD0Ev
_ZN6StreamD1Ev
_ZN6StreamD2Ev
_ZN7Annot3D10ActivationC1EP4Dict
_ZN7Annot3D10ActivationC2EP4Dict
_ZN7Annot3D10initializeEP6PDFDocP4Dict
_ZN7Annot3DC1EP6PDFDocO6ObjectPKS2_
_ZN7Annot3DC1EP6PDFDocP12PDFRectangle
_ZN7Annot3DC2EP6PDFDocO6ObjectPKS2_
_ZN7Annot3DC2EP6PDFDocP12PDFRectangle
_ZN7Annot3DD0Ev
_ZN7Annot3DD1Ev
_ZN7Annot3DD2Ev
_ZN7Catalog10getOutlineEv
_ZN7Catalog10getPageRefEi
_ZN7Catalog11getFormTypeEv
_ZN7Catalog11getMarkInfoEv
_ZN7Catalog11getNumPagesEv
_ZN7Catalog11getPageModeEv
_ZN7Catalog12embeddedFileEi
_ZN7Catalog12getDestsDestEi
_ZN7Catalog12getDestsNameEi
_ZN7Catalog12indexToLabelEiP9GooString
_ZN7Catalog12labelToIndexEP9GooStringPi
_ZN7Catalog12readMetadataEv
_ZN7Catalog13cachePageTreeEi
_ZN7Catalog13getJSNameTreeEv
_ZN7Catalog13getPageLayoutEv
_ZN7Catalog14createLinkDestEP6Object
_ZN7Catalog15addEmbeddedFileEP7GooFileRKNSt7__cxx1112basic_stringIcSt11char_traitsIcESaIcEEE
_ZN7Catalog15getDestNameTreeEv
_ZN7Catalog15hasEmbeddedFileERKNSt7__cxx1112basic_stringIcSt11char_traitsIcESaIcEEE
_ZN7Catalog16getPageLabelInfoEv
_ZN7Catalog17getStructTreeRootEv
_ZN7Catalog19getAdditionalActionENS_29DocumentAdditionalActionsTypeE
_ZN7Catalog19getDestNameTreeDestEi
_ZN7Catalog20getViewerPreferencesEv
_ZN7Catalog23getEmbeddedFileNameTreeEv
_ZN7Catalog5getJSEi
_ZN7Catalog7getFormEv
_ZN7Catalog7getPageEi
_ZN7Catalog8findDestEPK9GooString
_ZN7Catalog8findPageE3Ref
_ZN7Catalog8getDestsEv
_ZN7Catalog8getNamesEv
_ZN7Catalog8numDestsEv
_ZN7CatalogC1EP6PDFDoc
_ZN7CatalogC2EP6PDFDoc
_ZN7CatalogD1Ev
_ZN7CatalogD2Ev
_ZN7Decrypt11makeFileKeyEiiiPK9GooStringS2_S2_S2_iS2_S2_S2_PhbPb
_ZN7Decrypt12makeFileKey2EiiiPK9GooStringS2_iS2_S2_Phb
_ZN7EmbFile4saveEPKc
_ZN7EmbFile5save2EP6_iobuf
_ZN7EmbFileC1EO6Object
_ZN7EmbFileC2EO6Object
_ZN7EmbFileD1Ev
_ZN7EmbFileD2Ev
_ZN7GfxFont10locateFontEP4XRefP11PSOutputDev
_ZN7GfxFont11getFontTypeEP4XRefP4DictP3Ref
_ZN7GfxFont15getExternalFontEP9GooStringb
_ZN7GfxFont15readEmbFontFileEP4XRefPi
_ZN7GfxFont16getAlternateNameEPKc
_ZN7GfxFont16locateBase14FontEP9GooString
_ZN7GfxFont17readToUnicodeCMapEP4DictiP17CharCodeToUnicode
_ZN7GfxFont18readFontDescriptorEP4XRefP4Dict
_ZN7GfxFont8getWModeEv
_ZN7GfxFont8makeFontEP4XRefPKc3RefP4Dict
_ZN7GfxFont9decRefCntEv
_ZN7GfxFont9incRefCntEv
_ZN7GfxFontC1EPKc3RefP9GooString11GfxFontTypeS2_
_ZN7GfxFontC2EPKc3RefP9GooString11GfxFontTypeS2_
_ZN7GfxFontD0Ev
_ZN7GfxFontD1Ev
_ZN7GfxFontD2Ev
_ZN7GfxPath5closeEv
_ZN7GfxPath6appendEPS_
_ZN7GfxPath6lineToEdd
_ZN7GfxPath6moveToEdd
_ZN7GfxPath6offsetEdd
_ZN7GfxPath7curveToEdddddd
_ZN7GfxPathC1EbddPP10GfxSubpathii
_ZN7GfxPathC1Ev
_ZN7GfxPathC2EbddPP10GfxSubpathii
_ZN7GfxPathC2Ev
_ZN7GfxPathD1Ev
_ZN7GfxPathD2Ev
_ZN7GooFile4openEPK9GooString
_ZN7GooFile4openEPKw
_ZN7GooFileC1EPv
_ZN7GooFileC2EPv
_ZN7LinkURIC1EPK6ObjectPK9GooString
_ZN7LinkURIC2EPK6ObjectPK9GooString
_ZN7LinkURID0Ev
_ZN7LinkURID1Ev
_ZN7LinkURID2Ev
_ZN7OutlineC1EPK6ObjectP4XRef
_ZN7OutlineC2EPK6ObjectP4XRef
_ZN7OutlineD1Ev
_ZN7OutlineD2Ev
_ZN7PSStack4copyEi
_ZN7PSStack4rollEii
_ZN7PSStack6popIntEv
_ZN7PSStack6popNumEv
_ZN8AnnotInk10initializeEP6PDFDocP4Dict
_ZN8AnnotInk10setInkListEPP9AnnotPathi
_ZN8AnnotInk11freeInkListEv
_ZN8AnnotInk12parseInkListEP5Array
_ZN8AnnotInk12writeInkListEPP9AnnotPathiP5Array
_ZN8AnnotInk4drawEP3Gfxb
_ZN8AnnotInkC1EP6PDFDocO6ObjectPKS2_
_ZN8AnnotInkC1EP6PDFDocP12PDFRectangle
_ZN8AnnotInkC2EP6PDFDocO6ObjectPKS2_
_ZN8AnnotInkC2EP6PDFDocP12PDFRectangle
_ZN8AnnotInkD0Ev
_ZN8AnnotInkD1Ev
_ZN8AnnotInkD2Ev
_ZN8FileSpec15getEmbeddedFileEv
_ZN8FileSpec17newFileSpecObjectEP4XRefP7GooFileRKNSt7__cxx1112basic_stringIcSt11char_traitsIcESaIcEEE
_ZN8FileSpec22getFileNameForPlatformEv
_ZN8FileSpecC1EPK6Object
_ZN8FileSpecC2EPK6Object
_ZN8FileSpecD1Ev
_ZN8FileSpecD2Ev
_ZN8FoFiBase8readFileEPKcPi
_ZN8FoFiBaseC1EPKcib
_ZN8FoFiBaseC2EPKcib
_ZN8FoFiBaseD0Ev
_ZN8FoFiBaseD1Ev
_ZN8FoFiBaseD2Ev
_ZN8FontInfoC1EP7GfxFontP4XRef
_ZN8FontInfoC1ERS_
_ZN8FontInfoC2EP7GfxFontP4XRef
_ZN8FontInfoC2ERS_
_ZN8FontInfoD1Ev
_ZN8FontInfoD2Ev
_ZN8Function4initEP4Dict
_ZN8Function5parseEP6Object
_ZN8Function5parseEP6ObjectPSt3setIiSt4lessIiESaIiEE
_ZN8FunctionC1EPKS_
_ZN8FunctionC1Ev
_ZN8FunctionC2EPKS_
_ZN8FunctionC2Ev
_ZN8FunctionD0Ev
_ZN8FunctionD1Ev
_ZN8FunctionD2Ev
_ZN8GfxState10clipToRectEdddd
_ZN8GfxState11setLineDashEPdid
_ZN8GfxState11setTransferEPP8Function
_ZN8GfxState14parseBlendModeEP6ObjectP12GfxBlendMode
_ZN8GfxState14setFillPatternEP10GfxPattern
_ZN8GfxState14transformWidthEd
_ZN8GfxState15getFontTransMatEPdS0_S0_S0_
_ZN8GfxState15getUserClipBBoxEPdS0_S0_S0_
_ZN8GfxState15shiftCTMAndClipEdd
_ZN8GfxState16clipToStrokePathEv
_ZN8GfxState16setStrokePatternEP10GfxPattern
_ZN8GfxState17setDisplayProfileEPv
_ZN8GfxState17setFillColorSpaceEP13GfxColorSpace
_ZN8GfxState19setStrokeColorSpaceEP13GfxColorSpace
_ZN8GfxState20ReusablePathIterator4nextEv
_ZN8GfxState20ReusablePathIterator5resetEv
_ZN8GfxState20ReusablePathIterator8setCoordEdd
_ZN8GfxState20ReusablePathIteratorC1EP7GfxPath
_ZN8GfxState20ReusablePathIteratorC2EP7GfxPath
_ZN8GfxState22getTransformedFontSizeEv
_ZN8GfxState23getXYZ2DisplayTransformEv
_ZN8GfxState4clipEv
_ZN8GfxState4saveEv
_ZN8GfxState5shiftEdd
_ZN8GfxState6setCTMEdddddd
_ZN8GfxState7restoreEv
_ZN8GfxState7setFontEP7GfxFontd
_ZN8GfxState7setPathEP7GfxPath
_ZN8GfxState9clearPathEv
_ZN8GfxState9closePathEv
_ZN8GfxState9concatCTMEdddddd
_ZN8GfxState9textShiftEdd
_ZN8GfxStateC1EPKS_b
_ZN8GfxStateC1EddPK12PDFRectangleib
_ZN8GfxStateC2EPKS_b
_ZN8GfxStateC2EddPK12PDFRectangleib
_ZN8GfxStateD1Ev
_ZN8GfxStateD2Ev
_ZN8GooTimer10getElapsedEv
_ZN8GooTimer4stopEv
_ZN8GooTimer5startEv
_ZN8GooTimerC1Ev
_ZN8GooTimerC2Ev
_ZN8LinkDestC1EPK5Array
_ZN8LinkDestC1EPKS_
_ZN8LinkDestC2EPK5Array
_ZN8LinkDestC2EPKS_
_ZN8LinkGoToC1EPK6Object
_ZN8LinkGoToC2EPK6Object
_ZN8LinkGoToD0Ev
_ZN8LinkGoToD1Ev
_ZN8LinkGoToD2Ev
_ZN8LinkHideC1EPK6Object
_ZN8LinkHideC2EPK6Object
_ZN8LinkHideD0Ev
_ZN8LinkHideD1Ev
_ZN8LinkHideD2Ev
_ZN8NameTree4initEP4XRefP6Object
_ZN8NameTree5Entry3cmpEPKvS2_
_ZN8NameTree5Entry8cmpEntryEPKvS2_
_ZN8NameTree5EntryC1EP5Arrayi
_ZN8NameTree5EntryC2EP5Arrayi
_ZN8NameTree5EntryD1Ev
_ZN8NameTree5EntryD2Ev
_ZN8NameTree5parseEP6ObjectRSt3setIiSt4lessIiESaIiEE
_ZN8NameTree6lookupEPK9GooString
_ZN8NameTree7getNameEi
_ZN8NameTree8addEntryEPNS_5EntryE
_ZN8NameTree8getValueEi
_ZN8NameTreeC1Ev
_ZN8NameTreeC2Ev
_ZN8NameTreeD1Ev
_ZN8NameTreeD2Ev
_ZN8TextFlow8addBlockEP9TextBlock
_ZN8TextFlow9blockFitsEP9TextBlockS1_
_ZN8TextFlowC1EP8TextPageP9TextBlock
_ZN8TextFlowC2EP8TextPageP9TextBlock
_ZN8TextFlowD1Ev
_ZN8TextFlowD2Ev
_ZN8TextLine10primaryCmpEPS_
_ZN8TextLine12primaryDeltaEPS_
_ZN8TextLine12secondaryCmpEPS_
_ZN8TextLine14visitSelectionEP20TextSelectionVisitorP12PDFRectangle14SelectionStyle
_ZN8TextLine5cmpXYEPKvS1_
_ZN8TextLine5cmpYXEPS_
_ZN8TextLine7addWordEP8TextWord
_ZN8TextLine8coalesceEP10UnicodeMap
_ZN8TextLineC1EP9TextBlockid
_ZN8TextLineC2EP9TextBlockid
_ZN8TextLineD1Ev
_ZN8TextLineD2Ev
_ZN8TextPage10updateFontEP8GfxState
_ZN8TextPage12addUnderlineEdddd
_ZN8TextPage12dumpFragmentEPjiP10UnicodeMapP9GooString
_ZN8TextPage12incCharCountEi
_ZN8TextPage12makeWordListEb
_ZN8TextPage13assignColumnsEP12TextLineFragib
_ZN8TextPage13drawSelectionEP9OutputDevdiP12PDFRectangle14SelectionStyleP8GfxColorS6_
_ZN8TextPage13findCharRangeEiiPdS0_S0_S0_
_ZN8TextPage14visitSelectionEP20TextSelectionVisitorP12PDFRectangle14SelectionStyle
_ZN8TextPage16getSelectionTextEP12PDFRectangle14SelectionStyle
_ZN8TextPage17getSelectionWordsEP12PDFRectangle14SelectionStylePi
_ZN8TextPage17setMergeCombiningEb
_ZN8TextPage18getSelectionRegionEP12PDFRectangle14SelectionStyled
_ZN8TextPage4dumpEPvPFvS0_PKciEb
_ZN8TextPage5clearEv
_ZN8TextPage7addCharEP8GfxStateddddjiPji
_ZN8TextPage7addLinkEiiiiP9AnnotLink
_ZN8TextPage7addWordEP8TextWord
_ZN8TextPage7endPageEv
_ZN8TextPage7endWordEv
_ZN8TextPage7getTextEdddd
_ZN8TextPage8coalesceEbdb
_ZN8TextPage8findTextEPjibbbbbbbPdS1_S1_S1_
_ZN8TextPage8findTextEPjibbbbbbbbPdS1_S1_S1_
_ZN8TextPage9beginWordEP8GfxState
_ZN8TextPage9decRefCntEv
_ZN8TextPage9incRefCntEv
_ZN8TextPage9startPageEP8GfxState
_ZN8TextPageC1Eb
_ZN8TextPageC2Eb
_ZN8TextPageD1Ev
_ZN8TextPageD2Ev
_ZN8TextPool10getBaseIdxEd
_ZN8TextPool7addWordEP8TextWord
_ZN8TextPoolC1Ev
_ZN8TextPoolC2Ev
_ZN8TextPoolD1Ev
_ZN8TextPoolD2Ev
_ZN8TextWord11getCharBBoxEiPdS0_S0_S0_
_ZN8TextWord12addCombiningEP8GfxStateP12TextFontInfodddddiijjRK6Matrix
_ZN8TextWord12primaryDeltaEPS_
_ZN8TextWord14ensureCapacityEi
_ZN8TextWord14visitSelectionEP20TextSelectionVisitorP12PDFRectangle14SelectionStyle
_ZN8TextWord16setInitialBoundsEP12TextFontInfodd
_ZN8TextWord5cmpYXEPKvS1_
_ZN8TextWord5mergeEPS_
_ZN8TextWord7addCharEP8GfxStateP12TextFontInfoddddiijjRK6Matrix
_ZN8TextWord7getTextEv
_ZN8TextWordC1EPK8GfxStateid
_ZN8TextWordC2EPK8GfxStateid
_ZN8TextWordD1Ev
_ZN8TextWordD2Ev
_ZN9AnnotLine10initializeEP6PDFDocP4Dict
_ZN9AnnotLine10setCaptionEb
_ZN9AnnotLine11setContentsEP9GooString
_ZN9AnnotLine11setVerticesEdddd
_ZN9AnnotLine16setInteriorColorEOSt10unique_ptrI10AnnotColorSt14default_deleteIS1_EE
_ZN9AnnotLine16setStartEndStyleE20AnnotLineEndingStyleS0_
_ZN9AnnotLine19setLeaderLineLengthEd
_ZN9AnnotLine20getAppearanceResDictEv
_ZN9AnnotLine22generateLineAppearanceEv
_ZN9AnnotLine22setLeaderLineExtensionEd
_ZN9AnnotLine4drawEP3Gfxb
_ZN9AnnotLine9setIntentENS_15AnnotLineIntentE
_ZN9AnnotLineC1EP6PDFDocO6ObjectPKS2_
_ZN9AnnotLineC1EP6PDFDocP12PDFRectangle
_ZN9AnnotLineC2EP6PDFDocO6ObjectPKS2_
_ZN9AnnotLineC2EP6PDFDocP12PDFRectangle
_ZN9AnnotLineD0Ev
_ZN9AnnotLineD1Ev
_ZN9AnnotLineD2Ev
_ZN9AnnotLink10initializeEP6PDFDocP4Dict
_ZN9AnnotLink4drawEP3Gfxb
_ZN9AnnotLinkC1EP6PDFDocO6ObjectPKS2_
_ZN9AnnotLinkC1EP6PDFDocP12PDFRectangle
_ZN9AnnotLinkC2EP6PDFDocO6ObjectPKS2_
_ZN9AnnotLinkC2EP6PDFDocP12PDFRectangle
_ZN9AnnotLinkD0Ev
_ZN9AnnotLinkD1Ev
_ZN9AnnotLinkD2Ev
_ZN9AnnotPath14parsePathArrayEP5Array
_ZN9AnnotPath8getCoordEi
_ZN9AnnotPathC1EOSt6vectorI10AnnotCoordSaIS1_EE
_ZN9AnnotPathC1EP5Array
_ZN9AnnotPathC1Ev
_ZN9AnnotPathC2EOSt6vectorI10AnnotCoordSaIS1_EE
_ZN9AnnotPathC2EP5Array
_ZN9AnnotPathC2Ev
_ZN9AnnotPathD1Ev
_ZN9AnnotPathD2Ev
_ZN9AnnotText10initializeEP6PDFDocP4Dict
_ZN9AnnotText4drawEP3Gfxb
_ZN9AnnotText7setIconEP9GooString
_ZN9AnnotText7setOpenEb
_ZN9AnnotTextC1EP6PDFDocO6ObjectPKS2_
_ZN9AnnotTextC1EP6PDFDocP12PDFRectangle
_ZN9AnnotTextC2EP6PDFDocO6ObjectPKS2_
_ZN9AnnotTextC2EP6PDFDocP12PDFRectangle
_ZN9AnnotTextD0Ev
_ZN9AnnotTextD1Ev
_ZN9AnnotTextD2Ev
_ZN9Attribute14getTypeForNameEPKcP13StructElement
_ZN9Attribute15getDefaultValueENS_4TypeE
_ZN9Attribute17parseUserPropertyEP4Dict
_ZN9Attribute17setFormattedValueEPKc
_ZN9Attribute9checkTypeEP13StructElement
_ZN9AttributeC1ENS_4TypeEP6Object
_ZN9AttributeC1EO9GooStringP6Object
_ZN9AttributeC2ENS_4TypeEP6Object
_ZN9AttributeC2EO9GooStringP6Object
_ZN9AttributeD1Ev
_ZN9AttributeD2Ev
_ZN9BufStream11getPSFilterEiPKc
_ZN9BufStream5resetEv
_ZN9BufStream7getCharEv
_ZN9BufStream7getKindEv
_ZN9BufStream8isBinaryEb
_ZN9BufStream8lookCharEi
_ZN9BufStream8lookCharEv
_ZN9BufStreamC1EP6Streami
_ZN9BufStreamC2EP6Streami
_ZN9BufStreamD0Ev
_ZN9BufStreamD1Ev
_ZN9BufStreamD2Ev
_ZN9CMapCache7getCMapEPK9GooStringS2_P6Stream
_ZN9CMapCacheC1Ev
_ZN9CMapCacheC2Ev
_ZN9CMapCacheD1Ev
_ZN9CMapCacheD2Ev
_ZN9DCTStream11getPSFilterEiPKc
_ZN9DCTStream11hasGetCharsEv
_ZN9DCTStream4initEv
_ZN9DCTStream5resetEv
_ZN9DCTStream7getCharEv
_ZN9DCTStream7getKindEv
_ZN9DCTStream8getCharsEiPh
_ZN9DCTStream8isBinaryEb
_ZN9DCTStream8lookCharEv
_ZN9DCTStreamC1EP6StreamiP4Dicti
_ZN9DCTStreamC2EP6StreamiP4Dicti
_ZN9DCTStreamD0Ev
_ZN9DCTStreamD1Ev
_ZN9DCTStreamD2Ev
_ZN9EOFStream11getPSFilterEiPKc
_ZN9EOFStream5resetEv
_ZN9EOFStream7getCharEv
_ZN9EOFStream7getKindEv
_ZN9EOFStream8isBinaryEb
_ZN9EOFStream8lookCharEv
_ZN9EOFStreamC1EP6Stream
_ZN9EOFStreamC2EP6Stream
_ZN9EOFStreamD0Ev
_ZN9EOFStreamD1Ev
_ZN9EOFStreamD2Ev
_ZN9FoFiType111getEncodingEv
_ZN9FoFiType113getFontMatrixEPd
_ZN9FoFiType14loadEPKc
_ZN9FoFiType14makeEPKci
_ZN9FoFiType15parseEv
_ZN9FoFiType17getNameEv
_ZN9FoFiType17undoPFBEv
_ZN9FoFiType1C1EPKcib
_ZN9FoFiType1C2EPKcib
_ZN9FoFiType1D0Ev
_ZN9FoFiType1D1Ev
_ZN9FoFiType1D2Ev
_ZN9FormField11setReadOnlyEb
_ZN9FormField13_createWidgetEP6Object3Ref
_ZN9FormField14setPartialNameERK9GooString
_ZN9FormField15findWidgetByRefE3Ref
_ZN9FormField21getFullyQualifiedNameEv
_ZN9FormField22fillChildrenSiblingsIDEv
_ZN9FormField23createWidgetAnnotationsEv
_ZN9FormField24updateChildrenAppearanceEv
_ZN9FormField5printEi
_ZN9FormField9printTreeEi
_ZN9FormFieldC1EP6PDFDocO6Object3RefPS_PSt3setIiSt4lessIiESaIiEE13FormFieldType
_ZN9FormFieldC2EP6PDFDocO6Object3RefPS_PSt3setIiSt4lessIiESaIiEE13FormFieldType
_ZN9FormFieldD0Ev
_ZN9FormFieldD1Ev
_ZN9FormFieldD2Ev
_ZN9GDirEntryC1EPKcS1_b
_ZN9GDirEntryC2EPKcS1_b
_ZN9GDirEntryD1Ev
_ZN9GDirEntryD2Ev
_ZN9GooString20prependUnicodeMarkerEv
_ZN9GooString6formatEPKcz
_ZN9GooString7appendfEPKcz
_ZN9GooString7formatvEPKcPc
_ZN9GooString7fromIntEi
_ZN9GooString8appendfvEPKcPc
_ZN9GooString9lowerCaseEv
_ZN9GooString9upperCaseEv
_ZN9ImgWriter11supportCMYKEv
_ZN9ImgWriterD0Ev
_ZN9ImgWriterD1Ev
_ZN9ImgWriterD2Ev
_ZN9JPXStream11getPSFilterEiPKc
_ZN9JPXStream11hasGetCharsEv
_ZN9JPXStream14getImageParamsEPiP20StreamColorSpaceMode
_ZN9JPXStream4initEv
_ZN9JPXStream5closeEv
_ZN9JPXStream5resetEv
_ZN9JPXStream6getPosEv
_ZN9JPXStream7getCharEv
_ZN9JPXStream7getKindEv
_ZN9JPXStream8getCharsEiPh
_ZN9JPXStream8isBinaryEb
_ZN9JPXStream8lookCharEv
_ZN9JPXStreamC1EP6Stream
_ZN9JPXStreamC2EP6Stream
_ZN9JPXStreamD0Ev
_ZN9JPXStreamD1Ev
_ZN9JPXStreamD2Ev
_ZN9LZWStream10clearTableEv
_ZN9LZWStream10getRawCharEv
_ZN9LZWStream11getPSFilterEiPKc
_ZN9LZWStream11getRawCharsEiPi
_ZN9LZWStream11hasGetCharsEv
_ZN9LZWStream15processNextCodeEv
_ZN9LZWStream5resetEv
_ZN9LZWStream7getCharEv
_ZN9LZWStream7getCodeEv
_ZN9LZWStream7getKindEv
_ZN9LZWStream8getCharsEiPh
_ZN9LZWStream8isBinaryEb
_ZN9LZWStream8lookCharEv
_ZN9LZWStreamC1EP6Streamiiiii
_ZN9LZWStreamC2EP6Streamiiiii
_ZN9LZWStreamD0Ev
_ZN9LZWStreamD1Ev
_ZN9LZWStreamD2Ev
_ZN9LinkGoToRC1EP6ObjectS1_
_ZN9LinkGoToRC2EP6ObjectS1_
_ZN9LinkGoToRD0Ev
_ZN9LinkGoToRD1Ev
_ZN9LinkGoToRD2Ev
_ZN9LinkMovieC1EPK6Object
_ZN9LinkMovieC2EPK6Object
_ZN9LinkMovieD0Ev
_ZN9LinkMovieD1Ev
_ZN9LinkMovieD2Ev
_ZN9LinkNamedC1EPK6Object
_ZN9LinkNamedC2EPK6Object
_ZN9LinkNamedD0Ev
_ZN9LinkNamedD1Ev
_ZN9LinkNamedD2Ev
_ZN9LinkSoundC1EPK6Object
_ZN9LinkSoundC2EPK6Object
_ZN9LinkSoundD0Ev
_ZN9LinkSoundD1Ev
_ZN9LinkSoundD2Ev
_ZN9MemStreamD0Ev
_ZN9MemStreamD1Ev
_ZN9OutStreamC1Ev
_ZN9OutStreamC2Ev
_ZN9OutStreamD0Ev
_ZN9OutStreamD1Ev
_ZN9OutStreamD2Ev
_ZN9OutputDev10drawStringEP8GfxStatePK9GooString
_ZN9OutputDev10endProfileB5cxx11Ev
_ZN9OutputDev10updateFontEP8GfxState
_ZN9OutputDev10updateRiseEP8GfxState
_ZN9OutputDev11beginStringEP8GfxStatePK9GooString
_ZN9OutputDev11endStringOpEP8GfxState
_ZN9OutputDev11needNonTextEv
_ZN9OutputDev11processLinkEP9AnnotLink
_ZN9OutputDev11saveTextPosEP8GfxState
_ZN9OutputDev11setSoftMaskEP8GfxStatePKdbP8FunctionP8GfxColor
_ZN9OutputDev11useDrawFormEv
_ZN9OutputDev12cvtDevToUserEddPdS0_
_ZN9OutputDev12cvtUserToDevEddPiS0_
_ZN9OutputDev12endType3CharEP8GfxState
_ZN9OutputDev12incCharCountEi
_ZN9OutputDev12restoreStateEP8GfxState
_ZN9OutputDev12startProfileEv
_ZN9OutputDev12updateRenderEP8GfxState
_ZN9OutputDev13beginStringOpEP8GfxState
_ZN9OutputDev13clearSoftMaskEP8GfxState
_ZN9OutputDev13drawImageMaskEP8GfxStateP6ObjectP6Streamiibbb
_ZN9OutputDev13endActualTextEP8GfxState
_ZN9OutputDev13endTextObjectEP8GfxState
_ZN9OutputDev13needCharCountEv
_ZN9OutputDev13setDefaultCTMEPKd
_ZN9OutputDev13updateLineCapEP8GfxState
_ZN9OutputDev13updateTextMatEP8GfxState
_ZN9OutputDev13updateTextPosEP8GfxState
_ZN9OutputDev14beginType3CharEP8GfxStateddddjPji
_ZN9OutputDev14checkPageSliceEP4PageddibbiiiibPFbPvES2_PFbP5AnnotS2_ES2_
_ZN9OutputDev14restoreTextPosEP8GfxState
_ZN9OutputDev14updateFlatnessEP8GfxState
_ZN9OutputDev14updateLineDashEP8GfxState
_ZN9OutputDev14updateLineJoinEP8GfxState
_ZN9OutputDev14updateTransferEP8GfxState
_ZN9OutputDev14useShadedFillsEi
_ZN9OutputDev15axialShadedFillEP8GfxStateP15GfxAxialShadingdd
_ZN9OutputDev15beginActualTextEP8GfxStatePK9GooString
_ZN9OutputDev15beginTextObjectEP8GfxState
_ZN9OutputDev15drawMaskedImageEP8GfxStateP6ObjectP6StreamiiP16GfxImageColorMapbS5_iibb
_ZN9OutputDev15updateBlendModeEP8GfxState
_ZN9OutputDev15updateCharSpaceEP8GfxState
_ZN9OutputDev15updateFillColorEP8GfxState
_ZN9OutputDev15updateLineWidthEP8GfxState
_ZN9OutputDev15updateTextShiftEP8GfxStated
_ZN9OutputDev15updateWordSpaceEP8GfxState
_ZN9OutputDev16clipToStrokePathEP8GfxState
_ZN9OutputDev16endMarkedContentEP8GfxState
_ZN9OutputDev16radialShadedFillEP8GfxStateP16GfxRadialShadingdd
_ZN9OutputDev16updateMiterLimitEP8GfxState
_ZN9OutputDev16useFillColorStopEv
_ZN9OutputDev17needClipToCropBoxEv
_ZN9OutputDev17tilingPatternFillEP8GfxStateP3GfxP7CatalogP6ObjectPKdiiP4DictS9_S9_iiiidd
_ZN9OutputDev17updateFillOpacityEP8GfxState
_ZN9OutputDev17updateStrokeColorEP8GfxState
_ZN9OutputDev18beginMarkedContentEPKcP4Dict
_ZN9OutputDev18functionShadedFillEP8GfxStateP18GfxFunctionShading
_ZN9OutputDev18getVectorAntialiasEv
_ZN9OutputDev18setVectorAntialiasEb
_ZN9OutputDev18updateAlphaIsShapeEP8GfxState
_ZN9OutputDev18updateHorizScalingEP8GfxState
_ZN9OutputDev18updateStrokeAdjustEP8GfxState
_ZN9OutputDev18updateTextKnockoutEP8GfxState
_ZN9OutputDev19clearPatternOpacityEP8GfxState
_ZN9OutputDev19drawSoftMaskedImageEP8GfxStateP6ObjectP6StreamiiP16GfxImageColorMapbS5_iiS7_b
_ZN9OutputDev19patchMeshShadedFillEP8GfxStateP19GfxPatchMeshShading
_ZN9OutputDev19updateFillColorStopEP8GfxStated
_ZN9OutputDev19updateFillOverprintEP8GfxState
_ZN9OutputDev19updateOverprintModeEP8GfxState
_ZN9OutputDev19updateStrokeOpacityEP8GfxState
_ZN9OutputDev20endTransparencyGroupEP8GfxState
_ZN9OutputDev20updateFillColorSpaceEP8GfxState
_ZN9OutputDev20updatePatternOpacityEP8GfxState
_ZN9OutputDev20useTilingPatternFillEv
_ZN9OutputDev21updateStrokeOverprintEP8GfxState
_ZN9OutputDev22beginTransparencyGroupEP8GfxStatePKdP13GfxColorSpacebbb
_ZN9OutputDev22checkTransparencyGroupEP8GfxStateb
_ZN9OutputDev22paintTransparencyGroupEP8GfxStatePKd
_ZN9OutputDev22updateStrokeColorSpaceEP8GfxState
_ZN9OutputDev24axialShadedSupportExtendEP8GfxStateP15GfxAxialShading
_ZN9OutputDev24setSoftMaskFromImageMaskEP8GfxStateP6ObjectP6StreamiibbPd
_ZN9OutputDev25gouraudTriangleShadedFillEP8GfxStateP25GfxGouraudTriangleShading
_ZN9OutputDev25radialShadedSupportExtendEP8GfxStateP16GfxRadialShading
_ZN9OutputDev26unsetSoftMaskFromImageMaskEP8GfxStatePd
_ZN9OutputDev4clipEP8GfxState
_ZN9OutputDev4dumpEv
_ZN9OutputDev4fillEP8GfxState
_ZN9OutputDev6eoClipEP8GfxState
_ZN9OutputDev6eoFillEP8GfxState
_ZN9OutputDev6opiEndEP8GfxStateP4Dict
_ZN9OutputDev6strokeEP8GfxState
_ZN9OutputDev7endPageEv
_ZN9OutputDev7type3D0EP8GfxStatedd
_ZN9OutputDev7type3D1EP8GfxStatedddddd
_ZN9OutputDev8drawCharEP8GfxStateddddddjiPji
_ZN9OutputDev8drawFormE3Ref
_ZN9OutputDev8opiBeginEP8GfxStateP4Dict
_ZN9OutputDev9drawImageEP8GfxStateP6ObjectP6StreamiiP16GfxImageColorMapbPib
_ZN9OutputDev9endStringEP8GfxState
_ZN9OutputDev9markPointEPKc
_ZN9OutputDev9markPointEPKcP4Dict
_ZN9OutputDev9psXObjectEP6StreamS1_
_ZN9OutputDev9saveStateEP8GfxState
_ZN9OutputDev9startPageEiP8GfxStateP4XRef
_ZN9OutputDev9updateAllEP8GfxState
_ZN9OutputDev9updateCTMEP8GfxStatedddddd
_ZN9OutputDevC1Ev
_ZN9OutputDevC2Ev
_ZN9OutputDevD0Ev
_ZN9OutputDevD1Ev
_ZN9OutputDevD2Ev
_ZN9PNGWriter13setICCProfileEPKcPhi
_ZN9PNGWriter13writePointersEPPhi
_ZN9PNGWriter14setSRGBProfileEv
_ZN9PNGWriter4initEP6_iobufiiii
_ZN9PNGWriter5closeEv
_ZN9PNGWriter8writeRowEPPh
_ZN9PNGWriterC1ENS_6FormatE
_ZN9PNGWriterC2ENS_6FormatE
_ZN9PNGWriterD0Ev
_ZN9PNGWriterD1Ev
_ZN9PNGWriterD2Ev
_ZN9PageAttrs7readBoxEP4DictPKcP12PDFRectangle
_ZN9PageAttrs9clipBoxesEv
_ZN9PageAttrsC1EPS_P4Dict
_ZN9PageAttrsC2EPS_P4Dict
_ZN9PageAttrsD1Ev
_ZN9PageAttrsD2Ev
_ZN9TextBlock10primaryCmpEPS_
_ZN9TextBlock14secondaryDeltaEPS_
_ZN9TextBlock14visitSelectionEP20TextSelectionVisitorP12PDFRectangle14SelectionStyle
_ZN9TextBlock15cmpXYPrimaryRotEPKvS1_
_ZN9TextBlock15cmpYXPrimaryRotEPKvS1_
_ZN9TextBlock15isBeforeByRule1EPS_
_ZN9TextBlock15isBeforeByRule2EPS_
_ZN9TextBlock15updatePriMinMaxEPS_
_ZN9TextBlock15visitDepthFirstEPS_iPS0_iPb
_ZN9TextBlock15visitDepthFirstEPS_iPS0_iPbS1_i
_ZN9TextBlock7addWordEP8TextWord
_ZN9TextBlock7isBelowEPS_
_ZN9TextBlock8coalesceEP10UnicodeMapd
_ZN9TextBlockC1EP8TextPagei
_ZN9TextBlockC2EP8TextPagei
_ZN9TextBlockD1Ev
_ZN9TextBlockD2Ev
_ZN9__gnu_cxx6__stoaIlicJiEEET0_PFT_PKT1_PPS3_DpT2_EPKcS5_PyS9_
_ZNK10AnnotColor13writeToObjectEP4XRef
_ZNK10FoFiType1C10eexecWriteEP14Type1CEexecBufPKc
_ZNK10FoFiType1C11getEncodingEv
_ZNK10FoFiType1C11getIndexValEPK11Type1CIndexiP14Type1CIndexValPb
_ZNK10FoFiType1C12getGlyphNameEi
_ZNK10FoFiType1C13getFontMatrixEPd
_ZNK10FoFiType1C13writePSStringEPKcPFvPvS1_iES2_
_ZNK10FoFiType1C14getCIDToGIDMapEPi
_ZNK10FoFiType1C15getDeltaFPArrayEPdi
_ZNK10FoFiType1C16getDeltaIntArrayEPii
_ZNK10FoFiType1C20eexecWriteCharstringEP14Type1CEexecBufPKhi
_ZNK10FoFiType1C6cvtNumEdbP9GooString
_ZNK10FoFiType1C7getNameEv
_ZNK10FoFiType1C8getIndexEiP11Type1CIndexPb
_ZNK10FoFiType1C9getStringEiPcPb
_ZNK10FormWidget10isReadOnlyEv
_ZNK10FormWidget14getMappingNameEv
_ZNK10FormWidget14getPartialNameEv
_ZNK10FormWidget18getAlternateUiNameEv
_ZNK10FormWidget6inRectEdd
_ZNK10FormWidget7getRectEPdS0_S0_S0_
_ZNK10GfxCIDFont11getNextCharEPKciPjPS2_PiPdS5_S5_S5_
_ZNK10GfxCIDFont12getToUnicodeEv
_ZNK10GfxCIDFont13getCollectionEv
_ZNK10GfxCIDFont8getWidthEPci
_ZNK10GfxCIDFont8getWidthEj
_ZNK10GfxCIDFont9isCIDFontEv
_ZNK10LinkAction11nextActionsEv
_ZNK10LinkLaunch4isOkEv
_ZNK10LinkLaunch7getKindEv
_ZNK10UnicodeMap5matchEPK9GooString
_ZNK11AnnotBorder13getDashLengthEv
_ZNK11AnnotBorder7getDashEv
_ZNK11AnnotBorder8getStyleEv
_ZNK11AnnotBorder8getWidthEv
_ZNK11Gfx8BitFont11getNextCharEPKciPjPS2_PiPdS5_S5_S5_
_ZNK11Gfx8BitFont12getToUnicodeEv
_ZNK11LinkUnknown4isOkEv
_ZNK11LinkUnknown7getKindEv
_ZNK12FoFiTrueType10dumpStringEPKhiPFvPvPKciES2_
_ZNK12FoFiTrueType11cvtEncodingEPPcPFvPvPKciES2_
_ZNK12FoFiTrueType11getCFFBlockEPPcPi
_ZNK12FoFiTrueType11getNumCmapsEv
_ZNK12FoFiTrueType12mapCodeToGIDEij
_ZNK12FoFiTrueType12mapNameToGIDEPKc
_ZNK12FoFiTrueType13getFontMatrixEPd
_ZNK12FoFiTrueType14convertToType0EPKcPiiPFvPvS1_iES3_
_ZNK12FoFiTrueType14convertToType0EPKcPiibS2_PFvPvS1_iES3_
_ZNK12FoFiTrueType14convertToType1EPKcPS1_bPFvPvS1_iES3_
_ZNK12FoFiTrueType14cvtCharStringsEPPcPiPFvPvPKciES3_
_ZNK12FoFiTrueType14getCIDToGIDMapEPi
_ZNK12FoFiTrueType15convertToType42EPKcPPcPiPFvPvS1_iES5_
_ZNK12FoFiTrueType15getCmapEncodingEi
_ZNK12FoFiTrueType15getCmapPlatformEi
_ZNK12FoFiTrueType17convertToCIDType0EPKcPiiPFvPvS1_iES3_
_ZNK12FoFiTrueType17convertToCIDType2EPKcPiibPFvPvS1_iES3_
_ZNK12FoFiTrueType18getEmbeddingRightsEv
_ZNK12FoFiTrueType20computeTableChecksumEPKhi
_ZNK12FoFiTrueType8cvtSfntsEPFvPvPKciES0_P9GooStringbPi
_ZNK12FoFiTrueType8findCmapEii
_ZNK12FoFiTrueType9seekTableEPKc
_ZNK12GfxResources10lookupFontEPKc
_ZNK12GfxResources12doLookupFontEPKc
_ZNK12LinkOCGState4isOkEv
_ZNK12LinkOCGState7getKindEv
_ZNK12TextFontInfo10getDescentEv
_ZNK12TextFontInfo7matchesEP8GfxState
_ZNK12TextFontInfo7matchesEPKS_
_ZNK12TextFontInfo8getWModeEv
_ZNK12TextFontInfo9getAscentEv
_ZNK13AnnotBorderBS12getStyleNameEv
_ZNK13AnnotBorderBS13writeToObjectEP4XRef
_ZNK13AnnotBorderBS7getTypeEv
_ZNK13AnnotFreeText20getDefaultAppearanceEv
_ZNK13GfxColorSpace12isNonMarkingEv
_ZNK13GfxColorSpace13useGetRGBLineEv
_ZNK13GfxColorSpace14useGetCMYKLineEv
_ZNK13GfxColorSpace14useGetGrayLineEv
_ZNK13GfxColorSpace17useGetDeviceNLineEv
_ZNK13LinkRendition4isOkEv
_ZNK13LinkRendition7getKindEv
_ZNK13OCDisplayNode14getNumChildrenEv
_ZNK13OCDisplayNode8getChildEi
_ZNK13PageLabelInfo12indexToLabelEiP9GooString
_ZNK13PageLabelInfo12labelToIndexEP9GooStringPi
_ZNK13SignatureInfo11getLocationEv
_ZNK13SignatureInfo18getCertificateInfoEv
_ZNK13SignatureInfo9getReasonEv
_ZNK13StructElement10getPageRefER3Ref
_ZNK13StructElement10hasPageRefEv
_ZNK13StructElement10isGroupingEv
_ZNK13StructElement11getTypeNameEv
_ZNK13StructElement13findAttributeEN9Attribute4TypeEbNS0_5OwnerE
_ZNK13StructElement16getNumAttributesEv
_ZNK13StructElement17appendSubTreeTextEP9GooStringb
_ZNK13StructElement20getTextSpansInternalER22MarkedContentOutputDev
_ZNK13StructElement7isBlockEv
_ZNK13StructElement8isInlineEv
_ZNK14AnnotRichMedia10Activation12getConditionEv
_ZNK14AnnotRichMedia10getContentEv
_ZNK14AnnotRichMedia11getSettingsEv
_ZNK14AnnotRichMedia12Deactivation12getConditionEv
_ZNK14AnnotRichMedia13Configuration11getInstanceEi
_ZNK14AnnotRichMedia13Configuration17getInstancesCountEv
_ZNK14AnnotRichMedia13Configuration7getNameEv
_ZNK14AnnotRichMedia13Configuration7getTypeEv
_ZNK14AnnotRichMedia5Asset11getFileSpecEv
_ZNK14AnnotRichMedia5Asset7getNameEv
_ZNK14AnnotRichMedia6Params12getFlashVarsEv
_ZNK14AnnotRichMedia7Content14getAssetsCountEv
_ZNK14AnnotRichMedia7Content16getConfigurationEi
_ZNK14AnnotRichMedia7Content22getConfigurationsCountEv
_ZNK14AnnotRichMedia7Content8getAssetEi
_ZNK14AnnotRichMedia8Instance7getTypeEv
_ZNK14AnnotRichMedia8Instance9getParamsEv
_ZNK14AnnotRichMedia8Settings13getActivationEv
_ZNK14AnnotRichMedia8Settings15getDeactivationEv
_ZNK14FormWidgetText10getContentEv
_ZNK14FormWidgetText10isPasswordEv
_ZNK14FormWidgetText10isRichTextEv
_ZNK14FormWidgetText11isMultilineEv
_ZNK14FormWidgetText12isFileSelectEv
_ZNK14FormWidgetText12noSpellCheckEv
_ZNK14FormWidgetText6isCombEv
_ZNK14FormWidgetText6parentEv
_ZNK14FormWidgetText8noScrollEv
_ZNK14FormWidgetText9getMaxLenEv
_ZNK14LinkJavaScript4isOkEv
_ZNK14LinkJavaScript7getKindEv
_ZNK14MediaRendition4copyEv
_ZNK15FormFieldButton8getStateEPKc
_ZNK15FormFieldChoice13getEditChoiceEv
_ZNK15FormFieldChoice17getSelectedChoiceEv
_ZNK15SampledFunction21hasDifferentResultSetEPK8Function
_ZNK15SampledFunction4copyEv
_ZNK15SampledFunction4isOkEv
_ZNK15SampledFunction7getTypeEv
_ZNK15SampledFunction9transformEPKdPd
_ZNK16AnnotBorderArray13writeToObjectEP4XRef
_ZNK16AnnotBorderArray7getTypeEv
_ZNK16FormWidgetButton13getButtonTypeEv
_ZNK16FormWidgetButton6parentEv
_ZNK16FormWidgetButton8getOnStrEv
_ZNK16FormWidgetButton8getStateEv
_ZNK16FormWidgetChoice10isSelectedEi
_ZNK16FormWidgetChoice11_checkRangeEi
_ZNK16FormWidgetChoice12noSpellCheckEv
_ZNK16FormWidgetChoice13getEditChoiceEv
_ZNK16FormWidgetChoice13getNumChoicesEv
_ZNK16FormWidgetChoice13isMultiSelectEv
_ZNK16FormWidgetChoice17commitOnSelChangeEv
_ZNK16FormWidgetChoice6parentEv
_ZNK16FormWidgetChoice7hasEditEv
_ZNK16FormWidgetChoice7isComboEv
_ZNK16FormWidgetChoice9getChoiceEi
_ZNK16FormWidgetChoice9isListBoxEv
_ZNK16GfxLabColorSpace10getDeviceNEPK8GfxColorPS0_
_ZNK16GfxLabColorSpace6getRGBEPK8GfxColorP6GfxRGB
_ZNK16GfxLabColorSpace6getXYZEPK8GfxColorPdS3_S3_
_ZNK16GfxLabColorSpace7getCMYKEPK8GfxColorP7GfxCMYK
_ZNK16GfxLabColorSpace7getGrayEPK8GfxColorPi
_ZNK16GfxLabColorSpace9getNCompsEv
_ZNK16IdentityFunction4copyEv
_ZNK16IdentityFunction4isOkEv
_ZNK16IdentityFunction7getTypeEv
_ZNK16IdentityFunction9transformEPKdPd
_ZNK17CharCodeToUnicode13mapToCharCodeEPjS0_i
_ZNK17DefaultAppearance18toAppearanceStringEv
_ZNK17StitchingFunction4copyEv
_ZNK17StitchingFunction4isOkEv
_ZNK17StitchingFunction7getTypeEv
_ZNK17StitchingFunction9transformEPKdPd
_ZNK18GfxFunctionShading8getColorEddP8GfxColor
_ZNK18PostScriptFunction4copyEv
_ZNK18PostScriptFunction4execEP7PSStacki
_ZNK18PostScriptFunction4isOkEv
_ZNK18PostScriptFunction7getTypeEv
_ZNK18PostScriptFunction9transformEPKdPd
_ZNK19AnnotAppearanceBBox11getBBoxRectEPd
_ZNK19AnnotAppearanceBBox11getPageXMaxEv
_ZNK19AnnotAppearanceBBox11getPageXMinEv
_ZNK19AnnotAppearanceBBox11getPageYMaxEv
_ZNK19AnnotAppearanceBBox11getPageYMinEv
_ZNK19ExponentialFunction4copyEv
_ZNK19ExponentialFunction4isOkEv
_ZNK19ExponentialFunction7getTypeEv
_ZNK19ExponentialFunction9transformEPKdPd
_ZNK19FormWidgetSignature12getSignatureEv
_ZNK19GfxCalRGBColorSpace10getDeviceNEPK8GfxColorPS0_
_ZNK19GfxCalRGBColorSpace6getRGBEPK8GfxColorP6GfxRGB
_ZNK19GfxCalRGBColorSpace6getXYZEPK8GfxColorPdS3_S3_
_ZNK19GfxCalRGBColorSpace7getCMYKEPK8GfxColorP7GfxCMYK
_ZNK19GfxCalRGBColorSpace7getGrayEPK8GfxColorPi
_ZNK19GfxCalRGBColorSpace9getNCompsEv
_ZNK19GfxPatchMeshShading21getParameterizedColorEdP8GfxColor
_ZNK19X509CertificateInfo10getVersionEv
_ZNK19X509CertificateInfo11getValidityEv
_ZNK19X509CertificateInfo13getIssuerInfoEv
_ZNK19X509CertificateInfo14getSubjectInfoEv
_ZNK19X509CertificateInfo15getIsSelfSignedEv
_ZNK19X509CertificateInfo15getSerialNumberEv
_ZNK19X509CertificateInfo16getPublicKeyInfoEv
_ZNK19X509CertificateInfo17getCertificateDEREv
_ZNK19X509CertificateInfo21getKeyUsageExtensionsEv
_ZNK20GfxCalGrayColorSpace10getDeviceNEPK8GfxColorPS0_
_ZNK20GfxCalGrayColorSpace6getRGBEPK8GfxColorP6GfxRGB
_ZNK20GfxCalGrayColorSpace6getXYZEPK8GfxColorPdS3_S3_
_ZNK20GfxCalGrayColorSpace7getCMYKEPK8GfxColorP7GfxCMYK
_ZNK20GfxCalGrayColorSpace7getGrayEPK8GfxColorPi
_ZNK20GfxCalGrayColorSpace9getNCompsEv
_ZNK20GfxDeviceNColorSpace10getDeviceNEPK8GfxColorPS0_
_ZNK20GfxDeviceNColorSpace12isNonMarkingEv
_ZNK20GfxDeviceNColorSpace6getRGBEPK8GfxColorP6GfxRGB
_ZNK20GfxDeviceNColorSpace7getCMYKEPK8GfxColorP7GfxCMYK
_ZNK20GfxDeviceNColorSpace7getGrayEPK8GfxColorPi
_ZNK20GfxDeviceNColorSpace9getNCompsEv
_ZNK20GfxIndexedColorSpace10getDeviceNEPK8GfxColorPS0_
_ZNK20GfxIndexedColorSpace13useGetRGBLineEv
_ZNK20GfxIndexedColorSpace14mapColorToBaseEPK8GfxColorPS0_
_ZNK20GfxIndexedColorSpace14useGetCMYKLineEv
_ZNK20GfxIndexedColorSpace17useGetDeviceNLineEv
_ZNK20GfxIndexedColorSpace6getRGBEPK8GfxColorP6GfxRGB
_ZNK20GfxIndexedColorSpace7getCMYKEPK8GfxColorP7GfxCMYK
_ZNK20GfxIndexedColorSpace7getGrayEPK8GfxColorPi
_ZNK20GfxIndexedColorSpace9getNCompsEv
_ZNK20GfxPatternColorSpace10getDeviceNEPK8GfxColorPS0_
_ZNK20GfxPatternColorSpace6getRGBEPK8GfxColorP6GfxRGB
_ZNK20GfxPatternColorSpace7getCMYKEPK8GfxColorP7GfxCMYK
_ZNK20GfxPatternColorSpace7getGrayEPK8GfxColorPi
_ZNK20GfxPatternColorSpace9getNCompsEv
_ZNK20OptionalContentGroup6getRefEv
_ZNK20OptionalContentGroup7getNameEv
_ZNK21GfxICCBasedColorSpace10getDeviceNEPK8GfxColorPS0_
_ZNK21GfxICCBasedColorSpace13useGetRGBLineEv
_ZNK21GfxICCBasedColorSpace14useGetCMYKLineEv
_ZNK21GfxICCBasedColorSpace17useGetDeviceNLineEv
_ZNK21GfxICCBasedColorSpace6getRGBEPK8GfxColorP6GfxRGB
_ZNK21GfxICCBasedColorSpace7getCMYKEPK8GfxColorP7GfxCMYK
_ZNK21GfxICCBasedColorSpace7getGrayEPK8GfxColorPi
_ZNK21GfxICCBasedColorSpace9getNCompsEv
_ZNK22AnnotAppearanceBuilder6bufferEv
_ZNK22GfxDeviceRGBColorSpace10getDeviceNEPK8GfxColorPS0_
_ZNK22GfxDeviceRGBColorSpace13useGetRGBLineEv
_ZNK22GfxDeviceRGBColorSpace14useGetCMYKLineEv
_ZNK22GfxDeviceRGBColorSpace14useGetGrayLineEv
_ZNK22GfxDeviceRGBColorSpace17useGetDeviceNLineEv
_ZNK22GfxDeviceRGBColorSpace6getRGBEPK8GfxColorP6GfxRGB
_ZNK22GfxDeviceRGBColorSpace7getCMYKEPK8GfxColorP7GfxCMYK
_ZNK22GfxDeviceRGBColorSpace7getGrayEPK8GfxColorPi
_ZNK22GfxDeviceRGBColorSpace9getNCompsEv
_ZNK22MarkedContentOutputDev12getTextSpansEv
_ZNK22MarkedContentOutputDev14needFontChangeEPK7GfxFont
_ZNK23GfxDeviceCMYKColorSpace10getDeviceNEPK8GfxColorPS0_
_ZNK23GfxDeviceCMYKColorSpace13useGetRGBLineEv
_ZNK23GfxDeviceCMYKColorSpace14useGetCMYKLineEv
_ZNK23GfxDeviceCMYKColorSpace17useGetDeviceNLineEv
_ZNK23GfxDeviceCMYKColorSpace6getRGBEPK8GfxColorP6GfxRGB
_ZNK23GfxDeviceCMYKColorSpace7getCMYKEPK8GfxColorP7GfxCMYK
_ZNK23GfxDeviceCMYKColorSpace7getGrayEPK8GfxColorPi
_ZNK23GfxDeviceCMYKColorSpace9getNCompsEv
_ZNK23GfxDeviceGrayColorSpace10getDeviceNEPK8GfxColorPS0_
_ZNK23GfxDeviceGrayColorSpace13useGetRGBLineEv
_ZNK23GfxDeviceGrayColorSpace14useGetCMYKLineEv
_ZNK23GfxDeviceGrayColorSpace14useGetGrayLineEv
_ZNK23GfxDeviceGrayColorSpace17useGetDeviceNLineEv
_ZNK23GfxDeviceGrayColorSpace6getRGBEPK8GfxColorP6GfxRGB
_ZNK23GfxDeviceGrayColorSpace7getCMYKEPK8GfxColorP7GfxCMYK
_ZNK23GfxDeviceGrayColorSpace7getGrayEPK8GfxColorPi
_ZNK23GfxDeviceGrayColorSpace9getNCompsEv
_ZNK23GfxSeparationColorSpace10getDeviceNEPK8GfxColorPS0_
_ZNK23GfxSeparationColorSpace12isNonMarkingEv
_ZNK23GfxSeparationColorSpace6getRGBEPK8GfxColorP6GfxRGB
_ZNK23GfxSeparationColorSpace7getCMYKEPK8GfxColorP7GfxCMYK
_ZNK23GfxSeparationColorSpace7getGrayEPK8GfxColorPi
_ZNK23GfxSeparationColorSpace9getNCompsEv
_ZNK25GfxGouraudTriangleShading21getParameterizedColorEdP8GfxColor
_ZNK4Dict2isEPKc
_ZNK4Dict4copyEP4XRef
_ZNK4Dict6getValEiP3Ref
_ZNK4Dict6hasKeyEPKc
_ZNK4Dict6lookupEPKcP3Refi
_ZNK4Dict6lookupEPKci
_ZNK4Dict8lookupNFEPKc
_ZNK4Dict9lookupIntEPKcS1_Pi
_ZNK4OCGs7hasOCGsEv
_ZNK4XRef10okToChangeEb
_ZNK4XRef12okToAddNotesEb
_ZNK4XRef12okToAssembleEb
_ZNK4XRef12okToFillFormEb
_ZNK4XRef16okToPrintHighResEb
_ZNK4XRef17okToAccessibilityEb
_ZNK4XRef4copyEv
_ZNK4XRef8okToCopyEb
_ZNK4XRef9okToPrintEb
_ZNK5Annot11getRotationEv
_ZNK5Annot6inRectEdd
_ZNK5Annot7getRectEPdS0_S0_S0_
_ZNK5Array3getEiP3Refi
_ZNK5Array3getEii
_ZNK5Array4copyEP4XRef
_ZNK5Array5getNFEi
_ZNK5Array9getStringEiP9GooString
_ZNK5Hints4isOkEv
_ZNK5Links4findEdd
_ZNK5Links6onLinkEdd
_ZNK5Movie4copyEv
_ZNK5Sound4copyEv
_ZNK6Matrix4normEv
_ZNK6Matrix8invertToEPS_
_ZNK6Matrix9transformEddPdS0_
_ZNK6Object11getTypeNameEv
_ZNK6Object4copyEv
_ZNK6Object5fetchEP4XRefi
_ZNK6Object5printEP6_iobuf
_ZNK6Object6getNumEv
_ZNK6PDFDoc5getIDEP9GooStringS1_
_ZNK7GfxFont9isCIDFontEv
_ZNK7GooFile32modificationTimeChangedSinceOpenEv
_ZNK7GooFile4readEPcix
_ZNK7GooFile4sizeEv
_ZNK7LinkURI4isOkEv
_ZNK7LinkURI7getKindEv
_ZNK8FoFiBase11checkRegionEii
_ZNK8FoFiBase5getS8EiPb
_ZNK8FoFiBase5getU8EiPb
_ZNK8FoFiBase8getS16BEEiPb
_ZNK8FoFiBase8getS32BEEiPb
_ZNK8FoFiBase8getU16BEEiPb
_ZNK8FoFiBase8getU32BEEiPb
_ZNK8FoFiBase8getU32LEEiPb
_ZNK8FoFiBase9getUVarBEEiiPb
_ZNK8Function21hasDifferentResultSetEPKS_
_ZNK8GfxState20ReusablePathIterator5isEndEv
_ZNK8LinkGoTo4isOkEv
_ZNK8LinkGoTo7getKindEv
_ZNK8LinkHide4isOkEv
_ZNK8LinkHide7getKindEv
_ZNK9AnnotPath4getXEi
_ZNK9AnnotPath4getYEi
_ZNK9Attribute11getTypeNameEv
_ZNK9Attribute12getOwnerNameEv
_ZNK9FoFiType111getNextLineEPc
_ZNK9FoFiType112writeEncodedEPPKcPFvPvS1_iES3_
_ZNK9GooString10startsWithEPKc
_ZNK9GooString13sanitizedNameEb
_ZNK9GooString8endsWithEPKc
_ZNK9LinkGoToR4isOkEv
_ZNK9LinkGoToR7getKindEv
_ZNK9LinkMovie4isOkEv
_ZNK9LinkMovie7getKindEv
_ZNK9LinkNamed4isOkEv
_ZNK9LinkNamed7getKindEv
_ZNK9LinkSound4isOkEv
_ZNK9LinkSound7getKindEv
_ZNKSt10_HashtableINSt7__cxx1112basic_stringIcSt11char_traitsIcESaIcEEES5_SaIS5_ENSt8__detail9_IdentityESt8equal_toIS5_ESt4hashIS5_ENS7_18_Mod_range_hashingENS7_20_Default_ranged_hashENS7_20_Prime_rehash_policyENS7_17_Hashtable_traitsILb1ELb1ELb1EEEE19_M_find_before_nodeEyRKS5_y
_ZNKSt10_HashtableINSt7__cxx1112basic_stringIcSt11char_traitsIcESaIcEEESt4pairIKS5_10UnicodeMapESaIS9_ENSt8__detail10_Select1stESt8equal_toIS5_ESt4hashIS5_ENSB_18_Mod_range_hashingENSB_20_Default_ranged_hashENSB_20_Prime_rehash_policyENSB_17_Hashtable_traitsILb1ELb0ELb1EEEE19_M_find_before_nodeEyRS7_y
_ZNKSt10_HashtableINSt7__cxx1112basic_stringIcSt11char_traitsIcESaIcEEESt4pairIKS5_S5_ESaIS8_ENSt8__detail10_Select1stESt8equal_toIS5_ESt4hashIS5_ENSA_18_Mod_range_hashingENSA_20_Default_ranged_hashENSA_20_Prime_rehash_policyENSA_17_Hashtable_traitsILb1ELb0ELb0EEEE19_M_find_before_nodeEyRS7_y
_ZNKSt10_HashtableINSt7__cxx1112basic_stringIcSt11char_traitsIcESaIcEEESt4pairIKS5_S5_ESaIS8_ENSt8__detail10_Select1stESt8equal_toIS5_ESt4hashIS5_ENSA_18_Mod_range_hashingENSA_20_Default_ranged_hashENSA_20_Prime_rehash_policyENSA_17_Hashtable_traitsILb1ELb0ELb1EEEE19_M_find_before_nodeEyRS7_y
_ZNKSt10_HashtableINSt7__cxx1112basic_stringIcSt11char_traitsIcESaIcEEESt4pairIKS5_S5_ESaIS8_ENSt8__detail10_Select1stESt8equal_toIS5_ESt4hashIS5_ENSA_18_Mod_range_hashingENSA_20_Default_ranged_hashENSA_20_Prime_rehash_policyENSA_17_Hashtable_traitsILb1ELb0ELb1EEEE5countERS7_
_ZNKSt10_HashtableINSt7__cxx1112basic_stringIcSt11char_traitsIcESaIcEEESt4pairIKS5_iESaIS8_ENSt8__detail10_Select1stESt8equal_toIS5_ESt4hashIS5_ENSA_18_Mod_range_hashingENSA_20_Default_ranged_hashENSA_20_Prime_rehash_policyENSA_17_Hashtable_traitsILb1ELb0ELb1EEEE19_M_find_before_nodeEyRS7_y
_ZNKSt23__codecvt_abstract_baseIwciE2inERiPKcS3_RS3_PwS5_RS5_
_ZNKSt5ctypeIcE8do_widenEc
_ZNKSt5ctypeIcE9do_narrowEcc
_ZNKSt7__cxx1112regex_traitsIcE16lookup_classnameIPKcEENS1_10_RegexMaskET_S6_b
_ZNKSt7__cxx1112regex_traitsIcE17transform_primaryIPKcEENS_12basic_stringIcSt11char_traitsIcESaIcEEET_SA_
_ZNKSt7__cxx1112regex_traitsIcE18lookup_collatenameIPKcEENS_12basic_stringIcSt11char_traitsIcESaIcEEET_SA_
_ZNKSt7__cxx1112regex_traitsIcE5valueEci
_ZNKSt7__cxx1112regex_traitsIcE7isctypeEcNS1_10_RegexMaskE
_ZNSt10_HashtableI3RefSt4pairIKS0_St10unique_ptrI20OptionalContentGroupSt14default_deleteIS4_EEESaIS8_ENSt8__detail10_Select1stESt8equal_toIS0_ESt4hashIS0_ENSA_18_Mod_range_hashingENSA_20_Default_ranged_hashENSA_20_Prime_rehash_policyENSA_17_Hashtable_traitsILb0ELb0ELb1EEEE10_M_emplaceIJS0_S7_EEES1_INSA_14_Node_iteratorIS8_Lb0ELb0EEEbESt17integral_constantIbLb1EEDpOT_
_ZNSt10_HashtableI3RefSt4pairIKS0_St10unique_ptrI20OptionalContentGroupSt14default_deleteIS4_EEESaIS8_ENSt8__detail10_Select1stESt8equal_toIS0_ESt4hashIS0_ENSA_18_Mod_range_hashingENSA_20_Default_ranged_hashENSA_20_Prime_rehash_policyENSA_17_Hashtable_traitsILb0ELb0ELb1EEEE4findERS2_
_ZNSt10_HashtableINSt7__cxx1112basic_stringIcSt11char_traitsIcESaIcEEES5_SaIS5_ENSt8__detail9_IdentityESt8equal_toIS5_ESt4hashIS5_ENS7_18_Mod_range_hashingENS7_20_Default_ranged_hashENS7_20_Prime_rehash_policyENS7_17_Hashtable_traitsILb1ELb1ELb1EEEE10_M_emplaceIJRKS5_EEESt4pairINS7_14_Node_iteratorIS5_Lb1ELb1EEEbESt17integral_constantIbLb1EEDpOT_
_ZNSt10_HashtableINSt7__cxx1112basic_stringIcSt11char_traitsIcESaIcEEES5_SaIS5_ENSt8__detail9_IdentityESt8equal_toIS5_ESt4hashIS5_ENS7_18_Mod_range_hashingENS7_20_Default_ranged_hashENS7_20_Prime_rehash_policyENS7_17_Hashtable_traitsILb1ELb1ELb1EEEE21_M_insert_unique_nodeEyyPNS7_10_Hash_nodeIS5_Lb1EEE
_ZNSt10_HashtableINSt7__cxx1112basic_stringIcSt11char_traitsIcESaIcEEESt4pairIKS5_10UnicodeMapESaIS9_ENSt8__detail10_Select1stESt8equal_toIS5_ESt4hashIS5_ENSB_18_Mod_range_hashingENSB_20_Default_ranged_hashENSB_20_Prime_rehash_policyENSB_17_Hashtable_traitsILb1ELb0ELb1EEEE10_M_emplaceIJRS7_S8_EEES6_INSB_14_Node_iteratorIS9_Lb0ELb1EEEbESt17integral_constantIbLb1EEDpOT_
_ZNSt10_HashtableINSt7__cxx1112basic_stringIcSt11char_traitsIcESaIcEEESt4pairIKS5_10UnicodeMapESaIS9_ENSt8__detail10_Select1stESt8equal_toIS5_ESt4hashIS5_ENSB_18_Mod_range_hashingENSB_20_Default_ranged_hashENSB_20_Prime_rehash_policyENSB_17_Hashtable_traitsILb1ELb0ELb1EEEE13_M_rehash_auxEySt17integral_constantIbLb1EE
_ZNSt10_HashtableINSt7__cxx1112basic_stringIcSt11char_traitsIcESaIcEEESt4pairIKS5_11ProfileDataESaIS9_ENSt8__detail10_Select1stESt8equal_toIS5_ESt4hashIS5_ENSB_18_Mod_range_hashingENSB_20_Default_ranged_hashENSB_20_Prime_rehash_policyENSB_17_Hashtable_traitsILb1ELb0ELb1EEEED1Ev
_ZNSt10_HashtableINSt7__cxx1112basic_stringIcSt11char_traitsIcESaIcEEESt4pairIKS5_S5_ESaIS8_ENSt8__detail10_Select1stESt8equal_toIS5_ESt4hashIS5_ENSA_18_Mod_range_hashingENSA_20_Default_ranged_hashENSA_20_Prime_rehash_policyENSA_17_Hashtable_traitsILb1ELb0ELb0EEEE11equal_rangeERS7_
_ZNSt10_HashtableINSt7__cxx1112basic_stringIcSt11char_traitsIcESaIcEEESt4pairIKS5_S5_ESaIS8_ENSt8__detail10_Select1stESt8equal_toIS5_ESt4hashIS5_ENSA_18_Mod_range_hashingENSA_20_Default_ranged_hashENSA_20_Prime_rehash_policyENSA_17_Hashtable_traitsILb1ELb0ELb0EEEE13_M_rehash_auxEySt17integral_constantIbLb0EE
_ZNSt10_HashtableINSt7__cxx1112basic_stringIcSt11char_traitsIcESaIcEEESt4pairIKS5_S5_ESaIS8_ENSt8__detail10_Select1stESt8equal_toIS5_ESt4hashIS5_ENSA_18_Mod_range_hashingENSA_20_Default_ranged_hashENSA_20_Prime_rehash_policyENSA_17_Hashtable_traitsILb1ELb0ELb0EEEE20_M_insert_multi_nodeEPNSA_10_Hash_nodeIS8_Lb1EEEySO_
_ZNSt10_HashtableINSt7__cxx1112basic_stringIcSt11char_traitsIcESaIcEEESt4pairIKS5_S5_ESaIS8_ENSt8__detail10_Select1stESt8equal_toIS5_ESt4hashIS5_ENSA_18_Mod_range_hashingENSA_20_Default_ranged_hashENSA_20_Prime_rehash_policyENSA_17_Hashtable_traitsILb1ELb0ELb1EEEE10_M_emplaceIJPKcSO_EEES6_INSA_14_Node_iteratorIS8_Lb0ELb1EEEbESt17integral_constantIbLb1EEDpOT_
_ZNSt10_HashtableINSt7__cxx1112basic_stringIcSt11char_traitsIcESaIcEEESt4pairIKS5_S5_ESaIS8_ENSt8__detail10_Select1stESt8equal_toIS5_ESt4hashIS5_ENSA_18_Mod_range_hashingENSA_20_Default_ranged_hashENSA_20_Prime_rehash_policyENSA_17_Hashtable_traitsILb1ELb0ELb1EEEE21_M_insert_unique_nodeEyyPNSA_10_Hash_nodeIS8_Lb1EEE
_ZNSt10_HashtableINSt7__cxx1112basic_stringIcSt11char_traitsIcESaIcEEESt4pairIKS5_S5_ESaIS8_ENSt8__detail10_Select1stESt8equal_toIS5_ESt4hashIS5_ENSA_18_Mod_range_hashingENSA_20_Default_ranged_hashENSA_20_Prime_rehash_policyENSA_17_Hashtable_traitsILb1ELb0ELb1EEEE4findERS7_
_ZNSt10_HashtableINSt7__cxx1112basic_stringIcSt11char_traitsIcESaIcEEESt4pairIKS5_S5_ESaIS8_ENSt8__detail10_Select1stESt8equal_toIS5_ESt4hashIS5_ENSA_18_Mod_range_hashingENSA_20_Default_ranged_hashENSA_20_Prime_rehash_policyENSA_17_Hashtable_traitsILb1ELb0ELb1EEEED1Ev
_ZNSt10_HashtableINSt7__cxx1112basic_stringIcSt11char_traitsIcESaIcEEESt4pairIKS5_iESaIS8_ENSt8__detail10_Select1stESt8equal_toIS5_ESt4hashIS5_ENSA_18_Mod_range_hashingENSA_20_Default_ranged_hashENSA_20_Prime_rehash_policyENSA_17_Hashtable_traitsILb1ELb0ELb1EEEE13_M_rehash_auxEySt17integral_constantIbLb1EE
_ZNSt10_HashtableINSt7__cxx1112basic_stringIcSt11char_traitsIcESaIcEEESt4pairIKS5_iESaIS8_ENSt8__detail10_Select1stESt8equal_toIS5_ESt4hashIS5_ENSA_18_Mod_range_hashingENSA_20_Default_ranged_hashENSA_20_Prime_rehash_policyENSA_17_Hashtable_traitsILb1ELb0ELb1EEEE21_M_insert_unique_nodeEyyPNSA_10_Hash_nodeIS8_Lb1EEE
_ZNSt10_HashtableINSt7__cxx1112basic_stringIcSt11char_traitsIcESaIcEEESt4pairIKS5_iESaIS8_ENSt8__detail10_Select1stESt8equal_toIS5_ESt4hashIS5_ENSA_18_Mod_range_hashingENSA_20_Default_ranged_hashENSA_20_Prime_rehash_policyENSA_17_Hashtable_traitsILb1ELb0ELb1EEEE5clearEv
_ZNSt10_HashtableIiiSaIiENSt8__detail9_IdentityESt8equal_toIiESt4hashIiENS1_18_Mod_range_hashingENS1_20_Default_ranged_hashENS1_20_Prime_rehash_policyENS1_17_Hashtable_traitsILb0ELb1ELb1EEEE21_M_insert_unique_nodeEyyPNS1_10_Hash_nodeIiLb0EEE
_ZNSt10_HashtableIiiSaIiENSt8__detail9_IdentityESt8equal_toIiESt4hashIiENS1_18_Mod_range_hashingENS1_20_Default_ranged_hashENS1_20_Prime_rehash_policyENS1_17_Hashtable_traitsILb0ELb1ELb1EEEED1Ev
_ZNSt11_Deque_baseIlSaIlEE17_M_initialize_mapEy
_ZNSt11_Deque_baseIlSaIlEED2Ev
_ZNSt11unique_lockISt15recursive_mutexE6unlockEv
_ZNSt13codecvt_utf16IwLm1114111ELSt12codecvt_mode0EED0Ev
_ZNSt13codecvt_utf16IwLm1114111ELSt12codecvt_mode0EED1Ev
_ZNSt14_Function_base13_Base_managerINSt8__detail11_AnyMatcherINSt7__cxx1112regex_traitsIcEELb0ELb0ELb0EEEE10_M_managerERSt9_Any_dataRKS8_St18_Manager_operation
_ZNSt14_Function_base13_Base_managerINSt8__detail11_AnyMatcherINSt7__cxx1112regex_traitsIcEELb0ELb0ELb1EEEE10_M_managerERSt9_Any_dataRKS8_St18_Manager_operation
_ZNSt14_Function_base13_Base_managerINSt8__detail11_AnyMatcherINSt7__cxx1112regex_traitsIcEELb0ELb1ELb0EEEE10_M_managerERSt9_Any_dataRKS8_St18_Manager_operation
_ZNSt14_Function_base13_Base_managerINSt8__detail11_AnyMatcherINSt7__cxx1112regex_traitsIcEELb0ELb1ELb1EEEE10_M_managerERSt9_Any_dataRKS8_St18_Manager_operation
_ZNSt14_Function_base13_Base_managerINSt8__detail11_AnyMatcherINSt7__cxx1112regex_traitsIcEELb1ELb0ELb0EEEE10_M_managerERSt9_Any_dataRKS8_St18_Manager_operation
_ZNSt14_Function_base13_Base_managerINSt8__detail11_AnyMatcherINSt7__cxx1112regex_traitsIcEELb1ELb0ELb1EEEE10_M_managerERSt9_Any_dataRKS8_St18_Manager_operation
_ZNSt14_Function_base13_Base_managerINSt8__detail11_AnyMatcherINSt7__cxx1112regex_traitsIcEELb1ELb1ELb0EEEE10_M_managerERSt9_Any_dataRKS8_St18_Manager_operation
_ZNSt14_Function_base13_Base_managerINSt8__detail11_AnyMatcherINSt7__cxx1112regex_traitsIcEELb1ELb1ELb1EEEE10_M_managerERSt9_Any_dataRKS8_St18_Manager_operation
_ZNSt14_Function_base13_Base_managerINSt8__detail12_CharMatcherINSt7__cxx1112regex_traitsIcEELb0ELb0EEEE10_M_managerERSt9_Any_dataRKS8_St18_Manager_operation
_ZNSt14_Function_base13_Base_managerINSt8__detail12_CharMatcherINSt7__cxx1112regex_traitsIcEELb0ELb1EEEE10_M_managerERSt9_Any_dataRKS8_St18_Manager_operation
_ZNSt14_Function_base13_Base_managerINSt8__detail12_CharMatcherINSt7__cxx1112regex_traitsIcEELb1ELb0EEEE10_M_managerERSt9_Any_dataRKS8_St18_Manager_operation
_ZNSt14_Function_base13_Base_managerINSt8__detail12_CharMatcherINSt7__cxx1112regex_traitsIcEELb1ELb1EEEE10_M_managerERSt9_Any_dataRKS8_St18_Manager_operation
_ZNSt14_Function_base13_Base_managerINSt8__detail15_BracketMatcherINSt7__cxx1112regex_traitsIcEELb0ELb0EEEE10_M_managerERSt9_Any_dataRKS8_St18_Manager_operation
_ZNSt14_Function_base13_Base_managerINSt8__detail15_BracketMatcherINSt7__cxx1112regex_traitsIcEELb0ELb1EEEE10_M_managerERSt9_Any_dataRKS8_St18_Manager_operation
_ZNSt14_Function_base13_Base_managerINSt8__detail15_BracketMatcherINSt7__cxx1112regex_traitsIcEELb1ELb0EEEE10_M_managerERSt9_Any_dataRKS8_St18_Manager_operation
_ZNSt14_Function_base13_Base_managerINSt8__detail15_BracketMatcherINSt7__cxx1112regex_traitsIcEELb1ELb1EEEE10_M_managerERSt9_Any_dataRKS8_St18_Manager_operation
_ZNSt17_Function_handlerIFbcENSt8__detail11_AnyMatcherINSt7__cxx1112regex_traitsIcEELb0ELb0ELb0EEEE9_M_invokeERKSt9_Any_dataOc
_ZNSt17_Function_handlerIFbcENSt8__detail11_AnyMatcherINSt7__cxx1112regex_traitsIcEELb0ELb0ELb1EEEE9_M_invokeERKSt9_Any_dataOc
_ZNSt17_Function_handlerIFbcENSt8__detail11_AnyMatcherINSt7__cxx1112regex_traitsIcEELb0ELb1ELb0EEEE9_M_invokeERKSt9_Any_dataOc
_ZNSt17_Function_handlerIFbcENSt8__detail11_AnyMatcherINSt7__cxx1112regex_traitsIcEELb0ELb1ELb1EEEE9_M_invokeERKSt9_Any_dataOc
_ZNSt17_Function_handlerIFbcENSt8__detail11_AnyMatcherINSt7__cxx1112regex_traitsIcEELb1ELb0ELb0EEEE9_M_invokeERKSt9_Any_dataOc
_ZNSt17_Function_handlerIFbcENSt8__detail11_AnyMatcherINSt7__cxx1112regex_traitsIcEELb1ELb0ELb1EEEE9_M_invokeERKSt9_Any_dataOc
_ZNSt17_Function_handlerIFbcENSt8__detail11_AnyMatcherINSt7__cxx1112regex_traitsIcEELb1ELb1ELb0EEEE9_M_invokeERKSt9_Any_dataOc
_ZNSt17_Function_handlerIFbcENSt8__detail11_AnyMatcherINSt7__cxx1112regex_traitsIcEELb1ELb1ELb1EEEE9_M_invokeERKSt9_Any_dataOc
_ZNSt17_Function_handlerIFbcENSt8__detail12_CharMatcherINSt7__cxx1112regex_traitsIcEELb0ELb0EEEE9_M_invokeERKSt9_Any_dataOc
_ZNSt17_Function_handlerIFbcENSt8__detail12_CharMatcherINSt7__cxx1112regex_traitsIcEELb0ELb1EEEE9_M_invokeERKSt9_Any_dataOc
_ZNSt17_Function_handlerIFbcENSt8__detail12_CharMatcherINSt7__cxx1112regex_traitsIcEELb1ELb0EEEE9_M_invokeERKSt9_Any_dataOc
_ZNSt17_Function_handlerIFbcENSt8__detail12_CharMatcherINSt7__cxx1112regex_traitsIcEELb1ELb1EEEE9_M_invokeERKSt9_Any_dataOc
_ZNSt17_Function_handlerIFbcENSt8__detail15_BracketMatcherINSt7__cxx1112regex_traitsIcEELb0ELb0EEEE9_M_invokeERKSt9_Any_dataOc
_ZNSt17_Function_handlerIFbcENSt8__detail15_BracketMatcherINSt7__cxx1112regex_traitsIcEELb0ELb1EEEE9_M_invokeERKSt9_Any_dataOc
_ZNSt17_Function_handlerIFbcENSt8__detail15_BracketMatcherINSt7__cxx1112regex_traitsIcEELb1ELb0EEEE9_M_invokeERKSt9_Any_dataOc
_ZNSt17_Function_handlerIFbcENSt8__detail15_BracketMatcherINSt7__cxx1112regex_traitsIcEELb1ELb1EEEE9_M_invokeERKSt9_Any_dataOc
_ZNSt23_Sp_counted_ptr_inplaceINSt8__detail4_NFAINSt7__cxx1112regex_traitsIcEEEESaIS5_ELN9__gnu_cxx12_Lock_policyE2EE10_M_destroyEv
_ZNSt23_Sp_counted_ptr_inplaceINSt8__detail4_NFAINSt7__cxx1112regex_traitsIcEEEESaIS5_ELN9__gnu_cxx12_Lock_policyE2EE10_M_disposeEv
_ZNSt23_Sp_counted_ptr_inplaceINSt8__detail4_NFAINSt7__cxx1112regex_traitsIcEEEESaIS5_ELN9__gnu_cxx12_Lock_policyE2EE14_M_get_deleterERKSt9type_info
_ZNSt23_Sp_counted_ptr_inplaceINSt8__detail4_NFAINSt7__cxx1112regex_traitsIcEEEESaIS5_ELN9__gnu_cxx12_Lock_policyE2EED0Ev
_ZNSt23_Sp_counted_ptr_inplaceINSt8__detail4_NFAINSt7__cxx1112regex_traitsIcEEEESaIS5_ELN9__gnu_cxx12_Lock_policyE2EED1Ev
_ZNSt24uniform_int_distributionItEclISt26linear_congruential_engineIjLj16807ELj0ELj2147483647EEEEtRT_RKNS0_10param_typeE
_ZNSt27__uninitialized_default_n_1ILb1EE18__uninit_default_nIPN10CachedFile5ChunkEyEET_S5_T0_
_ZNSt3_V28__rotateIN9__gnu_cxx17__normal_iteratorIPSt4pairI3RefSt10unique_ptrI21GfxICCBasedColorSpaceSt14default_deleteIS6_EEESt6vectorISA_SaISA_EEEEEET_SG_SG_SG_St26random_access_iterator_tag
_ZNSt3_V28__rotateIN9__gnu_cxx17__normal_iteratorIPSt4pairI3RefSt10unique_ptrI6ObjectSt14default_deleteIS6_EEESt6vectorISA_SaISA_EEEEEET_SG_SG_SG_St26random_access_iterator_tag
_ZNSt3_V28__rotateIN9__gnu_cxx17__normal_iteratorIPSt4pairIxSt10unique_ptrI12ObjectStreamSt14default_deleteIS5_EEESt6vectorIS9_SaIS9_EEEEEET_SF_SF_SF_St26random_access_iterator_tag
_ZNSt3_V28__rotateIPP9TextBlockEET_S4_S4_S4_St26random_access_iterator_tag
_ZNSt5dequeINSt8__detail9_StateSeqINSt7__cxx1112regex_traitsIcEEEESaIS5_EE12emplace_backIJS5_EEEvDpOT_
_ZNSt5dequeINSt8__detail9_StateSeqINSt7__cxx1112regex_traitsIcEEEESaIS5_EE16_M_push_back_auxIJRKS5_EEEvDpOT_
_ZNSt5dequeINSt8__detail9_StateSeqINSt7__cxx1112regex_traitsIcEEEESaIS5_EE17_M_reallocate_mapEyb
_ZNSt5dequeINSt8__detail9_StateSeqINSt7__cxx1112regex_traitsIcEEEESaIS5_EE8pop_backEv
_ZNSt5dequeINSt8__detail9_StateSeqINSt7__cxx1112regex_traitsIcEEEESaIS5_EE9push_backERKS5_
_ZNSt5dequeIlSaIlEE16_M_push_back_auxIJRKlEEEvDpOT_
_ZNSt6vectorI10_ByteRangeSaIS0_EE17_M_realloc_insertIJRKS0_EEEvN9__gnu_cxx17__normal_iteratorIPS0_S2_EEDpOT_
_ZNSt6vectorI3RefSaIS0_EE17_M_realloc_insertIJRKS0_EEEvN9__gnu_cxx17__normal_iteratorIPS0_S2_EEDpOT_
_ZNSt6vectorI3RefSaIS0_EE17_M_realloc_insertIJS0_EEEvN9__gnu_cxx17__normal_iteratorIPS0_S2_EEDpOT_
_ZNSt6vectorI6ObjectSaIS0_EE12emplace_backIJS0_EEEvDpOT_
_ZNSt6vectorI6ObjectSaIS0_EE17_M_realloc_insertIJS0_EEEvN9__gnu_cxx17__normal_iteratorIPS0_S2_EEDpOT_
_ZNSt6vectorI8TextSpanSaIS0_EE17_M_realloc_insertIJS0_EEEvN9__gnu_cxx17__normal_iteratorIPS0_S2_EEDpOT_
_ZNSt6vectorIN10CachedFile5ChunkESaIS1_EE17_M_default_appendEy
_ZNSt6vectorIN13PageLabelInfo8IntervalESaIS1_EE17_M_realloc_insertIJP6ObjectRiEEEvN9__gnu_cxx17__normal_iteratorIPS1_S3_EEDpOT_
_ZNSt6vectorIN14StructTreeRoot6ParentESaIS1_EE17_M_default_appendEy
_ZNSt6vectorINSt7__cxx1112basic_stringIcSt11char_traitsIcESaIcEEESaIS5_EE17_M_realloc_insertIJRKS5_EEEvN9__gnu_cxx17__normal_iteratorIPS5_S7_EEDpOT_
_ZNSt6vectorINSt7__cxx1112regex_traitsIcE10_RegexMaskESaIS3_EE17_M_realloc_insertIJRKS3_EEEvN9__gnu_cxx17__normal_iteratorIPS3_S5_EEDpOT_
_ZNSt6vectorINSt7__cxx119sub_matchIN9__gnu_cxx17__normal_iteratorIPKcNS0_12basic_stringIcSt11char_traitsIcESaIcEEEEEEESaISC_EE17_M_default_appendEy
_ZNSt6vectorINSt7__cxx119sub_matchIN9__gnu_cxx17__normal_iteratorIPKcNS0_12basic_stringIcSt11char_traitsIcESaIcEEEEEEESaISC_EEaSERKSE_
_ZNSt6vectorINSt8__detail6_StateIcEESaIS2_EE17_M_realloc_insertIJS2_EEEvN9__gnu_cxx17__normal_iteratorIPS2_S4_EEDpOT_
_ZNSt6vectorIP10LinkActionSaIS1_EE12emplace_backIJS1_EEEvDpOT_
_ZNSt6vectorIP10LinkActionSaIS1_EE17_M_realloc_insertIJS1_EEEvN9__gnu_cxx17__normal_iteratorIPS1_S3_EEDpOT_
_ZNSt6vectorIP10LinkActionSaIS1_EE7reserveEy
_ZNSt6vectorIP11OutlineItemSaIS1_EE17_M_realloc_insertIJRKS1_EEEvN9__gnu_cxx17__normal_iteratorIPS1_S3_EEDpOT_
_ZNSt6vectorIP11SysFontInfoSaIS1_EE17_M_realloc_insertIJS1_EEEvN9__gnu_cxx17__normal_iteratorIPS1_S3_EEDpOT_
_ZNSt6vectorIP12JBIG2SegmentSaIS1_EE12emplace_backIJS1_EEEvDpOT_
_ZNSt6vectorIP12JBIG2SegmentSaIS1_EE17_M_realloc_insertIJRKS1_EEEvN9__gnu_cxx17__normal_iteratorIPS1_S3_EEDpOT_
_ZNSt6vectorIP12JBIG2SegmentSaIS1_EE17_M_realloc_insertIJS1_EEEvN9__gnu_cxx17__normal_iteratorIPS1_S3_EEDpOT_
_ZNSt6vectorIP12JBIG2SegmentSaIS1_EE8_M_eraseEN9__gnu_cxx17__normal_iteratorIPS1_S3_EE
_ZNSt6vectorIP12PDFRectangleSaIS1_EE17_M_realloc_insertIJRKS1_EEEvN9__gnu_cxx17__normal_iteratorIPS1_S3_EEDpOT_
_ZNSt6vectorIP12TextFontInfoSaIS1_EE17_M_realloc_insertIJRKS1_EEEvN9__gnu_cxx17__normal_iteratorIPS1_S3_EEDpOT_
_ZNSt6vectorIP13OCDisplayNodeSaIS1_EE15_M_range_insertIN9__gnu_cxx17__normal_iteratorIPS1_S3_EEEEvS8_T_S9_St20forward_iterator_tag
_ZNSt6vectorIP13PDFDocBuilderSaIS1_EE12emplace_backIJS1_EEEvDpOT_
_ZNSt6vectorIP13PDFDocBuilderSaIS1_EE17_M_realloc_insertIJS1_EEEvN9__gnu_cxx17__normal_iteratorIPS1_S3_EEDpOT_
_ZNSt6vectorIP13StructElementSaIS1_EE17_M_realloc_insertIJRKS1_EEEvN9__gnu_cxx17__normal_iteratorIPS1_S3_EEDpOT_
_ZNSt6vectorIP13TextUnderlineSaIS1_EE17_M_realloc_insertIJS1_EEEvN9__gnu_cxx17__normal_iteratorIPS1_S3_EEDpOT_
_ZNSt6vectorIP14PSOutPaperSizeSaIS1_EE17_M_realloc_insertIJS1_EEEvN9__gnu_cxx17__normal_iteratorIPS1_S3_EEDpOT_
_ZNSt6vectorIP17TextWordSelectionSaIS1_EE12emplace_backIJS1_EEEvDpOT_
_ZNSt6vectorIP17TextWordSelectionSaIS1_EE17_M_realloc_insertIJS1_EEEvN9__gnu_cxx17__normal_iteratorIPS1_S3_EEDpOT_
_ZNSt6vectorIP19FormWidgetSignatureSaIS1_EE17_M_realloc_insertIJS1_EEEvN9__gnu_cxx17__normal_iteratorIPS1_S3_EEDpOT_
_ZNSt6vectorIP23GfxSeparationColorSpaceSaIS1_EE12emplace_backIJS1_EEEvDpOT_
_ZNSt6vectorIP23GfxSeparationColorSpaceSaIS1_EE17_M_realloc_insertIJS1_EEEvN9__gnu_cxx17__normal_iteratorIPS1_S3_EEDpOT_
_ZNSt6vectorIP3RefSaIS1_EE17_M_realloc_insertIJRKS1_EEEvN9__gnu_cxx17__normal_iteratorIPS1_S3_EEDpOT_
_ZNSt6vectorIP5AnnotSaIS1_EE17_M_realloc_insertIJRKS1_EEEvN9__gnu_cxx17__normal_iteratorIPS1_S3_EEDpOT_
_ZNSt6vectorIP8FontInfoSaIS1_EE17_M_realloc_insertIJS1_EEEvN9__gnu_cxx17__normal_iteratorIPS1_S3_EEDpOT_
_ZNSt6vectorIP8TextLinkSaIS1_EE17_M_realloc_insertIJS1_EEEvN9__gnu_cxx17__normal_iteratorIPS1_S3_EEDpOT_
_ZNSt6vectorIP8TextWordSaIS1_EE17_M_realloc_insertIJRKS1_EEEvN9__gnu_cxx17__normal_iteratorIPS1_S3_EEDpOT_
_ZNSt6vectorIP9AttributeSaIS1_EE17_M_realloc_insertIJRKS1_EEEvN9__gnu_cxx17__normal_iteratorIPS1_S3_EEDpOT_
_ZNSt6vectorIP9GooStringSaIS1_EE12emplace_backIJS1_EEEvDpOT_
_ZNSt6vectorIP9GooStringSaIS1_EE17_M_realloc_insertIJRKS1_EEEvN9__gnu_cxx17__normal_iteratorIPS1_S3_EEDpOT_
_ZNSt6vectorIP9GooStringSaIS1_EE17_M_realloc_insertIJS1_EEEvN9__gnu_cxx17__normal_iteratorIPS1_S3_EEDpOT_
_ZNSt6vectorIP9PageAttrsSaIS1_EE12emplace_backIJS1_EEEvDpOT_
_ZNSt6vectorIP9PageAttrsSaIS1_EE17_M_realloc_insertIJS1_EEEvN9__gnu_cxx17__normal_iteratorIPS1_S3_EEDpOT_
_ZNSt6vectorIPN12LinkOCGState9StateListESaIS2_EE17_M_realloc_insertIJRKS2_EEEvN9__gnu_cxx17__normal_iteratorIPS2_S4_EEDpOT_
_ZNSt6vectorISt4pairI3RefSt10unique_ptrI21GfxICCBasedColorSpaceSt14default_deleteIS3_EEESaIS7_EE17_M_realloc_insertIJRKS1_S6_EEEvN9__gnu_cxx17__normal_iteratorIPS7_S9_EEDpOT_
_ZNSt6vectorISt4pairI3RefSt10unique_ptrI6ObjectSt14default_deleteIS3_EEESaIS7_EE17_M_realloc_insertIJRKS1_S6_EEEvN9__gnu_cxx17__normal_iteratorIPS7_S9_EEDpOT_
_ZNSt6vectorISt4pairINSt7__cxx1112basic_stringIcSt11char_traitsIcESaIcEEE6ObjectESaIS8_EE17_M_realloc_insertIJRPKcS7_EEEvN9__gnu_cxx17__normal_iteratorIPS8_SA_EEDpOT_
_ZNSt6vectorISt4pairINSt7__cxx1112basic_stringIcSt11char_traitsIcESaIcEEES6_ESaIS7_EE12emplace_backIJS7_EEEvDpOT_
_ZNSt6vectorISt4pairINSt7__cxx1112basic_stringIcSt11char_traitsIcESaIcEEES6_ESaIS7_EE17_M_realloc_insertIJS7_EEEvN9__gnu_cxx17__normal_iteratorIPS7_S9_EEDpOT_
_ZNSt6vectorISt4pairISt10unique_ptrI4PageSt14default_deleteIS2_EE3RefESaIS7_EE17_M_realloc_insertIJS5_RKS6_EEEvN9__gnu_cxx17__normal_iteratorIPS7_S9_EEDpOT_
_ZNSt6vectorISt4pairISt10unique_ptrI4PageSt14default_deleteIS2_EE3RefESaIS7_EE17_M_realloc_insertIJS5_S6_EEEvN9__gnu_cxx17__normal_iteratorIPS7_S9_EEDpOT_
_ZNSt6vectorISt4pairIccESaIS1_EE12emplace_backIJS1_EEEvDpOT_
_ZNSt6vectorISt4pairIccESaIS1_EE17_M_realloc_insertIJS1_EEEvN9__gnu_cxx17__normal_iteratorIPS1_S3_EEDpOT_
_ZNSt6vectorISt4pairIiiESaIS1_EE17_M_realloc_insertIJS1_EEEvN9__gnu_cxx17__normal_iteratorIPS1_S3_EEDpOT_
_ZNSt6vectorISt4pairIlS_INSt7__cxx119sub_matchIN9__gnu_cxx17__normal_iteratorIPKcNS1_12basic_stringIcSt11char_traitsIcESaIcEEEEEEESaISD_EEESaISG_EE12emplace_backIJRlRKSF_EEEvDpOT_
_ZNSt6vectorISt4pairIlS_INSt7__cxx119sub_matchIN9__gnu_cxx17__normal_iteratorIPKcNS1_12basic_stringIcSt11char_traitsIcESaIcEEEEEEESaISD_EEESaISG_EE17_M_realloc_insertIJRlRKSF_EEEvNS4_IPSG_SI_EEDpOT_
_ZNSt6vectorISt4pairIxSt10unique_ptrI12ObjectStreamSt14default_deleteIS2_EEESaIS6_EE17_M_realloc_insertIJRKxS5_EEEvN9__gnu_cxx17__normal_iteratorIPS6_S8_EEDpOT_
_ZNSt6vectorIcSaIcEE12emplace_backIJcEEEvDpOT_
_ZNSt6vectorIcSaIcEE8_M_eraseEN9__gnu_cxx17__normal_iteratorIPcS1_EES5_
_ZNSt6vectorIiSaIiEE17_M_realloc_insertIJRKiEEEvN9__gnu_cxx17__normal_iteratorIPiS1_EEDpOT_
_ZNSt6vectorIiSaIiEE17_M_realloc_insertIJiEEEvN9__gnu_cxx17__normal_iteratorIPiS1_EEDpOT_
_ZNSt6vectorIiSaIiEEaSERKS1_
_ZNSt6vectorIxSaIxEE17_M_realloc_insertIJRKxEEEvN9__gnu_cxx17__normal_iteratorIPxS1_EEDpOT_
_ZNSt6vectorIxSaIxEE17_M_realloc_insertIJxEEEvN9__gnu_cxx17__normal_iteratorIPxS1_EEDpOT_
_ZNSt6vectorIySaIyEE17_M_realloc_insertIJRKyEEEvN9__gnu_cxx17__normal_iteratorIPyS1_EEDpOT_
_ZNSt8_Rb_treeI3RefSt4pairIKS0_PN14StructTreeRoot6ParentEESt10_Select1stIS6_ESt4lessIS0_ESaIS6_EE11equal_rangeERS2_
_ZNSt8_Rb_treeI3RefSt4pairIKS0_PN14StructTreeRoot6ParentEESt10_Select1stIS6_ESt4lessIS0_ESaIS6_EE15_M_insert_equalIS1_IS0_S5_EEESt17_Rb_tree_iteratorIS6_EOT_
_ZNSt8_Rb_treeI3RefSt4pairIKS0_PN14StructTreeRoot6ParentEESt10_Select1stIS6_ESt4lessIS0_ESaIS6_EE8_M_eraseEPSt13_Rb_tree_nodeIS6_E
_ZNSt8_Rb_treeIP4DictS1_St9_IdentityIS1_ESt4lessIS1_ESaIS1_EE16_M_insert_uniqueIRKS1_EESt4pairISt17_Rb_tree_iteratorIS1_EbEOT_
_ZNSt8_Rb_treeIP4DictS1_St9_IdentityIS1_ESt4lessIS1_ESaIS1_EE8_M_eraseEPSt13_Rb_tree_nodeIS1_E
_ZNSt8_Rb_treeIiSt4pairIKiSt6vectorIN14StructTreeRoot6ParentESaIS4_EEESt10_Select1stIS7_ESt4lessIiESaIS7_EE24_M_get_insert_unique_posERS1_
_ZNSt8_Rb_treeIiSt4pairIKiSt6vectorIN14StructTreeRoot6ParentESaIS4_EEESt10_Select1stIS7_ESt4lessIiESaIS7_EE8_M_eraseEPSt13_Rb_tree_nodeIS7_E
_ZNSt8_Rb_treeIiSt4pairIKiiESt10_Select1stIS2_ESt4lessIiESaIS2_EE24_M_get_insert_unique_posERS1_
_ZNSt8_Rb_treeIiSt4pairIKiiESt10_Select1stIS2_ESt4lessIiESaIS2_EE8_M_eraseEPSt13_Rb_tree_nodeIS2_E
_ZNSt8_Rb_treeIiiSt9_IdentityIiESt4lessIiESaIiEE12_M_erase_auxESt23_Rb_tree_const_iteratorIiE
_ZNSt8_Rb_treeIiiSt9_IdentityIiESt4lessIiESaIiEE16_M_insert_uniqueIRKiEESt4pairISt17_Rb_tree_iteratorIiEbEOT_
_ZNSt8_Rb_treeIiiSt9_IdentityIiESt4lessIiESaIiEE16_M_insert_uniqueIiEESt4pairISt17_Rb_tree_iteratorIiEbEOT_
_ZNSt8_Rb_treeIiiSt9_IdentityIiESt4lessIiESaIiEE7_M_copyINS5_11_Alloc_nodeEEEPSt13_Rb_tree_nodeIiEPKS9_PSt18_Rb_tree_node_baseRT_
_ZNSt8_Rb_treeIiiSt9_IdentityIiESt4lessIiESaIiEE7_M_copyINS5_20_Reuse_or_alloc_nodeEEEPSt13_Rb_tree_nodeIiEPKS9_PSt18_Rb_tree_node_baseRT_
_ZNSt8_Rb_treeIiiSt9_IdentityIiESt4lessIiESaIiEE8_M_eraseEPSt13_Rb_tree_nodeIiE
_ZNSt8_Rb_treeIiiSt9_IdentityIiESt4lessIiESaIiEEaSERKS5_
_ZNSt8_Rb_treeIjSt4pairIKjjESt10_Select1stIS2_ESt4lessIjESaIS2_EE16_M_insert_uniqueIS0_IjjEEES0_ISt17_Rb_tree_iteratorIS2_EbEOT_
_ZNSt8_Rb_treeIjSt4pairIKjjESt10_Select1stIS2_ESt4lessIjESaIS2_EE8_M_eraseEPSt13_Rb_tree_nodeIS2_E
_ZNSt8_Rb_treeIlSt4pairIKllESt10_Select1stIS2_ESt4lessIlESaIS2_EE24_M_get_insert_unique_posERS1_
_ZNSt8_Rb_treeIlSt4pairIKllESt10_Select1stIS2_ESt4lessIlESaIS2_EE8_M_eraseEPSt13_Rb_tree_nodeIS2_E
_ZNSt8__detail15_BracketMatcherINSt7__cxx1112regex_traitsIcEELb0ELb1EE13_M_make_rangeEcc
_ZNSt8__detail15_BracketMatcherINSt7__cxx1112regex_traitsIcEELb0ELb1EE8_M_readyEv
_ZNSt8__detail15_BracketMatcherINSt7__cxx1112regex_traitsIcEELb1ELb0EE8_M_readyEv
_ZNSt8__detail15_BracketMatcherINSt7__cxx1112regex_traitsIcEELb1ELb1EE13_M_make_rangeEcc
_ZNSt8__detail15_BracketMatcherINSt7__cxx1112regex_traitsIcEELb1ELb1EE8_M_readyEv
_ZNSt8__detail17__regex_algo_implIN9__gnu_cxx17__normal_iteratorIPKcNSt7__cxx1112basic_stringIcSt11char_traitsIcESaIcEEEEESaINS5_9sub_matchISB_EEEcNS5_12regex_traitsIcEELNS_20_RegexExecutorPolicyE0ELb0EEEbT_SI_RNS5_13match_resultsISI_T0_EERKNS5_11basic_regexIT1_T2_EENSt15regex_constants15match_flag_typeE
_ZNSt8__detail4_NFAINSt7__cxx1112regex_traitsIcEEE15_M_insert_dummyEv
_ZNSt8__detail4_NFAINSt7__cxx1112regex_traitsIcEEE15_M_insert_stateENS_6_StateIcEE
_ZNSt8__detail4_NFAINSt7__cxx1112regex_traitsIcEEE16_M_insert_repeatEllb
_ZNSt8__detail4_NFAINSt7__cxx1112regex_traitsIcEEE17_M_insert_matcherESt8functionIFbcEE
_ZNSt8__detail4_NFAINSt7__cxx1112regex_traitsIcEEE18_M_eliminate_dummyEv
_ZNSt8__detail4_NFAINSt7__cxx1112regex_traitsIcEEE21_M_insert_subexpr_endEv
_ZNSt8__detail4_NFAINSt7__cxx1112regex_traitsIcEEE23_M_insert_subexpr_beginEv
_ZNSt8__detail8_ScannerIcE10_M_advanceEv
_ZNSt8__detail8_ScannerIcE12_M_eat_classEc
_ZNSt8__detail8_ScannerIcE14_M_scan_normalEv
_ZNSt8__detail8_ScannerIcE16_M_scan_in_braceEv
_ZNSt8__detail8_ScannerIcE17_M_eat_escape_awkEv
_ZNSt8__detail8_ScannerIcE18_M_eat_escape_ecmaEv
_ZNSt8__detail8_ScannerIcE18_M_scan_in_bracketEv
_ZNSt8__detail8_ScannerIcE19_M_eat_escape_posixEv
_ZNSt8__detail8_ScannerIcEC1EPKcS3_NSt15regex_constants18syntax_option_typeESt6locale
_ZNSt8__detail9_CompilerINSt7__cxx1112regex_traitsIcEEE11_M_try_charEv
_ZNSt8__detail9_CompilerINSt7__cxx1112regex_traitsIcEEE12_M_assertionEv
_ZNSt8__detail9_CompilerINSt7__cxx1112regex_traitsIcEEE13_M_quantifierEv
_ZNSt8__detail9_CompilerINSt7__cxx1112regex_traitsIcEEE14_M_alternativeEv
_ZNSt8__detail9_CompilerINSt7__cxx1112regex_traitsIcEEE14_M_disjunctionEv
_ZNSt8__detail9_CompilerINSt7__cxx1112regex_traitsIcEEE16_M_cur_int_valueEi
_ZNSt8__detail9_CompilerINSt7__cxx1112regex_traitsIcEEE18_M_expression_termILb0ELb0EEEbRSt4pairIbcERNS_15_BracketMatcherIS3_XT_EXT0_EEE
_ZNSt8__detail9_CompilerINSt7__cxx1112regex_traitsIcEEE18_M_expression_termILb0ELb1EEEbRSt4pairIbcERNS_15_BracketMatcherIS3_XT_EXT0_EEE
_ZNSt8__detail9_CompilerINSt7__cxx1112regex_traitsIcEEE18_M_expression_termILb1ELb0EEEbRSt4pairIbcERNS_15_BracketMatcherIS3_XT_EXT0_EEE
_ZNSt8__detail9_CompilerINSt7__cxx1112regex_traitsIcEEE18_M_expression_termILb1ELb1EEEbRSt4pairIbcERNS_15_BracketMatcherIS3_XT_EXT0_EEE
_ZNSt8__detail9_CompilerINSt7__cxx1112regex_traitsIcEEE21_M_bracket_expressionEv
_ZNSt8__detail9_CompilerINSt7__cxx1112regex_traitsIcEEE22_M_insert_char_matcherILb1ELb0EEEvv
_ZNSt8__detail9_CompilerINSt7__cxx1112regex_traitsIcEEE22_M_insert_char_matcherILb1ELb1EEEvv
_ZNSt8__detail9_CompilerINSt7__cxx1112regex_traitsIcEEE25_M_insert_bracket_matcherILb0ELb0EEEvb
_ZNSt8__detail9_CompilerINSt7__cxx1112regex_traitsIcEEE25_M_insert_bracket_matcherILb0ELb1EEEvb
_ZNSt8__detail9_CompilerINSt7__cxx1112regex_traitsIcEEE25_M_insert_bracket_matcherILb1ELb0EEEvb
_ZNSt8__detail9_CompilerINSt7__cxx1112regex_traitsIcEEE25_M_insert_bracket_matcherILb1ELb1EEEvb
_ZNSt8__detail9_CompilerINSt7__cxx1112regex_traitsIcEEE33_M_insert_character_class_matcherILb0ELb0EEEvv
_ZNSt8__detail9_CompilerINSt7__cxx1112regex_traitsIcEEE33_M_insert_character_class_matcherILb0ELb1EEEvv
_ZNSt8__detail9_CompilerINSt7__cxx1112regex_traitsIcEEE33_M_insert_character_class_matcherILb1ELb0EEEvv
_ZNSt8__detail9_CompilerINSt7__cxx1112regex_traitsIcEEE33_M_insert_character_class_matcherILb1ELb1EEEvv
_ZNSt8__detail9_CompilerINSt7__cxx1112regex_traitsIcEEE7_M_atomEv
_ZNSt8__detail9_CompilerINSt7__cxx1112regex_traitsIcEEEC1EPKcS6_RKSt6localeNSt15regex_constants18syntax_option_typeE
_ZNSt8__detail9_ExecutorIN9__gnu_cxx17__normal_iteratorIPKcNSt7__cxx1112basic_stringIcSt11char_traitsIcESaIcEEEEESaINS5_9sub_matchISB_EEENS5_12regex_traitsIcEELb0EE12_M_lookaheadEl
_ZNSt8__detail9_ExecutorIN9__gnu_cxx17__normal_iteratorIPKcNSt7__cxx1112basic_stringIcSt11char_traitsIcESaIcEEEEESaINS5_9sub_matchISB_EEENS5_12regex_traitsIcEELb0EE16_M_main_dispatchENSH_11_Match_modeESt17integral_constantIbLb0EE
_ZNSt8__detail9_ExecutorIN9__gnu_cxx17__normal_iteratorIPKcNSt7__cxx1112basic_stringIcSt11char_traitsIcESaIcEEEEESaINS5_9sub_matchISB_EEENS5_12regex_traitsIcEELb0EE16_M_rep_once_moreENSH_11_Match_modeEl
_ZNSt8__detail9_ExecutorIN9__gnu_cxx17__normal_iteratorIPKcNSt7__cxx1112basic_stringIcSt11char_traitsIcESaIcEEEEESaINS5_9sub_matchISB_EEENS5_12regex_traitsIcEELb0EE17_M_handle_backrefENSH_11_Match_modeEl
_ZNSt8__detail9_ExecutorIN9__gnu_cxx17__normal_iteratorIPKcNSt7__cxx1112basic_stringIcSt11char_traitsIcESaIcEEEEESaINS5_9sub_matchISB_EEENS5_12regex_traitsIcEELb0EE6_M_dfsENSH_11_Match_modeEl
_ZNSt8__detail9_ExecutorIN9__gnu_cxx17__normal_iteratorIPKcNSt7__cxx1112basic_stringIcSt11char_traitsIcESaIcEEEEESaINS5_9sub_matchISB_EEENS5_12regex_traitsIcEELb1EE12_M_lookaheadEl
_ZNSt8__detail9_ExecutorIN9__gnu_cxx17__normal_iteratorIPKcNSt7__cxx1112basic_stringIcSt11char_traitsIcESaIcEEEEESaINS5_9sub_matchISB_EEENS5_12regex_traitsIcEELb1EE16_M_rep_once_moreENSH_11_Match_modeEl
_ZNSt8__detail9_ExecutorIN9__gnu_cxx17__normal_iteratorIPKcNSt7__cxx1112basic_stringIcSt11char_traitsIcESaIcEEEEESaINS5_9sub_matchISB_EEENS5_12regex_traitsIcEELb1EE17_M_handle_backrefENSH_11_Match_modeEl
_ZNSt8__detail9_ExecutorIN9__gnu_cxx17__normal_iteratorIPKcNSt7__cxx1112basic_stringIcSt11char_traitsIcESaIcEEEEESaINS5_9sub_matchISB_EEENS5_12regex_traitsIcEELb1EE6_M_dfsENSH_11_Match_modeEl
_ZNSt8__detail9_Map_baseINSt7__cxx1112basic_stringIcSt11char_traitsIcESaIcEEESt4pairIKS6_11ProfileDataESaISA_ENS_10_Select1stESt8equal_toIS6_ESt4hashIS6_ENS_18_Mod_range_hashingENS_20_Default_ranged_hashENS_20_Prime_rehash_policyENS_17_Hashtable_traitsILb1ELb0ELb1EEELb1EEixEOS6_
_ZNSt8__detail9_Map_baseINSt7__cxx1112basic_stringIcSt11char_traitsIcESaIcEEESt4pairIKS6_S6_ESaIS9_ENS_10_Select1stESt8equal_toIS6_ESt4hashIS6_ENS_18_Mod_range_hashingENS_20_Default_ranged_hashENS_20_Prime_rehash_policyENS_17_Hashtable_traitsILb1ELb0ELb1EEELb1EEixERS8_
_ZNSt8__detail9_Map_baseINSt7__cxx1112basic_stringIcSt11char_traitsIcESaIcEEESt4pairIKS6_iESaIS9_ENS_10_Select1stESt8equal_toIS6_ESt4hashIS6_ENS_18_Mod_range_hashingENS_20_Default_ranged_hashENS_20_Prime_rehash_policyENS_17_Hashtable_traitsILb1ELb0ELb1EEELb1EEixEOS6_
_ZNSt8__detail9_Map_baseINSt7__cxx1112basic_stringIcSt11char_traitsIcESaIcEEESt4pairIKS6_iESaIS9_ENS_10_Select1stESt8equal_toIS6_ESt4hashIS6_ENS_18_Mod_range_hashingENS_20_Default_ranged_hashENS_20_Prime_rehash_policyENS_17_Hashtable_traitsILb1ELb0ELb1EEELb1EEixERS8_
_ZNSt8__detail9_StateSeqINSt7__cxx1112regex_traitsIcEEE8_M_cloneEv
_ZSt11__make_heapIN9__gnu_cxx17__normal_iteratorIPSt4pairINSt7__cxx1112basic_stringIcSt11char_traitsIcESaIcEEE6ObjectESt6vectorISA_SaISA_EEEENS0_5__ops15_Iter_comp_iterIN4Dict12CmpDictEntryEEEEvT_SL_RT0_
_ZSt13__adjust_heapIN9__gnu_cxx17__normal_iteratorIPSt4pairINSt7__cxx1112basic_stringIcSt11char_traitsIcESaIcEEE6ObjectESt6vectorISA_SaISA_EEEExSA_NS0_5__ops15_Iter_comp_iterIN4Dict12CmpDictEntryEEEEvT_T0_SM_T1_T2_
_ZSt13__adjust_heapIN9__gnu_cxx17__normal_iteratorIPcSt6vectorIcSaIcEEEExcNS0_5__ops15_Iter_less_iterEEvT_T0_SA_T1_T2_
_ZSt13__adjust_heapIP12TrueTypeLocaxS0_N9__gnu_cxx5__ops15_Iter_comp_iterI25cmpTrueTypeLocaIdxFunctorEEEvT_T0_S8_T1_T2_
_ZSt13__adjust_heapIP12TrueTypeLocaxS0_N9__gnu_cxx5__ops15_Iter_comp_iterI28cmpTrueTypeLocaOffsetFunctorEEEvT_T0_S8_T1_T2_
_ZSt13__adjust_heapIP20GfxFontCIDWidthExcepxS0_N9__gnu_cxx5__ops15_Iter_comp_iterI20cmpWidthExcepFunctorEEEvT_T0_S8_T1_T2_
_ZSt13__adjust_heapIP21GfxFontCIDWidthExcepVxS0_N9__gnu_cxx5__ops15_Iter_comp_iterI21cmpWidthExcepVFunctorEEEvT_T0_S8_T1_T2_
_ZSt16__insertion_sortIN9__gnu_cxx17__normal_iteratorIPSt4pairINSt7__cxx1112basic_stringIcSt11char_traitsIcESaIcEEE6ObjectESt6vectorISA_SaISA_EEEENS0_5__ops15_Iter_comp_iterIN4Dict12CmpDictEntryEEEEvT_SL_T0_
_ZSt16__insertion_sortIN9__gnu_cxx17__normal_iteratorIPcSt6vectorIcSaIcEEEENS0_5__ops15_Iter_less_iterEEvT_S9_T0_
_ZSt16__insertion_sortIP12TrueTypeLocaN9__gnu_cxx5__ops15_Iter_comp_iterI25cmpTrueTypeLocaIdxFunctorEEEvT_S7_T0_
_ZSt16__insertion_sortIP20GfxFontCIDWidthExcepN9__gnu_cxx5__ops15_Iter_comp_iterI20cmpWidthExcepFunctorEEEvT_S7_T0_
_ZSt16__introsort_loopIN9__gnu_cxx17__normal_iteratorIPSt4pairINSt7__cxx1112basic_stringIcSt11char_traitsIcESaIcEEE6ObjectESt6vectorISA_SaISA_EEEExNS0_5__ops15_Iter_comp_iterIN4Dict12CmpDictEntryEEEEvT_SL_T0_T1_
_ZSt16__introsort_loopIP12TrueTypeLocaxN9__gnu_cxx5__ops15_Iter_comp_iterI25cmpTrueTypeLocaIdxFunctorEEEvT_S7_T0_T1_
_ZSt16__introsort_loopIP12TrueTypeLocaxN9__gnu_cxx5__ops15_Iter_comp_iterI28cmpTrueTypeLocaOffsetFunctorEEEvT_S7_T0_T1_
_ZSt16__introsort_loopIP20GfxFontCIDWidthExcepxN9__gnu_cxx5__ops15_Iter_comp_iterI20cmpWidthExcepFunctorEEEvT_S7_T0_T1_
_ZSt16__introsort_loopIP21GfxFontCIDWidthExcepVxN9__gnu_cxx5__ops15_Iter_comp_iterI21cmpWidthExcepVFunctorEEEvT_S7_T0_T1_
_ZSt25__unguarded_linear_insertIN9__gnu_cxx17__normal_iteratorIPSt4pairINSt7__cxx1112basic_stringIcSt11char_traitsIcESaIcEEE6ObjectESt6vectorISA_SaISA_EEEENS0_5__ops14_Val_comp_iterIN4Dict12CmpDictEntryEEEEvT_T0_
_ZSt6__sortIP20GfxFontCIDWidthExcepN9__gnu_cxx5__ops15_Iter_comp_iterI20cmpWidthExcepFunctorEEEvT_S7_T0_
_ZSt8__uniqueIN9__gnu_cxx17__normal_iteratorIPcSt6vectorIcSaIcEEEENS0_5__ops19_Iter_equal_to_iterEET_S9_S9_T0_
_ZSt9__find_ifIN9__gnu_cxx17__normal_iteratorIPKNSt7__cxx1112basic_stringIcSt11char_traitsIcESaIcEEESt6vectorIS7_SaIS7_EEEENS0_5__ops16_Iter_equals_valIS8_EEET_SH_SH_T0_St26random_access_iterator_tag
_ZTI10AnnotCaret DATA
_ZTI10AnnotMovie DATA
_ZTI10AnnotPopup DATA
_ZTI10AnnotSound DATA
_ZTI10AnnotStamp DATA
_ZTI10BaseStream DATA
_ZTI10FileStream DATA
_ZTI10FoFiType1C DATA
_ZTI10FormWidget DATA
_ZTI10GfxCIDFont DATA
_ZTI10GfxPattern DATA
_ZTI10GfxShading DATA
_ZTI10JpegWriter DATA
_ZTI10LZWEncoder DATA
_ZTI10LinkAction DATA
_ZTI10LinkLaunch DATA
_ZTI10TiffWriter DATA
_ZTI11AnnotBorder DATA
_ZTI11AnnotMarkup DATA
_ZTI11AnnotScreen DATA
_ZTI11AnnotWidget DATA
_ZTI11EmbedStream DATA
_ZTI11FlateStream DATA
_ZTI11Gfx8BitFont DATA
_ZTI11JBIG2Bitmap DATA
_ZTI11JBIG2Stream DATA
_ZTI11LinkUnknown DATA
_ZTI11PSOutputDev DATA
_ZTI12AnnotPolygon DATA
_ZTI12FilterStream DATA
_ZTI12FlateEncoder DATA
_ZTI12FoFiTrueType DATA
_ZTI12JBIG2Segment DATA
_ZTI12LinkOCGState DATA
_ZTI12NetPBMWriter DATA
_ZTI13ASCII85Stream DATA
_ZTI13AnnotBorderBS DATA
_ZTI13AnnotFreeText DATA
_ZTI13AnnotGeometry DATA
_ZTI13BaseMemStreamIKcE DATA
_ZTI13BaseMemStreamIcE DATA
_ZTI13DecryptStream DATA
_ZTI13EncryptStream DATA
_ZTI13FileOutStream DATA
_ZTI13FormFieldText DATA
_ZTI13GfxColorSpace DATA
_ZTI13LinkRendition DATA
_ZTI13PDFDocBuilder DATA
_ZTI13TextOutputDev DATA
_ZTI14ASCII85Encoder DATA
_ZTI14ASCIIHexStream DATA
_ZTI14AnnotRichMedia DATA
_ZTI14CCITTFaxStream DATA
_ZTI14DeviceNRecoder DATA
_ZTI14FormWidgetText DATA
_ZTI14JBIG2CodeTable DATA
_ZTI14LinkJavaScript DATA
_ZTI14RGBGrayEncoder DATA
_ZTI15ASCIIHexEncoder DATA
_ZTI15AnnotTextMarkup DATA
_ZTI15BaseCryptStream DATA
_ZTI15CMYKGrayEncoder DATA
_ZTI15FormFieldButton DATA
_ZTI15FormFieldChoice DATA
_ZTI15GfxAxialShading DATA
_ZTI15JBIG2SymbolDict DATA
_ZTI15RunLengthStream DATA
_ZTI15SampledFunction DATA
_ZTI15SecurityHandler DATA
_ZTI16AnnotBorderArray DATA
_ZTI16AnnotCalloutLine DATA
_ZTI16BaseStreamStream DATA
_ZTI16CachedFileLoader DATA
_ZTI16CachedFileStream DATA
_ZTI16FormWidgetButton DATA
_ZTI16FormWidgetChoice DATA
_ZTI16GfxLabColorSpace DATA
_ZTI16GfxRadialShading DATA
_ZTI16GfxTilingPattern DATA
_ZTI16IdentityFunction DATA
_ZTI16JBIG2PatternDict DATA
_ZTI16PreScanOutputDev DATA
_ZTI16RunLengthEncoder DATA
_ZTI16StdinCacheLoader DATA
_ZTI17AutoFreeMemStream DATA
_ZTI17GfxShadingPattern DATA
_ZTI17StitchingFunction DATA
_ZTI18FixedLengthEncoder DATA
_ZTI18FormFieldSignature DATA
_ZTI18GfxFunctionShading DATA
_ZTI18LocalPDFDocBuilder DATA
_ZTI18PostScriptFunction DATA
_ZTI18StdinPDFDocBuilder DATA
_ZTI18TextSelectionSizer DATA
_ZTI19AnnotFileAttachment DATA
_ZTI19ExponentialFunction DATA
_ZTI19FormWidgetSignature DATA
_ZTI19GfxCalRGBColorSpace DATA
_ZTI19GfxPatchMeshShading DATA
_ZTI19TextSelectionDumper DATA
_ZTI20GfxCalGrayColorSpace DATA
_ZTI20GfxDeviceNColorSpace DATA
_ZTI20GfxIndexedColorSpace DATA
_ZTI20GfxPatternColorSpace DATA
_ZTI20GfxUnivariateShading DATA
_ZTI20TextSelectionPainter DATA
_ZTI20TextSelectionVisitor DATA
_ZTI21AnnotCalloutMultiLine DATA
_ZTI21GfxICCBasedColorSpace DATA
_ZTI22GfxDeviceRGBColorSpace DATA
_ZTI22MarkedContentOutputDev DATA
_ZTI23GfxDeviceCMYKColorSpace DATA
_ZTI23GfxDeviceGrayColorSpace DATA
_ZTI23GfxSeparationColorSpace DATA
_ZTI23StandardSecurityHandler DATA
_ZTI25GfxGouraudTriangleShading DATA
_ZTI5Annot DATA
_ZTI6Stream DATA
_ZTI7Annot3D DATA
_ZTI7GfxFont DATA
_ZTI7LinkURI DATA
_ZTI8AnnotInk DATA
_ZTI8FoFiBase DATA
_ZTI8Function DATA
_ZTI8LinkGoTo DATA
_ZTI8LinkHide DATA
_ZTI9AnnotLine DATA
_ZTI9AnnotLink DATA
_ZTI9AnnotText DATA
_ZTI9BufStream DATA
_ZTI9DCTStream DATA
_ZTI9EOFStream DATA
_ZTI9FoFiType1 DATA
_ZTI9FormField DATA
_ZTI9ImgWriter DATA
_ZTI9JPXStream DATA
_ZTI9LZWStream DATA
_ZTI9LinkGoToR DATA
_ZTI9LinkMovie DATA
_ZTI9LinkNamed DATA
_ZTI9LinkSound DATA
_ZTI9MemStream DATA
_ZTI9OutStream DATA
_ZTI9OutputDev DATA
_ZTI9PNGWriter DATA
_ZTIN4XRef10XRefWriterE DATA
_ZTIN4XRef15XRefTableWriterE DATA
_ZTIN4XRef16XRefStreamWriterE DATA
_ZTIN4XRef17XRefPreScanWriterE DATA
_ZTINSt6locale5facetE DATA
_ZTINSt8__detail11_AnyMatcherINSt7__cxx1112regex_traitsIcEELb0ELb0ELb0EEE DATA
_ZTINSt8__detail11_AnyMatcherINSt7__cxx1112regex_traitsIcEELb0ELb0ELb1EEE DATA
_ZTINSt8__detail11_AnyMatcherINSt7__cxx1112regex_traitsIcEELb0ELb1ELb0EEE DATA
_ZTINSt8__detail11_AnyMatcherINSt7__cxx1112regex_traitsIcEELb0ELb1ELb1EEE DATA
_ZTINSt8__detail11_AnyMatcherINSt7__cxx1112regex_traitsIcEELb1ELb0ELb0EEE DATA
_ZTINSt8__detail11_AnyMatcherINSt7__cxx1112regex_traitsIcEELb1ELb0ELb1EEE DATA
_ZTINSt8__detail11_AnyMatcherINSt7__cxx1112regex_traitsIcEELb1ELb1ELb0EEE DATA
_ZTINSt8__detail11_AnyMatcherINSt7__cxx1112regex_traitsIcEELb1ELb1ELb1EEE DATA
_ZTINSt8__detail12_CharMatcherINSt7__cxx1112regex_traitsIcEELb0ELb0EEE DATA
_ZTINSt8__detail12_CharMatcherINSt7__cxx1112regex_traitsIcEELb0ELb1EEE DATA
_ZTINSt8__detail12_CharMatcherINSt7__cxx1112regex_traitsIcEELb1ELb0EEE DATA
_ZTINSt8__detail12_CharMatcherINSt7__cxx1112regex_traitsIcEELb1ELb1EEE DATA
_ZTINSt8__detail15_BracketMatcherINSt7__cxx1112regex_traitsIcEELb0ELb0EEE DATA
_ZTINSt8__detail15_BracketMatcherINSt7__cxx1112regex_traitsIcEELb0ELb1EEE DATA
_ZTINSt8__detail15_BracketMatcherINSt7__cxx1112regex_traitsIcEELb1ELb0EEE DATA
_ZTINSt8__detail15_BracketMatcherINSt7__cxx1112regex_traitsIcEELb1ELb1EEE DATA
_ZTISt10ctype_base DATA
_ZTISt11_Mutex_baseILN9__gnu_cxx12_Lock_policyE2EE DATA
_ZTISt12codecvt_base DATA
_ZTISt13codecvt_utf16IwLm1114111ELSt12codecvt_mode0EE DATA
_ZTISt16_Sp_counted_baseILN9__gnu_cxx12_Lock_policyE2EE DATA
_ZTISt19_Sp_make_shared_tag DATA
_ZTISt20__codecvt_utf16_baseIwE DATA
_ZTISt23_Sp_counted_ptr_inplaceINSt8__detail4_NFAINSt7__cxx1112regex_traitsIcEEEESaIS5_ELN9__gnu_cxx12_Lock_policyE2EE DATA
_ZTISt23__codecvt_abstract_baseIwciE DATA
_ZTISt5ctypeIcE DATA
_ZTISt7codecvtIwciE DATA
_ZTS10AnnotCaret DATA
_ZTS10AnnotMovie DATA
_ZTS10AnnotPopup DATA
_ZTS10AnnotSound DATA
_ZTS10AnnotStamp DATA
_ZTS10BaseStream DATA
_ZTS10FileStream DATA
_ZTS10FoFiType1C DATA
_ZTS10FormWidget DATA
_ZTS10GfxCIDFont DATA
_ZTS10GfxPattern DATA
_ZTS10GfxShading DATA
_ZTS10JpegWriter DATA
_ZTS10LZWEncoder DATA
_ZTS10LinkAction DATA
_ZTS10LinkLaunch DATA
_ZTS10TiffWriter DATA
_ZTS11AnnotBorder DATA
_ZTS11AnnotMarkup DATA
_ZTS11AnnotScreen DATA
_ZTS11AnnotWidget DATA
_ZTS11EmbedStream DATA
_ZTS11FlateStream DATA
_ZTS11Gfx8BitFont DATA
_ZTS11JBIG2Bitmap DATA
_ZTS11JBIG2Stream DATA
_ZTS11LinkUnknown DATA
_ZTS11PSOutputDev DATA
_ZTS12AnnotPolygon DATA
_ZTS12FilterStream DATA
_ZTS12FlateEncoder DATA
_ZTS12FoFiTrueType DATA
_ZTS12JBIG2Segment DATA
_ZTS12LinkOCGState DATA
_ZTS12NetPBMWriter DATA
_ZTS13ASCII85Stream DATA
_ZTS13AnnotBorderBS DATA
_ZTS13AnnotFreeText DATA
_ZTS13AnnotGeometry DATA
_ZTS13BaseMemStreamIKcE DATA
_ZTS13BaseMemStreamIcE DATA
_ZTS13DecryptStream DATA
_ZTS13EncryptStream DATA
_ZTS13FileOutStream DATA
_ZTS13FormFieldText DATA
_ZTS13GfxColorSpace DATA
_ZTS13LinkRendition DATA
_ZTS13PDFDocBuilder DATA
_ZTS13TextOutputDev DATA
_ZTS14ASCII85Encoder DATA
_ZTS14ASCIIHexStream DATA
_ZTS14AnnotRichMedia DATA
_ZTS14CCITTFaxStream DATA
_ZTS14DeviceNRecoder DATA
_ZTS14FormWidgetText DATA
_ZTS14JBIG2CodeTable DATA
_ZTS14LinkJavaScript DATA
_ZTS14RGBGrayEncoder DATA
_ZTS15ASCIIHexEncoder DATA
_ZTS15AnnotTextMarkup DATA
_ZTS15BaseCryptStream DATA
_ZTS15CMYKGrayEncoder DATA
_ZTS15FormFieldButton DATA
_ZTS15FormFieldChoice DATA
_ZTS15GfxAxialShading DATA
_ZTS15JBIG2SymbolDict DATA
_ZTS15RunLengthStream DATA
_ZTS15SampledFunction DATA
_ZTS15SecurityHandler DATA
_ZTS16AnnotBorderArray DATA
_ZTS16AnnotCalloutLine DATA
_ZTS16BaseStreamStream DATA
_ZTS16CachedFileLoader DATA
_ZTS16CachedFileStream DATA
_ZTS16FormWidgetButton DATA
_ZTS16FormWidgetChoice DATA
_ZTS16GfxLabColorSpace DATA
_ZTS16GfxRadialShading DATA
_ZTS16GfxTilingPattern DATA
_ZTS16IdentityFunction DATA
_ZTS16JBIG2PatternDict DATA
_ZTS16PreScanOutputDev DATA
_ZTS16RunLengthEncoder DATA
_ZTS16StdinCacheLoader DATA
_ZTS17AutoFreeMemStream DATA
_ZTS17GfxShadingPattern DATA
_ZTS17StitchingFunction DATA
_ZTS18FixedLengthEncoder DATA
_ZTS18FormFieldSignature DATA
_ZTS18GfxFunctionShading DATA
_ZTS18LocalPDFDocBuilder DATA
_ZTS18PostScriptFunction DATA
_ZTS18StdinPDFDocBuilder DATA
_ZTS18TextSelectionSizer DATA
_ZTS19AnnotFileAttachment DATA
_ZTS19ExponentialFunction DATA
_ZTS19FormWidgetSignature DATA
_ZTS19GfxCalRGBColorSpace DATA
_ZTS19GfxPatchMeshShading DATA
_ZTS19TextSelectionDumper DATA
_ZTS20GfxCalGrayColorSpace DATA
_ZTS20GfxDeviceNColorSpace DATA
_ZTS20GfxIndexedColorSpace DATA
_ZTS20GfxPatternColorSpace DATA
_ZTS20GfxUnivariateShading DATA
_ZTS20TextSelectionPainter DATA
_ZTS20TextSelectionVisitor DATA
_ZTS21AnnotCalloutMultiLine DATA
_ZTS21GfxICCBasedColorSpace DATA
_ZTS22GfxDeviceRGBColorSpace DATA
_ZTS22MarkedContentOutputDev DATA
_ZTS23GfxDeviceCMYKColorSpace DATA
_ZTS23GfxDeviceGrayColorSpace DATA
_ZTS23GfxSeparationColorSpace DATA
_ZTS23StandardSecurityHandler DATA
_ZTS25GfxGouraudTriangleShading DATA
_ZTS5Annot DATA
_ZTS6Stream DATA
_ZTS7Annot3D DATA
_ZTS7GfxFont DATA
_ZTS7LinkURI DATA
_ZTS8AnnotInk DATA
_ZTS8FoFiBase DATA
_ZTS8Function DATA
_ZTS8LinkGoTo DATA
_ZTS8LinkHide DATA
_ZTS9AnnotLine DATA
_ZTS9AnnotLink DATA
_ZTS9AnnotText DATA
_ZTS9BufStream DATA
_ZTS9DCTStream DATA
_ZTS9EOFStream DATA
_ZTS9FoFiType1 DATA
_ZTS9FormField DATA
_ZTS9ImgWriter DATA
_ZTS9JPXStream DATA
_ZTS9LZWStream DATA
_ZTS9LinkGoToR DATA
_ZTS9LinkMovie DATA
_ZTS9LinkNamed DATA
_ZTS9LinkSound DATA
_ZTS9MemStream DATA
_ZTS9OutStream DATA
_ZTS9OutputDev DATA
_ZTS9PNGWriter DATA
_ZTSN4XRef10XRefWriterE DATA
_ZTSN4XRef15XRefTableWriterE DATA
_ZTSN4XRef16XRefStreamWriterE DATA
_ZTSN4XRef17XRefPreScanWriterE DATA
_ZTSNSt6locale5facetE DATA
_ZTSNSt8__detail11_AnyMatcherINSt7__cxx1112regex_traitsIcEELb0ELb0ELb0EEE DATA
_ZTSNSt8__detail11_AnyMatcherINSt7__cxx1112regex_traitsIcEELb0ELb0ELb1EEE DATA
_ZTSNSt8__detail11_AnyMatcherINSt7__cxx1112regex_traitsIcEELb0ELb1ELb0EEE DATA
_ZTSNSt8__detail11_AnyMatcherINSt7__cxx1112regex_traitsIcEELb0ELb1ELb1EEE DATA
_ZTSNSt8__detail11_AnyMatcherINSt7__cxx1112regex_traitsIcEELb1ELb0ELb0EEE DATA
_ZTSNSt8__detail11_AnyMatcherINSt7__cxx1112regex_traitsIcEELb1ELb0ELb1EEE DATA
_ZTSNSt8__detail11_AnyMatcherINSt7__cxx1112regex_traitsIcEELb1ELb1ELb0EEE DATA
_ZTSNSt8__detail11_AnyMatcherINSt7__cxx1112regex_traitsIcEELb1ELb1ELb1EEE DATA
_ZTSNSt8__detail12_CharMatcherINSt7__cxx1112regex_traitsIcEELb0ELb0EEE DATA
_ZTSNSt8__detail12_CharMatcherINSt7__cxx1112regex_traitsIcEELb0ELb1EEE DATA
_ZTSNSt8__detail12_CharMatcherINSt7__cxx1112regex_traitsIcEELb1ELb0EEE DATA
_ZTSNSt8__detail12_CharMatcherINSt7__cxx1112regex_traitsIcEELb1ELb1EEE DATA
_ZTSNSt8__detail15_BracketMatcherINSt7__cxx1112regex_traitsIcEELb0ELb0EEE DATA
_ZTSNSt8__detail15_BracketMatcherINSt7__cxx1112regex_traitsIcEELb0ELb1EEE DATA
_ZTSNSt8__detail15_BracketMatcherINSt7__cxx1112regex_traitsIcEELb1ELb0EEE DATA
_ZTSNSt8__detail15_BracketMatcherINSt7__cxx1112regex_traitsIcEELb1ELb1EEE DATA
_ZTSSt10ctype_base DATA
_ZTSSt11_Mutex_baseILN9__gnu_cxx12_Lock_policyE2EE DATA
_ZTSSt12codecvt_base DATA
_ZTSSt13codecvt_utf16IwLm1114111ELSt12codecvt_mode0EE DATA
_ZTSSt16_Sp_counted_baseILN9__gnu_cxx12_Lock_policyE2EE DATA
_ZTSSt19_Sp_make_shared_tag DATA
_ZTSSt20__codecvt_utf16_baseIwE DATA
_ZTSSt23_Sp_counted_ptr_inplaceINSt8__detail4_NFAINSt7__cxx1112regex_traitsIcEEEESaIS5_ELN9__gnu_cxx12_Lock_policyE2EE DATA
_ZTSSt23__codecvt_abstract_baseIwciE DATA
_ZTSSt5ctypeIcE DATA
_ZTSSt7codecvtIwciE DATA
_ZTV10AnnotCaret DATA
_ZTV10AnnotMovie DATA
_ZTV10AnnotPopup DATA
_ZTV10AnnotSound DATA
_ZTV10AnnotStamp DATA
_ZTV10BaseStream DATA
_ZTV10FileStream DATA
_ZTV10FoFiType1C DATA
_ZTV10FormWidget DATA
_ZTV10GfxCIDFont DATA
_ZTV10GfxPattern DATA
_ZTV10GfxShading DATA
_ZTV10JpegWriter DATA
_ZTV10LZWEncoder DATA
_ZTV10LinkAction DATA
_ZTV10LinkLaunch DATA
_ZTV10TiffWriter DATA
_ZTV11AnnotBorder DATA
_ZTV11AnnotMarkup DATA
_ZTV11AnnotScreen DATA
_ZTV11AnnotWidget DATA
_ZTV11EmbedStream DATA
_ZTV11FlateStream DATA
_ZTV11Gfx8BitFont DATA
_ZTV11JBIG2Bitmap DATA
_ZTV11JBIG2Stream DATA
_ZTV11LinkUnknown DATA
_ZTV11PSOutputDev DATA
_ZTV12AnnotPolygon DATA
_ZTV12FilterStream DATA
_ZTV12FlateEncoder DATA
_ZTV12FoFiTrueType DATA
_ZTV12LinkOCGState DATA
_ZTV12NetPBMWriter DATA
_ZTV13ASCII85Stream DATA
_ZTV13AnnotBorderBS DATA
_ZTV13AnnotFreeText DATA
_ZTV13AnnotGeometry DATA
_ZTV13BaseMemStreamIKcE DATA
_ZTV13BaseMemStreamIcE DATA
_ZTV13DecryptStream DATA
_ZTV13EncryptStream DATA
_ZTV13FileOutStream DATA
_ZTV13FormFieldText DATA
_ZTV13GfxColorSpace DATA
_ZTV13LinkRendition DATA
_ZTV13TextOutputDev DATA
_ZTV14ASCII85Encoder DATA
_ZTV14ASCIIHexStream DATA
_ZTV14AnnotRichMedia DATA
_ZTV14CCITTFaxStream DATA
_ZTV14DeviceNRecoder DATA
_ZTV14FormWidgetText DATA
_ZTV14JBIG2CodeTable DATA
_ZTV14LinkJavaScript DATA
_ZTV14RGBGrayEncoder DATA
_ZTV15ASCIIHexEncoder DATA
_ZTV15AnnotTextMarkup DATA
_ZTV15BaseCryptStream DATA
_ZTV15CMYKGrayEncoder DATA
_ZTV15FormFieldButton DATA
_ZTV15FormFieldChoice DATA
_ZTV15GfxAxialShading DATA
_ZTV15JBIG2SymbolDict DATA
_ZTV15RunLengthStream DATA
_ZTV15SampledFunction DATA
_ZTV15SecurityHandler DATA
_ZTV16AnnotBorderArray DATA
_ZTV16AnnotCalloutLine DATA
_ZTV16BaseStreamStream DATA
_ZTV16CachedFileStream DATA
_ZTV16FormWidgetButton DATA
_ZTV16FormWidgetChoice DATA
_ZTV16GfxLabColorSpace DATA
_ZTV16GfxRadialShading DATA
_ZTV16GfxTilingPattern DATA
_ZTV16IdentityFunction DATA
_ZTV16JBIG2PatternDict DATA
_ZTV16PreScanOutputDev DATA
_ZTV16RunLengthEncoder DATA
_ZTV16StdinCacheLoader DATA
_ZTV17AutoFreeMemStream DATA
_ZTV17GfxShadingPattern DATA
_ZTV17StitchingFunction DATA
_ZTV18FixedLengthEncoder DATA
_ZTV18FormFieldSignature DATA
_ZTV18GfxFunctionShading DATA
_ZTV18LocalPDFDocBuilder DATA
_ZTV18PostScriptFunction DATA
_ZTV18StdinPDFDocBuilder DATA
_ZTV18TextSelectionSizer DATA
_ZTV19AnnotFileAttachment DATA
_ZTV19ExponentialFunction DATA
_ZTV19FormWidgetSignature DATA
_ZTV19GfxCalRGBColorSpace DATA
_ZTV19GfxPatchMeshShading DATA
_ZTV19TextSelectionDumper DATA
_ZTV20GfxCalGrayColorSpace DATA
_ZTV20GfxDeviceNColorSpace DATA
_ZTV20GfxIndexedColorSpace DATA
_ZTV20GfxPatternColorSpace DATA
_ZTV20GfxUnivariateShading DATA
_ZTV20TextSelectionPainter DATA
_ZTV20TextSelectionVisitor DATA
_ZTV21AnnotCalloutMultiLine DATA
_ZTV21GfxICCBasedColorSpace DATA
_ZTV22GfxDeviceRGBColorSpace DATA
_ZTV22MarkedContentOutputDev DATA
_ZTV23GfxDeviceCMYKColorSpace DATA
_ZTV23GfxDeviceGrayColorSpace DATA
_ZTV23GfxSeparationColorSpace DATA
_ZTV23StandardSecurityHandler DATA
_ZTV25GfxGouraudTriangleShading DATA
_ZTV5Annot DATA
_ZTV6Stream DATA
_ZTV7Annot3D DATA
_ZTV7GfxFont DATA
_ZTV7LinkURI DATA
_ZTV8AnnotInk DATA
_ZTV8FoFiBase DATA
_ZTV8Function DATA
_ZTV8LinkGoTo DATA
_ZTV8LinkHide DATA
_ZTV9AnnotLine DATA
_ZTV9AnnotLink DATA
_ZTV9AnnotText DATA
_ZTV9BufStream DATA
_ZTV9DCTStream DATA
_ZTV9EOFStream DATA
_ZTV9FoFiType1 DATA
_ZTV9FormField DATA
_ZTV9ImgWriter DATA
_ZTV9JPXStream DATA
_ZTV9LZWStream DATA
_ZTV9LinkGoToR DATA
_ZTV9LinkMovie DATA
_ZTV9LinkNamed DATA
_ZTV9LinkSound DATA
_ZTV9MemStream DATA
_ZTV9OutStream DATA
_ZTV9OutputDev DATA
_ZTV9PNGWriter DATA
_ZTVN4XRef15XRefTableWriterE DATA
_ZTVN4XRef16XRefStreamWriterE DATA
_ZTVN4XRef17XRefPreScanWriterE DATA
_ZTVSt13codecvt_utf16IwLm1114111ELSt12codecvt_mode0EE DATA
_ZTVSt23_Sp_counted_ptr_inplaceINSt8__detail4_NFAINSt7__cxx1112regex_traitsIcEEEESaIS5_ELN9__gnu_cxx12_Lock_policyE2EE DATA
_ZZNKSt7__cxx1112regex_traitsIcE16lookup_classnameIPKcEENS1_10_RegexMaskET_S6_bE12__classnames DATA
_ZZNKSt7__cxx1112regex_traitsIcE18lookup_collatenameIPKcEENS_12basic_stringIcSt11char_traitsIcESaIcEEET_SA_E14__collatenames DATA
_ZZNKSt8__detail11_AnyMatcherINSt7__cxx1112regex_traitsIcEELb0ELb0ELb0EEclEcE5__nul DATA
_ZZNKSt8__detail11_AnyMatcherINSt7__cxx1112regex_traitsIcEELb0ELb0ELb1EEclEcE5__nul DATA
_ZZNKSt8__detail11_AnyMatcherINSt7__cxx1112regex_traitsIcEELb0ELb1ELb0EEclEcE5__nul DATA
_ZZNKSt8__detail11_AnyMatcherINSt7__cxx1112regex_traitsIcEELb0ELb1ELb1EEclEcE5__nul DATA
_ZZNKSt8__detail9_ExecutorIN9__gnu_cxx17__normal_iteratorIPKcNSt7__cxx1112basic_stringIcSt11char_traitsIcESaIcEEEEESaINS5_9sub_matchISB_EEENS5_12regex_traitsIcEELb0EE10_M_is_wordEcE3__s DATA
_ZZNKSt8__detail9_ExecutorIN9__gnu_cxx17__normal_iteratorIPKcNSt7__cxx1112basic_stringIcSt11char_traitsIcESaIcEEEEESaINS5_9sub_matchISB_EEENS5_12regex_traitsIcEELb1EE10_M_is_wordEcE3__s DATA
_ZZNSt8__detail9_CompilerINSt7__cxx1112regex_traitsIcEEE18_M_expression_termILb0ELb0EEEbRSt4pairIbcERNS_15_BracketMatcherIS3_XT_EXT0_EEEENKUlcE_clEc
_ZZNSt8__detail9_CompilerINSt7__cxx1112regex_traitsIcEEE18_M_expression_termILb0ELb1EEEbRSt4pairIbcERNS_15_BracketMatcherIS3_XT_EXT0_EEEENKUlcE_clEc
_ZZNSt8__detail9_CompilerINSt7__cxx1112regex_traitsIcEEE18_M_expression_termILb1ELb0EEEbRSt4pairIbcERNS_15_BracketMatcherIS3_XT_EXT0_EEEENKUlcE_clEc
_ZZNSt8__detail9_CompilerINSt7__cxx1112regex_traitsIcEEE18_M_expression_termILb1ELb1EEEbRSt4pairIbcERNS_15_BracketMatcherIS3_XT_EXT0_EEEENKUlcE_clEc
builtinFontSubst DATA
builtinFonts DATA
expertEncoding DATA
fofiType1CExpertCharset DATA
fofiType1CExpertSubsetCharset DATA
fofiType1CISOAdobeCharset DATA
fofiType1CStdStrings DATA
fofiType1ExpertEncoding DATA
fofiType1StandardEncoding DATA
gatof
globalParams DATA
gstrtod
macExpertEncoding DATA
macRomanEncoding DATA
pdfDocEncoding DATA
standardEncoding DATA
symbolEncoding DATA
winAnsiEncoding DATA
zapfDingbatsEncoding DATA
