;
; Definition file of libvips-cpp-42.dll
; Automatic generated by gendef
; written by Kai Tietz 2008
;
LIBRARY "libvips-cpp-42.dll"
EXPORTS
_ZN4vips10to_vectorvEiz
_ZN4vips12VInterpolate13new_from_nameEPKcPNS_7VOptionE
_ZN4vips6VErrorC1Ev
_ZN4vips6VErrorD0Ev
_ZN4vips6VErrorD1Ev
_ZN4vips6VImage10gaussnoiseEiiPNS_7VOptionE
_ZN4vips6VImage10magickloadEPKcPNS_7VOptionE
_ZN4vips6VImage10mask_idealEiidPNS_7VOptionE
_ZN4vips6VImage10matrixloadEPKcPNS_7VOptionE
_ZN4vips6VImage10new_matrixEii
_ZN4vips6VImage11analyzeloadEPKcPNS_7VOptionE
_ZN4vips6VImage11new_matrixvEiiz
_ZN4vips6VImage11openexrloadEPKcPNS_7VOptionE
_ZN4vips6VImage12mask_fractalEiidPNS_7VOptionE
_ZN4vips6VImage12profile_loadEPKcPNS_7VOptionE
_ZN4vips6VImage12switch_imageESt6vectorIS0_SaIS0_EEPNS_7VOptionE
_ZN4vips6VImage13mask_gaussianEiiddPNS_7VOptionE
_ZN4vips6VImage13new_from_fileEPKcPNS_7VOptionE
_ZN4vips6VImage13openslideloadEPKcPNS_7VOptionE
_ZN4vips6VImage14csvload_sourceENS_7VSourceEPNS_7VOptionE
_ZN4vips6VImage14gifload_bufferEP9_VipsBlobPNS_7VOptionE
_ZN4vips6VImage14gifload_sourceENS_7VSourceEPNS_7VOptionE
_ZN4vips6VImage14pdfload_bufferEP9_VipsBlobPNS_7VOptionE
_ZN4vips6VImage14pdfload_sourceENS_7VSourceEPNS_7VOptionE
_ZN4vips6VImage14pngload_bufferEP9_VipsBlobPNS_7VOptionE
_ZN4vips6VImage14pngload_sourceENS_7VSourceEPNS_7VOptionE
_ZN4vips6VImage14ppmload_sourceENS_7VSourceEPNS_7VOptionE
_ZN4vips6VImage14radload_bufferEP9_VipsBlobPNS_7VOptionE
_ZN4vips6VImage14radload_sourceENS_7VSourceEPNS_7VOptionE
_ZN4vips6VImage14svgload_bufferEP9_VipsBlobPNS_7VOptionE
_ZN4vips6VImage14svgload_sourceENS_7VSourceEPNS_7VOptionE
_ZN4vips6VImage15heifload_bufferEP9_VipsBlobPNS_7VOptionE
_ZN4vips6VImage15heifload_sourceENS_7VSourceEPNS_7VOptionE
_ZN4vips6VImage15jpegload_bufferEP9_VipsBlobPNS_7VOptionE
_ZN4vips6VImage15jpegload_sourceENS_7VSourceEPNS_7VOptionE
_ZN4vips6VImage15mask_ideal_bandEiidddPNS_7VOptionE
_ZN4vips6VImage15mask_ideal_ringEiiddPNS_7VOptionE
_ZN4vips6VImage15new_from_bufferEPKvyPKcPNS_7VOptionE
_ZN4vips6VImage15new_from_bufferERKNSt7__cxx1112basic_stringIcSt11char_traitsIcESaIcEEEPKcPNS_7VOptionE
_ZN4vips6VImage15new_from_sourceENS_7VSourceEPKcPNS_7VOptionE
_ZN4vips6VImage15tiffload_bufferEP9_VipsBlobPNS_7VOptionE
_ZN4vips6VImage15tiffload_sourceENS_7VSourceEPNS_7VOptionE
_ZN4vips6VImage15webpload_bufferEP9_VipsBlobPNS_7VOptionE
_ZN4vips6VImage15webpload_sourceENS_7VSourceEPNS_7VOptionE
_ZN4vips6VImage16mask_butterworthEiidddPNS_7VOptionE
_ZN4vips6VImage16thumbnail_bufferEP9_VipsBlobiPNS_7VOptionE
_ZN4vips6VImage16thumbnail_sourceENS_7VSourceEiPNS_7VOptionE
_ZN4vips6VImage17magickload_bufferEP9_VipsBlobPNS_7VOptionE
_ZN4vips6VImage17matrixload_sourceENS_7VSourceEPNS_7VOptionE
_ZN4vips6VImage18call_option_stringEPKcS2_PNS_7VOptionE
_ZN4vips6VImage18mask_gaussian_bandEiiddddPNS_7VOptionE
_ZN4vips6VImage18mask_gaussian_ringEiidddPNS_7VOptionE
_ZN4vips6VImage21mask_butterworth_bandEiidddddPNS_7VOptionE
_ZN4vips6VImage21mask_butterworth_ringEiiddddPNS_7VOptionE
_ZN4vips6VImage3eyeEiiPNS_7VOptionE
_ZN4vips6VImage3sumESt6vectorIS0_SaIS0_EEPNS_7VOptionE
_ZN4vips6VImage3xyzEiiPNS_7VOptionE
_ZN4vips6VImage4callEPKcPNS_7VOptionE
_ZN4vips6VImage4greyEiiPNS_7VOptionE
_ZN4vips6VImage4textEPKcPNS_7VOptionE
_ZN4vips6VImage4zoneEiiPNS_7VOptionE
_ZN4vips6VImage5blackEiiPNS_7VOptionE
_ZN4vips6VImage5sinesEiiPNS_7VOptionE
_ZN4vips6VImage6logmatEddPNS_7VOptionE
_ZN4vips6VImage6perlinEiiPNS_7VOptionE
_ZN4vips6VImage6systemEPKcPNS_7VOptionE
_ZN4vips6VImage6worleyEiiPNS_7VOptionE
_ZN4vips6VImage7csvloadEPKcPNS_7VOptionE
_ZN4vips6VImage7gifloadEPKcPNS_7VOptionE
_ZN4vips6VImage7matloadEPKcPNS_7VOptionE
_ZN4vips6VImage7pdfloadEPKcPNS_7VOptionE
_ZN4vips6VImage7pngloadEPKcPNS_7VOptionE
_ZN4vips6VImage7ppmloadEPKcPNS_7VOptionE
_ZN4vips6VImage7radloadEPKcPNS_7VOptionE
_ZN4vips6VImage7rawloadEPKciiiPNS_7VOptionE
_ZN4vips6VImage7svgloadEPKcPNS_7VOptionE
_ZN4vips6VImage7tonelutEPNS_7VOptionE
_ZN4vips6VImage8bandjoinESt6vectorIS0_SaIS0_EEPNS_7VOptionE
_ZN4vips6VImage8bandrankESt6vectorIS0_SaIS0_EEPNS_7VOptionE
_ZN4vips6VImage8fitsloadEPKcPNS_7VOptionE
_ZN4vips6VImage8gaussmatEddPNS_7VOptionE
_ZN4vips6VImage8heifloadEPKcPNS_7VOptionE
_ZN4vips6VImage8identityEPNS_7VOptionE
_ZN4vips6VImage8jpegloadEPKcPNS_7VOptionE
_ZN4vips6VImage8tiffloadEPKcPNS_7VOptionE
_ZN4vips6VImage8vipsloadEPKcPNS_7VOptionE
_ZN4vips6VImage8webploadEPKcPNS_7VOptionE
_ZN4vips6VImage9arrayjoinESt6vectorIS0_SaIS0_EEPNS_7VOptionE
_ZN4vips6VImage9compositeESt6vectorIS0_SaIS0_EES1_IiSaIiEEPNS_7VOptionE
_ZN4vips6VImage9fractsurfEiidPNS_7VOptionE
_ZN4vips6VImage9niftiloadEPKcPNS_7VOptionE
_ZN4vips6VImage9thumbnailEPKciPNS_7VOptionE
_ZN4vips6invertESt6vectorIdSaIdEE
_ZN4vips6negateESt6vectorIdSaIdEE
_ZN4vips7VOption13get_operationEP14_VipsOperation
_ZN4vips7VOption13set_operationEP14_VipsOperation
_ZN4vips7VOption3setEPKcNS_12VInterpolateE
_ZN4vips7VOption3setEPKcNS_6VImageE
_ZN4vips7VOption3setEPKcNS_7VSourceE
_ZN4vips7VOption3setEPKcNS_7VTargetE
_ZN4vips7VOption3setEPKcP9_VipsBlob
_ZN4vips7VOption3setEPKcPNS_6VImageE
_ZN4vips7VOption3setEPKcPP9_VipsBlob
_ZN4vips7VOption3setEPKcPSt6vectorIdSaIdEE
_ZN4vips7VOption3setEPKcPb
_ZN4vips7VOption3setEPKcPd
_ZN4vips7VOption3setEPKcPi
_ZN4vips7VOption3setEPKcS2_
_ZN4vips7VOption3setEPKcSt6vectorINS_6VImageESaIS4_EE
_ZN4vips7VOption3setEPKcSt6vectorIdSaIdEE
_ZN4vips7VOption3setEPKcSt6vectorIiSaIiEE
_ZN4vips7VOption3setEPKcb
_ZN4vips7VOption3setEPKcd
_ZN4vips7VOption3setEPKci
_ZN4vips7VOptionD0Ev
_ZN4vips7VOptionD1Ev
_ZN4vips7VOptionD2Ev
_ZN4vips7VSource13new_from_blobEP9_VipsBlob
_ZN4vips7VSource13new_from_fileEPKc
_ZN4vips7VSource15new_from_memoryEPKvy
_ZN4vips7VSource16new_from_optionsEPKc
_ZN4vips7VSource19new_from_descriptorEi
_ZN4vips7VTarget11new_to_fileEPKc
_ZN4vips7VTarget13new_to_memoryEv
_ZN4vips7VTarget17new_to_descriptorEi
_ZN4vips9to_vectorEd
_ZN4vips9to_vectorEiPd
_ZN4vipsaNERNS_6VImageES0_
_ZN4vipsaNERNS_6VImageESt6vectorIdSaIdEE
_ZN4vipsaNERNS_6VImageEd
_ZN4vipsanENS_6VImageES0_
_ZN4vipsanENS_6VImageESt6vectorIdSaIdEE
_ZN4vipsanENS_6VImageEd
_ZN4vipsanESt6vectorIdSaIdEENS_6VImageE
_ZN4vipsanEdNS_6VImageE
_ZN4vipsdVERNS_6VImageES0_
_ZN4vipsdVERNS_6VImageESt6vectorIdSaIdEE
_ZN4vipsdVERNS_6VImageEd
_ZN4vipsdvENS_6VImageES0_
_ZN4vipsdvENS_6VImageESt6vectorIdSaIdEE
_ZN4vipsdvENS_6VImageEd
_ZN4vipsdvESt6vectorIdSaIdEENS_6VImageE
_ZN4vipsdvEdNS_6VImageE
_ZN4vipseOERNS_6VImageES0_
_ZN4vipseOERNS_6VImageESt6vectorIdSaIdEE
_ZN4vipseOERNS_6VImageEd
_ZN4vipseoENS_6VImageES0_
_ZN4vipseoENS_6VImageESt6vectorIdSaIdEE
_ZN4vipseoENS_6VImageEd
_ZN4vipseoESt6vectorIdSaIdEENS_6VImageE
_ZN4vipseoEdNS_6VImageE
_ZN4vipseqENS_6VImageES0_
_ZN4vipseqENS_6VImageESt6vectorIdSaIdEE
_ZN4vipseqENS_6VImageEd
_ZN4vipseqESt6vectorIdSaIdEENS_6VImageE
_ZN4vipseqEdNS_6VImageE
_ZN4vipsgeENS_6VImageES0_
_ZN4vipsgeENS_6VImageESt6vectorIdSaIdEE
_ZN4vipsgeENS_6VImageEd
_ZN4vipsgeESt6vectorIdSaIdEENS_6VImageE
_ZN4vipsgeEdNS_6VImageE
_ZN4vipsgtENS_6VImageES0_
_ZN4vipsgtENS_6VImageESt6vectorIdSaIdEE
_ZN4vipsgtENS_6VImageEd
_ZN4vipsgtESt6vectorIdSaIdEENS_6VImageE
_ZN4vipsgtEdNS_6VImageE
_ZN4vipslSERNS_6VImageES0_
_ZN4vipslSERNS_6VImageESt6vectorIdSaIdEE
_ZN4vipslSERNS_6VImageEd
_ZN4vipsleENS_6VImageES0_
_ZN4vipsleENS_6VImageESt6vectorIdSaIdEE
_ZN4vipsleENS_6VImageEd
_ZN4vipsleESt6vectorIdSaIdEENS_6VImageE
_ZN4vipsleEdNS_6VImageE
_ZN4vipslsENS_6VImageES0_
_ZN4vipslsENS_6VImageESt6vectorIdSaIdEE
_ZN4vipslsENS_6VImageEd
_ZN4vipslsERSoRKNS_6VErrorE
_ZN4vipsltENS_6VImageES0_
_ZN4vipsltENS_6VImageESt6vectorIdSaIdEE
_ZN4vipsltENS_6VImageEd
_ZN4vipsltESt6vectorIdSaIdEENS_6VImageE
_ZN4vipsltEdNS_6VImageE
_ZN4vipsmIERNS_6VImageES0_
_ZN4vipsmIERNS_6VImageESt6vectorIdSaIdEE
_ZN4vipsmIERNS_6VImageEd
_ZN4vipsmLERNS_6VImageES0_
_ZN4vipsmLERNS_6VImageESt6vectorIdSaIdEE
_ZN4vipsmLERNS_6VImageEd
_ZN4vipsmiENS_6VImageES0_
_ZN4vipsmiENS_6VImageESt6vectorIdSaIdEE
_ZN4vipsmiENS_6VImageEd
_ZN4vipsmiESt6vectorIdSaIdEENS_6VImageE
_ZN4vipsmiEdNS_6VImageE
_ZN4vipsmlENS_6VImageES0_
_ZN4vipsmlENS_6VImageESt6vectorIdSaIdEE
_ZN4vipsmlENS_6VImageEd
_ZN4vipsmlESt6vectorIdSaIdEENS_6VImageE
_ZN4vipsmlEdNS_6VImageE
_ZN4vipsneENS_6VImageES0_
_ZN4vipsneENS_6VImageESt6vectorIdSaIdEE
_ZN4vipsneENS_6VImageEd
_ZN4vipsneESt6vectorIdSaIdEENS_6VImageE
_ZN4vipsneEdNS_6VImageE
_ZN4vipsngENS_6VImageE
_ZN4vipsoRERNS_6VImageES0_
_ZN4vipsoRERNS_6VImageESt6vectorIdSaIdEE
_ZN4vipsoRERNS_6VImageEd
_ZN4vipsorENS_6VImageES0_
_ZN4vipsorENS_6VImageESt6vectorIdSaIdEE
_ZN4vipsorENS_6VImageEd
_ZN4vipsorESt6vectorIdSaIdEENS_6VImageE
_ZN4vipsorEdNS_6VImageE
_ZN4vipspLERNS_6VImageES0_
_ZN4vipspLERNS_6VImageESt6vectorIdSaIdEE
_ZN4vipspLERNS_6VImageEd
_ZN4vipsplENS_6VImageES0_
_ZN4vipsplENS_6VImageESt6vectorIdSaIdEE
_ZN4vipsplENS_6VImageEd
_ZN4vipsplESt6vectorIdSaIdEENS_6VImageE
_ZN4vipsplEdNS_6VImageE
_ZN4vipsrMERNS_6VImageES0_
_ZN4vipsrMERNS_6VImageESt6vectorIdSaIdEE
_ZN4vipsrMERNS_6VImageEd
_ZN4vipsrSERNS_6VImageES0_
_ZN4vipsrSERNS_6VImageESt6vectorIdSaIdEE
_ZN4vipsrSERNS_6VImageEd
_ZN4vipsrmENS_6VImageES0_
_ZN4vipsrmENS_6VImageESt6vectorIdSaIdEE
_ZN4vipsrmENS_6VImageEd
_ZN4vipsrsENS_6VImageES0_
_ZN4vipsrsENS_6VImageESt6vectorIdSaIdEE
_ZN4vipsrsENS_6VImageEd
_ZNK4vips6VError13ostream_printERSo
_ZNK4vips6VError4whatEv
_ZNK4vips6VImage10bandunfoldEPNS_7VOptionE
_ZNK4vips6VImage10case_imageESt6vectorIS0_SaIS0_EEPNS_7VOptionE
_ZNK4vips6VImage10complexgetE23VipsOperationComplexgetPNS_7VOptionE
_ZNK4vips6VImage10composite2ES0_13VipsBlendModePNS_7VOptionE
_ZNK4vips6VImage10countlinesE13VipsDirectionPNS_7VOptionE
_ZNK4vips6VImage10draw_floodESt6vectorIdSaIdEEiiPNS_7VOptionE
_ZNK4vips6VImage10draw_imageES0_iiPNS_7VOptionE
_ZNK4vips6VImage10hist_equalEPNS_7VOptionE
_ZNK4vips6VImage10hist_localEiiPNS_7VOptionE
_ZNK4vips6VImage10hist_matchES0_PNS_7VOptionE
_ZNK4vips6VImage10hough_lineEPNS_7VOptionE
_ZNK4vips6VImage10icc_exportEPNS_7VOptionE
_ZNK4vips6VImage10icc_importEPNS_7VOptionE
_ZNK4vips6VImage10ifthenelseES0_S0_PNS_7VOptionE
_ZNK4vips6VImage10magicksaveEPKcPNS_7VOptionE
_ZNK4vips6VImage10matrixsaveEPKcPNS_7VOptionE
_ZNK4vips6VImage10rawsave_fdEiPNS_7VOptionE
_ZNK4vips6VImage10relationalES0_23VipsOperationRelationalPNS_7VOptionE
_ZNK4vips6VImage10sRGB2scRGBEPNS_7VOptionE
_ZNK4vips6VImage10scRGB2sRGBEPNS_7VOptionE
_ZNK4vips6VImage10sequentialEPNS_7VOptionE
_ZNK4vips6VImage10similarityEPNS_7VOptionE
_ZNK4vips6VImage11colourspaceE18VipsInterpretationPNS_7VOptionE
_ZNK4vips6VImage11complexformES0_PNS_7VOptionE
_ZNK4vips6VImage11draw_circleESt6vectorIdSaIdEEiiiPNS_7VOptionE
_ZNK4vips6VImage11draw_smudgeEiiiiPNS_7VOptionE
_ZNK4vips6VImage11falsecolourEPNS_7VOptionE
_ZNK4vips6VImage11math2_constE18VipsOperationMath2St6vectorIdSaIdEEPNS_7VOptionE
_ZNK4vips6VImage11matrixprintEPNS_7VOptionE
_ZNK4vips6VImage11premultiplyEPNS_7VOptionE
_ZNK4vips6VImage11transpose3dEPNS_7VOptionE
_ZNK4vips6VImage12extract_areaEiiiiPNS_7VOptionE
_ZNK4vips6VImage12extract_bandEiPNS_7VOptionE
_ZNK4vips6VImage12fill_nearestEPNS_7VOptionE
_ZNK4vips6VImage12hist_entropyEPNS_7VOptionE
_ZNK4vips6VImage12hough_circleEPNS_7VOptionE
_ZNK4vips6VImage12labelregionsEPNS_7VOptionE
_ZNK4vips6VImage12matrixinvertEPNS_7VOptionE
_ZNK4vips6VImage13boolean_constE20VipsOperationBooleanSt6vectorIdSaIdEEPNS_7VOptionE
_ZNK4vips6VImage13dzsave_bufferEPNS_7VOptionE
_ZNK4vips6VImage13globalbalanceEPNS_7VOptionE
_ZNK4vips6VImage13icc_transformEPKcPNS_7VOptionE
_ZNK4vips6VImage13jpegsave_mimeEPNS_7VOptionE
_ZNK4vips6VImage13unpremultiplyEPNS_7VOptionE
_ZNK4vips6VImage13write_to_fileEPKcPNS_7VOptionE
_ZNK4vips6VImage14bandjoin_constESt6vectorIdSaIdEEPNS_7VOptionE
_ZNK4vips6VImage14csvsave_targetENS_7VTargetEPNS_7VOptionE
_ZNK4vips6VImage14hist_find_ndimEPNS_7VOptionE
_ZNK4vips6VImage14pngsave_bufferEPNS_7VOptionE
_ZNK4vips6VImage14pngsave_targetENS_7VTargetEPNS_7VOptionE
_ZNK4vips6VImage14ppmsave_targetENS_7VTargetEPNS_7VOptionE
_ZNK4vips6VImage14radsave_bufferEPNS_7VOptionE
_ZNK4vips6VImage14radsave_targetENS_7VTargetEPNS_7VOptionE
_ZNK4vips6VImage15heifsave_bufferEPNS_7VOptionE
_ZNK4vips6VImage15heifsave_targetENS_7VTargetEPNS_7VOptionE
_ZNK4vips6VImage15jpegsave_bufferEPNS_7VOptionE
_ZNK4vips6VImage15jpegsave_targetENS_7VTargetEPNS_7VOptionE
_ZNK4vips6VImage15remainder_constESt6vectorIdSaIdEEPNS_7VOptionE
_ZNK4vips6VImage15thumbnail_imageEiPNS_7VOptionE
_ZNK4vips6VImage15tiffsave_bufferEPNS_7VOptionE
_ZNK4vips6VImage15webpsave_bufferEPNS_7VOptionE
_ZNK4vips6VImage15webpsave_targetENS_7VTargetEPNS_7VOptionE
_ZNK4vips6VImage15write_to_bufferEPKcPPvPyPNS_7VOptionE
_ZNK4vips6VImage15write_to_targetEPKcNS_7VTargetEPNS_7VOptionE
_ZNK4vips6VImage16hist_ismonotonicEPNS_7VOptionE
_ZNK4vips6VImage16relational_constE23VipsOperationRelationalSt6vectorIdSaIdEEPNS_7VOptionE
_ZNK4vips6VImage17hist_find_indexedES0_PNS_7VOptionE
_ZNK4vips6VImage17magicksave_bufferEPNS_7VOptionE
_ZNK4vips6VImage17matrixsave_targetENS_7VTargetEPNS_7VOptionE
_ZNK4vips6VImage3absEPNS_7VOptionE
_ZNK4vips6VImage3addES0_PNS_7VOptionE
_ZNK4vips6VImage3avgEPNS_7VOptionE
_ZNK4vips6VImage3maxEPNS_7VOptionE
_ZNK4vips6VImage3minEPNS_7VOptionE
_ZNK4vips6VImage3msbEPNS_7VOptionE
_ZNK4vips6VImage3rotE9VipsAnglePNS_7VOptionE
_ZNK4vips6VImage4castE14VipsBandFormatPNS_7VOptionE
_ZNK4vips6VImage4convES0_PNS_7VOptionE
_ZNK4vips6VImage4copyEPNS_7VOptionE
_ZNK4vips6VImage4cropEiiiiPNS_7VOptionE
_ZNK4vips6VImage4dE00ES0_PNS_7VOptionE
_ZNK4vips6VImage4dE76ES0_PNS_7VOptionE
_ZNK4vips6VImage4flipE13VipsDirectionPNS_7VOptionE
_ZNK4vips6VImage4gridEiiiPNS_7VOptionE
_ZNK4vips6VImage4joinES0_13VipsDirectionPNS_7VOptionE
_ZNK4vips6VImage4mathE17VipsOperationMathPNS_7VOptionE
_ZNK4vips6VImage4rankEiiiPNS_7VOptionE
_ZNK4vips6VImage4signEPNS_7VOptionE
_ZNK4vips6VImage4wrapEPNS_7VOptionE
_ZNK4vips6VImage4zoomEiiPNS_7VOptionE
_ZNK4vips6VImage5cacheEPNS_7VOptionE
_ZNK4vips6VImage5cannyEPNS_7VOptionE
_ZNK4vips6VImage5convaES0_PNS_7VOptionE
_ZNK4vips6VImage5convfES0_PNS_7VOptionE
_ZNK4vips6VImage5conviES0_PNS_7VOptionE
_ZNK4vips6VImage5dECMCES0_PNS_7VOptionE
_ZNK4vips6VImage5embedEiiiiPNS_7VOptionE
_ZNK4vips6VImage5fwfftEPNS_7VOptionE
_ZNK4vips6VImage5gammaEPNS_7VOptionE
_ZNK4vips6VImage5mapimES0_PNS_7VOptionE
_ZNK4vips6VImage5matchES0_iiiiiiiiPNS_7VOptionE
_ZNK4vips6VImage5math2ES0_18VipsOperationMath2PNS_7VOptionE
_ZNK4vips6VImage5mergeES0_13VipsDirectioniiPNS_7VOptionE
_ZNK4vips6VImage5morphES0_23VipsOperationMorphologyPNS_7VOptionE
_ZNK4vips6VImage5rot45EPNS_7VOptionE
_ZNK4vips6VImage5roundE18VipsOperationRoundPNS_7VOptionE
_ZNK4vips6VImage5scaleEPNS_7VOptionE
_ZNK4vips6VImage5sobelEPNS_7VOptionE
_ZNK4vips6VImage5spcorES0_PNS_7VOptionE
_ZNK4vips6VImage5statsEPNS_7VOptionE
_ZNK4vips6VImage5stdifEiiPNS_7VOptionE
_ZNK4vips6VImage5writeES0_
_ZNK4vips6VImage6affineESt6vectorIdSaIdEEPNS_7VOptionE
_ZNK4vips6VImage6divideES0_PNS_7VOptionE
_ZNK4vips6VImage6dzsaveEPKcPNS_7VOptionE
_ZNK4vips6VImage6insertES0_iiPNS_7VOptionE
_ZNK4vips6VImage6invertEPNS_7VOptionE
_ZNK4vips6VImage6invfftEPNS_7VOptionE
_ZNK4vips6VImage6linearESt6vectorIdSaIdEES3_PNS_7VOptionE
_ZNK4vips6VImage6maplutES0_PNS_7VOptionE
_ZNK4vips6VImage6maxposEPNS_7VOptionE
_ZNK4vips6VImage6minposEPNS_7VOptionE
_ZNK4vips6VImage6mosaicES0_13VipsDirectioniiiiPNS_7VOptionE
_ZNK4vips6VImage6recombES0_PNS_7VOptionE
_ZNK4vips6VImage6reduceEddPNS_7VOptionE
_ZNK4vips6VImage6resizeEdPNS_7VOptionE
_ZNK4vips6VImage6rotateEdPNS_7VOptionE
_ZNK4vips6VImage6shrinkEddPNS_7VOptionE
_ZNK4vips6VImage7CMC2LChEPNS_7VOptionE
_ZNK4vips6VImage7LCh2CMCEPNS_7VOptionE
_ZNK4vips6VImage7LCh2LabEPNS_7VOptionE
_ZNK4vips6VImage7Lab2LChEPNS_7VOptionE
_ZNK4vips6VImage7Lab2XYZEPNS_7VOptionE
_ZNK4vips6VImage7XYZ2LabEPNS_7VOptionE
_ZNK4vips6VImage7XYZ2YxyEPNS_7VOptionE
_ZNK4vips6VImage7Yxy2XYZEPNS_7VOptionE
_ZNK4vips6VImage7autorotEPNS_7VOptionE
_ZNK4vips6VImage7booleanES0_20VipsOperationBooleanPNS_7VOptionE
_ZNK4vips6VImage7compassES0_PNS_7VOptionE
_ZNK4vips6VImage7complexE20VipsOperationComplexPNS_7VOptionE
_ZNK4vips6VImage7convsepES0_PNS_7VOptionE
_ZNK4vips6VImage7csvsaveEPKcPNS_7VOptionE
_ZNK4vips6VImage7deviateEPNS_7VOptionE
_ZNK4vips6VImage7fastcorES0_PNS_7VOptionE
_ZNK4vips6VImage7flattenEPNS_7VOptionE
_ZNK4vips6VImage7gravityE20VipsCompassDirectioniiPNS_7VOptionE
_ZNK4vips6VImage7measureEiiPNS_7VOptionE
_ZNK4vips6VImage7mosaic1ES0_13VipsDirectioniiiiiiiiPNS_7VOptionE
_ZNK4vips6VImage7percentEdPNS_7VOptionE
_ZNK4vips6VImage7pngsaveEPKcPNS_7VOptionE
_ZNK4vips6VImage7ppmsaveEPKcPNS_7VOptionE
_ZNK4vips6VImage7profileEPS0_PNS_7VOptionE
_ZNK4vips6VImage7projectEPS0_PNS_7VOptionE
_ZNK4vips6VImage7radsaveEPKcPNS_7VOptionE
_ZNK4vips6VImage7rawsaveEPKcPNS_7VOptionE
_ZNK4vips6VImage7reducehEdPNS_7VOptionE
_ZNK4vips6VImage7reducevEdPNS_7VOptionE
_ZNK4vips6VImage7sharpenEPNS_7VOptionE
_ZNK4vips6VImage7shrinkhEiPNS_7VOptionE
_ZNK4vips6VImage7shrinkvEiPNS_7VOptionE
_ZNK4vips6VImage8CMYK2XYZEPNS_7VOptionE
_ZNK4vips6VImage8HSV2sRGBEPNS_7VOptionE
_ZNK4vips6VImage8Lab2LabQEPNS_7VOptionE
_ZNK4vips6VImage8Lab2LabSEPNS_7VOptionE
_ZNK4vips6VImage8LabQ2LabEPNS_7VOptionE
_ZNK4vips6VImage8LabS2LabEPNS_7VOptionE
_ZNK4vips6VImage8XYZ2CMYKEPNS_7VOptionE
_ZNK4vips6VImage8bandboolE20VipsOperationBooleanPNS_7VOptionE
_ZNK4vips6VImage8bandfoldEPNS_7VOptionE
_ZNK4vips6VImage8bandjoinES0_PNS_7VOptionE
_ZNK4vips6VImage8bandmeanEPNS_7VOptionE
_ZNK4vips6VImage8buildlutEPNS_7VOptionE
_ZNK4vips6VImage8byteswapEPNS_7VOptionE
_ZNK4vips6VImage8complex2ES0_21VipsOperationComplex2PNS_7VOptionE
_ZNK4vips6VImage8convasepES0_PNS_7VOptionE
_ZNK4vips6VImage8fitssaveEPKcPNS_7VOptionE
_ZNK4vips6VImage8freqmultES0_PNS_7VOptionE
_ZNK4vips6VImage8getpointEiiPNS_7VOptionE
_ZNK4vips6VImage8heifsaveEPKcPNS_7VOptionE
_ZNK4vips6VImage8hist_cumEPNS_7VOptionE
_ZNK4vips6VImage8jpegsaveEPKcPNS_7VOptionE
_ZNK4vips6VImage8multiplyES0_PNS_7VOptionE
_ZNK4vips6VImage8phasecorES0_PNS_7VOptionE
_ZNK4vips6VImage8sRGB2HSVEPNS_7VOptionE
_ZNK4vips6VImage8scRGB2BWEPNS_7VOptionE
_ZNK4vips6VImage8spectrumEPNS_7VOptionE
_ZNK4vips6VImage8subtractES0_PNS_7VOptionE
_ZNK4vips6VImage8tiffsaveEPKcPNS_7VOptionE
_ZNK4vips6VImage8vipssaveEPKcPNS_7VOptionE
_ZNK4vips6VImage8webpsaveEPKcPNS_7VOptionE
_ZNK4vips6VImage9LabQ2LabSEPNS_7VOptionE
_ZNK4vips6VImage9LabQ2sRGBEPNS_7VOptionE
_ZNK4vips6VImage9LabS2LabQEPNS_7VOptionE
_ZNK4vips6VImage9XYZ2scRGBEPNS_7VOptionE
_ZNK4vips6VImage9bandsplitEPNS_7VOptionE
_ZNK4vips6VImage9compositeES0_13VipsBlendModePNS_7VOptionE
_ZNK4vips6VImage9draw_lineESt6vectorIdSaIdEEiiiiPNS_7VOptionE
_ZNK4vips6VImage9draw_maskESt6vectorIdSaIdEES0_iiPNS_7VOptionE
_ZNK4vips6VImage9draw_rectESt6vectorIdSaIdEEiiiiPNS_7VOptionE
_ZNK4vips6VImage9find_trimEPiS1_S1_PNS_7VOptionE
_ZNK4vips6VImage9float2radEPNS_7VOptionE
_ZNK4vips6VImage9gaussblurEdPNS_7VOptionE
_ZNK4vips6VImage9hist_findEPNS_7VOptionE
_ZNK4vips6VImage9hist_normEPNS_7VOptionE
_ZNK4vips6VImage9hist_plotEPNS_7VOptionE
_ZNK4vips6VImage9invertlutEPNS_7VOptionE
_ZNK4vips6VImage9linecacheEPNS_7VOptionE
_ZNK4vips6VImage9niftisaveEPKcPNS_7VOptionE
_ZNK4vips6VImage9quadraticES0_PNS_7VOptionE
_ZNK4vips6VImage9rad2floatEPNS_7VOptionE
_ZNK4vips6VImage9remainderES0_PNS_7VOptionE
_ZNK4vips6VImage9replicateEiiPNS_7VOptionE
_ZNK4vips6VImage9scRGB2XYZEPNS_7VOptionE
_ZNK4vips6VImage9smartcropEiiPNS_7VOptionE
_ZNK4vips6VImage9subsampleEiiPNS_7VOptionE
_ZNK4vips6VImage9tilecacheEPNS_7VOptionE
_ZNK4vips6VImageclEii
_ZNK4vips6VImageixEi
_ZNSt6vectorIN4vips6VImageESaIS1_EE17_M_realloc_insertIJS1_EEEvN9__gnu_cxx17__normal_iteratorIPS1_S3_EEDpOT_
_ZNSt6vectorIN4vips6VImageESaIS1_EED1Ev
_ZNSt6vectorIdSaIdEE17_M_default_appendEy
_ZTIN4vips6VErrorE DATA
_ZTIN4vips7VOptionE DATA
_ZTISt9exception DATA
_ZTSN4vips6VErrorE DATA
_ZTSN4vips7VOptionE DATA
_ZTSSt9exception DATA
_ZTVN4vips6VErrorE DATA
_ZTVN4vips7VOptionE DATA
