;
; Definition file of libde265.dll
; Automatic generated by gendef
; written by Kai Tietz 2008
;
LIBRARY "libde265.dll"
EXPORTS
D DATA
_Z10MD5_UpdateP7MD5_CTXPvm
_Z10drawTBgridPK11de265_imagePhiiijiii
_Z10encode_ctbP15encoder_contextP13CABAC_encoderP6enc_cbii
_Z10encode_mvdP15encoder_contextP13CABAC_encoderPKs
_Z11process_seiPK11sei_messageP11de265_image
_Z12encode_imageP15encoder_contextPK11de265_imageR11EncoderCore
_Z12get_NAL_nameh
_Z13add_sao_tasksP10image_uniti
_Z13copy_subimagePhiPKhiii
_Z13draw_PB_blockPK11de265_imagePhiiiii8DrawModeji
_Z13fwd_transformP22acceleration_functionsPsiiiPKsi
_Z13get_bits_fastP9bitreaderi
_Z13inv_transformP22acceleration_functionsPhiPsii
_Z13sei_type_name16sei_payload_type
_Z14advanceCtbAddrP14thread_context
_Z14bitreader_initP9bitreaderPhi
_Z14draw_tree_gridPK11de265_imagePhiji8DrawMode
_Z14get_scan_orderii
_Z14get_split_typePK17seq_parameter_setiii
_Z14part_mode_name8PartMode
_Z14skip_bits_fastP9bitreaderi
_Z15cross_comp_predPK14thread_contextPii
_Z15de265_cond_initP12win32_cond_t
_Z15de265_cond_waitP12win32_cond_tPPv
_Z15decode_CABAC_TUP13CABAC_decoderiP13context_model
_Z15encode_cbf_lumaP13CABAC_encoderbi
_Z15encode_quadtreeP15encoder_contextP13CABAC_encoderPK6enc_cbiiiib
_Z15encode_residualP15encoder_contextP13CABAC_encoderPK6enc_tbPK6enc_cbiiii
_Z15isReferenceNALUh
_Z15read_mvd_codingP14thread_contextiii
_Z15residual_codingP14thread_contextiiii
_Z16bitreader_refillP9bitreader
_Z16compute_residualIhEvP15encoder_contextP6enc_tbPK11de265_imagei
_Z16de265_mutex_initPPv
_Z16de265_mutex_lockPPv
_Z16debug_show_imagePK11de265_imagei
_Z16decode_CABAC_bitP13CABAC_decoderP13context_model
_Z16decode_substreamP14thread_contextbb
_Z16derive_edgeFlagsP11de265_image
_Z16encode_merge_idxP15encoder_contextP13CABAC_encoderi
_Z16encode_part_modeP15encoder_contextP13CABAC_encoder8PredMode8PartModei
_Z16estim_TB_bitratePK15encoder_contextPK11de265_imagePK6enc_tb20TBBitrateEstimMethod
_Z16init_scan_ordersv
_Z16rdpcm_h_fallbackPiPKsiii
_Z16rdpcm_v_fallbackPiPKsiii
_Z16read_coding_unitP14thread_contextiiii
_Z16setCtbAddrFromTSP14thread_context
_Z16statistics_printv
_Z16stop_thread_poolP11thread_pool
_Z17de265_cond_signalP12win32_cond_t
_Z17de265_thread_joinPv
_Z17encode_cbf_chromaP13CABAC_encoderii
_Z17get_scan_positioniiii
_Z17prepare_for_CABACP9bitreader
_Z17read_scaling_listP9bitreaderPK17seq_parameter_setP17scaling_list_datab
_Z17start_thread_poolP11thread_pooli
_Z18apply_sao_internalIhEvP11de265_imageiiPK20slice_segment_headeriiiPKT_iPS5_i
_Z18apply_sao_internalItEvP11de265_imageiiPK20slice_segment_headeriiiPKT_iPS5_i
_Z18de265_cond_destroyP12win32_cond_t
_Z18de265_mutex_unlockPPv
_Z18draw_QuantPY_blockPK11de265_imagePhiiiiii
_Z18encode_coding_unitP15encoder_contextP13CABAC_encoderPK6enc_cbiiib
_Z18get_intra_scan_idxi13IntraPredModeiPK17seq_parameter_set
_Z18init_CABAC_decoderP13CABAC_decoderPhi
_Z18quant_coefficientsPsPKsiib
_Z18scale_coefficientsP14thread_contextiiiiiibbi
_Z18write_scaling_listR13CABAC_encoderPK17seq_parameter_setP17scaling_list_datab
_Z19check_CTB_availablePK11de265_imageiiii
_Z19de265_mutex_destroyPPv
_Z19de265_thread_createPPvPFmS_ES_
_Z19decode_CABAC_bypassP13CABAC_decoder
_Z19draw_block_boundaryPK11de265_imagePhiiiiiji
_Z19edge_filtering_lumaP11de265_imagebiiii
_Z19en265_print_loggingPK15encoder_contextPKcS3_
_Z19encode_cu_skip_flagP15encoder_contextP13CABAC_encoderPK6enc_cbb
_Z19fdct_4x4_8_fallbackPsPKsx
_Z19fdct_8x8_8_fallbackPsPKsx
_Z19fdst_4x4_8_fallbackPsPKsx
_Z19fill_scaling_factorPhPKhi
_Z19intra_prediction_DCIhEvPT_iiiS1_
_Z19intra_prediction_DCItEvPT_iiiS1_
_Z19print_cb_tree_ratesPK6enc_cbi
_Z19print_tb_tree_ratesPK6enc_tbi
_Z19put_epel_8_fallbackPsxPKhxiiiiS_
_Z19read_transform_treeP14thread_contextiiiiiiiiiii8PredModehh
_Z19read_transform_unitP14thread_contextiiiiiiiiiiii
_Z20add_deblocking_tasksP10image_unit
_Z20de265_cond_broadcastP12win32_cond_tPPv
_Z20de265_thread_destroyPPv
_Z20dequant_coefficientsPsPKsii
_Z20draw_intra_pred_modePK11de265_imagePhiiii13IntraPredModeji
_Z20encode_split_cu_flagP15encoder_contextP13CABAC_encoderiiii
_Z20find_intra_pred_mode13IntraPredModePS_
_Z20hadamard_transform_8PsiPKsx
_Z20init_CABAC_decoder_2P13CABAC_decoder
_Z20map_chroma_pred_modeii
_Z20put_epel_16_fallbackPsxPKtxiiiiS_i
_Z20put_epel_hv_fallbackIhEvPsxPKT_xiiiiS0_i
_Z20put_epel_hv_fallbackItEvPsxPKT_xiiiiS0_i
_Z20read_coding_quadtreeP14thread_contextiiii
_Z20read_prediction_unitP14thread_contextiiiiiiiii
_Z21add_residual_fallbackIhEvPT_xPKiii
_Z21add_residual_fallbackItEvPT_xPKiii
_Z21decode_CABAC_term_bitP13CABAC_decoder
_Z21edge_filtering_chromaP11de265_imagebiiii
_Z21encode_transform_treeP15encoder_contextP13CABAC_encoderPK6enc_tbPK6enc_cbiiiiiiiiib
_Z21encode_transform_unitP15encoder_contextP13CABAC_encoderPK6enc_tbPK6enc_cbiiiiiii
_Z21fdct_16x16_8_fallbackPsPKsx
_Z21fdct_32x32_8_fallbackPsPKsx
_Z21find_chroma_pred_mode13IntraPredModeS_
_Z21get_video_format_name11VideoFormat
_Z21put_qpel_0_0_fallbackPsxPKhxiiS_
_Z21put_qpel_0_1_fallbackPsxPKhxiiS_
_Z21put_qpel_0_2_fallbackPsxPKhxiiS_
_Z21put_qpel_0_3_fallbackPsxPKhxiiS_
_Z21put_qpel_1_0_fallbackPsxPKhxiiS_
_Z21put_qpel_1_1_fallbackPsxPKhxiiS_
_Z21put_qpel_1_2_fallbackPsxPKhxiiS_
_Z21put_qpel_1_3_fallbackPsxPKhxiiS_
_Z21put_qpel_2_0_fallbackPsxPKhxiiS_
_Z21put_qpel_2_1_fallbackPsxPKhxiiS_
_Z21put_qpel_2_2_fallbackPsxPKhxiiS_
_Z21put_qpel_2_3_fallbackPsxPKhxiiS_
_Z21put_qpel_3_0_fallbackPsxPKhxiiS_
_Z21put_qpel_3_1_fallbackPsxPKhxiiS_
_Z21put_qpel_3_2_fallbackPsxPKhxiiS_
_Z21put_qpel_3_3_fallbackPsxPKhxiiS_
_Z21read_coding_tree_unitP14thread_context
_Z21skip_to_byte_boundaryP9bitreader
_Z21write_picture_to_filePK11de265_imagePKc
_Z22compute_distortion_ssdPK11de265_imageS1_iiii
_Z22de265_free_image_planeP11de265_imagei
_Z22debug_set_image_outputPFvPK11de265_imageiE
_Z22decode_CABAC_FL_bypassP13CABAC_decoderi
_Z22decode_CABAC_TR_bypassP13CABAC_decoderii
_Z22decode_CABAC_TU_bypassP13CABAC_decoderi
_Z22decode_prediction_unitP12base_contextPK20slice_segment_headerP11de265_imageRK14PBMotionCodingiiiiiiii
_Z22encode_prediction_unitP15encoder_contextP13CABAC_encoderPK6enc_cbiiiii
_Z22isSublayerNonReferenceh
_Z22read_pred_weight_tableP9bitreaderP20slice_segment_headerP15decoder_context
_Z23apply_deblocking_filterP11de265_image
_Z23de265_alloc_image_planeP11de265_imageiPviS1_
_Z23decode_CABAC_EGk_bypassP13CABAC_decoderi
_Z23decode_intra_predictionIhEvP11de265_imageii13IntraPredModePT_ii
_Z23decode_intra_predictionItEvP11de265_imageii13IntraPredModePT_ii
_Z23decode_intra_predictionP11de265_imageii13IntraPredModeii
_Z23derive_boundaryStrengthP11de265_imagebiiii
_Z23derive_edgeFlags_CTBRowP11de265_imagei
_Z23edge_filtering_luma_CTBP11de265_imagebii
_Z23get_intra_scan_idx_lumai13IntraPredMode
_Z23hadamard_4x4_8_fallbackPsPKsx
_Z23hadamard_8x8_8_fallbackPsPKsx
_Z23initialize_CABAC_modelsP13context_modelii
_Z23initialize_CABAC_modelsP14thread_context
_Z23read_slice_segment_dataP14thread_context
_Z23transform_idct_fallbackPiiPKsii
_Z24check_rbsp_trailing_bitsP9bitreader
_Z24compute_residual_channelIhEvP15encoder_contextP6enc_tbPK11de265_imageiiii
_Z24compute_transform_coeffsP15encoder_contextP6enc_tbPK11de265_imageiiiPK6enc_cbi
_Z24findLastSignificantCoeffPK8positionS1_PKsiPiS4_S4_S4_
_Z24get_intra_pred_mode_bitsPK13IntraPredModeS_S_R19context_model_tableb
_Z24get_merge_candidate_listP12base_contextPK20slice_segment_headerP11de265_imageiiiiiiiiP8PBMotion
_Z24intra_prediction_angularIhEvPT_iibii13IntraPredModeiiS1_
_Z24intra_prediction_angularItEvPT_iibii13IntraPredModeiiS1_
_Z24put_qpel_0_0_fallback_16PsxPKtxiiS_i
_Z24put_qpel_0_1_fallback_16PsxPKtxiiS_i
_Z24put_qpel_0_2_fallback_16PsxPKtxiiS_i
_Z24put_qpel_0_3_fallback_16PsxPKtxiiS_i
_Z24put_qpel_1_0_fallback_16PsxPKtxiiS_i
_Z24put_qpel_1_1_fallback_16PsxPKtxiiS_i
_Z24put_qpel_1_2_fallback_16PsxPKtxiiS_i
_Z24put_qpel_1_3_fallback_16PsxPKtxiiS_i
_Z24put_qpel_2_0_fallback_16PsxPKtxiiS_i
_Z24put_qpel_2_1_fallback_16PsxPKtxiiS_i
_Z24put_qpel_2_2_fallback_16PsxPKtxiiS_i
_Z24put_qpel_2_3_fallback_16PsxPKtxiiS_i
_Z24put_qpel_3_0_fallback_16PsxPKtxiiS_i
_Z24put_qpel_3_1_fallback_16PsxPKtxiiS_i
_Z24put_qpel_3_2_fallback_16PsxPKtxiiS_i
_Z24put_qpel_3_3_fallback_16PsxPKtxiiS_i
_Z24recursive_cbfChroma_rateP19CABAC_encoder_estimP6enc_tbii
_Z25edge_filtering_chroma_CTBP11de265_imagebii
_Z25get_intra_scan_idx_chromai13IntraPredMode
_Z25hadamard_16x16_8_fallbackPsPKsx
_Z25hadamard_32x32_8_fallbackPsPKsx
_Z25read_pcm_samples_internalIhEvP14thread_contextiiiiR9bitreader
_Z25read_pcm_samples_internalItEvP14thread_contextiiiiR9bitreader
_Z25read_prediction_unit_SKIPP14thread_contextiiii
_Z25set_default_scaling_listsP17scaling_list_data
_Z25transform_bypass_fallbackPiPKsi
_Z25transform_skip_8_fallbackPhPKsx
_Z26markTransformBlockBoundaryP11de265_imageiiiiii
_Z26transform_skip_16_fallbackPtPKsxi
_Z27derive_boundaryStrength_CTBP11de265_imagebii
_Z27dump_short_term_ref_pic_setPK11ref_pic_setP6_iobuf
_Z27encode_split_transform_flagP15encoder_contextP13CABAC_encoderii
_Z27fillIntraPredModeCandidatesP13IntraPredModeS_S_
_Z27fillIntraPredModeCandidatesP13IntraPredModeiibbRK13CTBTreeMatrixPK17seq_parameter_set
_Z27fillIntraPredModeCandidatesP13IntraPredModeiiibbPK11de265_image
_Z27list_chroma_pred_candidatesP13IntraPredModeS_
_Z27markPredictionBlockBoundaryP11de265_imageiiiii
_Z27read_short_term_ref_pic_setP11error_queuePK17seq_parameter_setP9bitreaderP11ref_pic_setiRKSt6vectorIS6_SaIS6_EEb
_Z27scale_coefficients_internalIhEvP14thread_contextiiiiiibbi
_Z27scale_coefficients_internalItEvP14thread_contextiiiiiibbi
_Z27transform_bypass_8_fallbackPhPKsix
_Z27transform_idct_4x4_fallbackPiPKsii
_Z27transform_idct_8x8_fallbackPiPKsii
_Z27transform_idst_4x4_fallbackPiPKsii
_Z28apply_sample_adaptive_offsetP11de265_image
_Z28edge_filtering_luma_internalIhEvP11de265_imagebiiii
_Z28edge_filtering_luma_internalItEvP11de265_imagebiiii
_Z28ff_hevc_transform_skip_8_ssePhPKsx
_Z28put_weighted_pred_8_fallbackPhxPKsxiiiii
_Z28rotate_coefficients_fallbackPsi
_Z28transform_4x4_add_8_fallbackPhPKsx
_Z28transform_8x8_add_8_fallbackPhPKsx
_Z28transform_bypass_16_fallbackPtPKsixi
_Z28write_short_term_ref_pic_setP11error_queuePK17seq_parameter_setR13CABAC_encoderPK11ref_pic_setiRKSt6vectorIS6_SaIS6_EEb
_Z29derive_luma_motion_merge_modeP12base_contextPK20slice_segment_headerP11de265_imageiiiiiiiiiP8PBMotion
_Z29ff_hevc_put_hevc_epel_h_8_ssePsxPKhxiiiiS_i
_Z29ff_hevc_put_hevc_epel_v_8_ssePsxPKhxiiiiS_i
_Z29luma_motion_vector_predictionP12base_contextPK20slice_segment_headerP11de265_imageRK14PBMotionCodingiiiiiiiiii
_Z29put_weighted_pred_16_fallbackPtxPKsxiiiiii
_Z29transform_4x4_add_16_fallbackPtPKsxi
_Z29transform_8x8_add_16_fallbackPtPKsxi
_Z29transform_idct_16x16_fallbackPiPKsii
_Z29transform_idct_32x32_fallbackPiPKsii
_Z2TUii
_Z30decode_quantization_parametersP14thread_contextiiii
_Z30edge_filtering_chroma_internalIhEvP11de265_imagebiiii
_Z30edge_filtering_chroma_internalItEvP11de265_imagebiiii
_Z30ff_hevc_put_hevc_epel_h_10_ssePsxPKhxiiiiS_
_Z30ff_hevc_put_hevc_epel_hv_8_ssePsxPKhxiiiiS_i
_Z30ff_hevc_put_hevc_epel_v_10_ssePsxPKhxiiiiS_
_Z30lumaPredMode_to_chromaPredMode13IntraPredMode19IntraChromaPredMode
_Z30motion_vectors_and_ref_indicesP12base_contextPK20slice_segment_headerP11de265_imageRK14PBMotionCodingiiiiiiiiP8PBMotion
_Z30put_unweighted_pred_8_fallbackPhxPKsxii
_Z30put_weighted_bipred_8_fallbackPhxPKsS1_xiiiiiii
_Z30transform_16x16_add_8_fallbackPhPKsx
_Z30transform_32x32_add_8_fallbackPhPKsx
_Z31decode_CABAC_FL_bypass_parallelP13CABAC_decoderi
_Z31ff_hevc_put_hevc_epel_hv_10_ssePsxPKhxiiiiS_
_Z31ff_hevc_put_hevc_qpel_h_1_8_ssePsxPKhxiiS_
_Z31ff_hevc_put_hevc_qpel_h_2_8_ssePsxPKhxiiS_
_Z31ff_hevc_put_hevc_qpel_h_3_8_ssePsxPKhxiiS_
_Z31ff_hevc_put_hevc_qpel_v_1_8_ssePsxPKhxiiS_
_Z31ff_hevc_put_hevc_qpel_v_2_8_ssePsxPKhxiiS_
_Z31ff_hevc_put_hevc_qpel_v_3_8_ssePsxPKhxiiS_
_Z31ff_hevc_put_unweighted_pred_ssePhxPKsxii
_Z31init_acceleration_functions_sseP22acceleration_functions
_Z31put_unweighted_pred_16_fallbackPtxPKsxiii
_Z31put_weighted_bipred_16_fallbackPtxPKsS1_xiiiiiiii
_Z31split_last_significant_positioniPiS_S_
_Z31transform_16x16_add_16_fallbackPtPKsxi
_Z31transform_32x32_add_16_fallbackPtPKsxi
_Z31transform_coefficients_explicitItEvP14thread_contextPsiiiPT_iii
_Z32decode_intra_prediction_internalIhEvP11de265_imageii13IntraPredModePT_iii
_Z32decode_intra_prediction_internalItEvP11de265_imageii13IntraPredModePT_iii
_Z32derive_collocated_motion_vectorsP12base_contextP11de265_imagePK20slice_segment_headeriiiiiiiP12MotionVectorPh
_Z32ff_hevc_put_hevc_qpel_h_1_10_ssePsxPKhxiiS_
_Z32ff_hevc_transform_4x4_add_8_sse4PhPKsx
_Z32ff_hevc_transform_8x8_add_8_sse4PhPKsx
_Z32ff_hevc_weighted_pred_avg_8_sse4hssssPhxPKsS1_xii
_Z32put_weighted_pred_avg_8_fallbackPhxPKsS1_xii
_Z32subblock_has_nonzero_coefficientPKsiRK8position
_Z32transform_skip_residual_fallbackPiPKsiii
_Z33decode_intra_prediction_from_treePK11de265_imagePK6enc_tbRK13CTBTreeMatrixRK17seq_parameter_seti
_Z33derive_spatial_merging_candidatesRK18MotionVectorAccessPK11de265_imageiiiiihiiiP8PBMotioni
_Z33ff_hevc_put_hevc_qpel_h_1_v_1_ssePsxPKhxiiS_
_Z33ff_hevc_put_hevc_qpel_h_1_v_2_ssePsxPKhxiiS_
_Z33ff_hevc_put_hevc_qpel_h_1_v_3_ssePsxPKhxiiS_
_Z33ff_hevc_put_hevc_qpel_h_2_v_1_ssePsxPKhxiiS_
_Z33ff_hevc_put_hevc_qpel_h_2_v_2_ssePsxPKhxiiS_
_Z33ff_hevc_put_hevc_qpel_h_2_v_3_ssePsxPKhxiiS_
_Z33ff_hevc_put_hevc_qpel_h_3_v_1_ssePsxPKhxiiS_
_Z33ff_hevc_put_hevc_qpel_h_3_v_2_ssePsxPKhxiiS_
_Z33ff_hevc_put_hevc_qpel_h_3_v_3_ssePsxPKhxiiS_
_Z33ff_hevc_put_unweighted_pred_8_ssePhxPKsxii
_Z33ff_hevc_put_weighted_pred_avg_ssePhxPKsS1_xii
_Z33generate_inter_prediction_samplesP12base_contextPK20slice_segment_headerP11de265_imageiiiiiiiPK8PBMotion
_Z33intra_prediction_sample_filteringIhEvRK17seq_parameter_setPT_ii13IntraPredMode
_Z33intra_prediction_sample_filteringItEvRK17seq_parameter_setPT_ii13IntraPredMode
_Z33put_weighted_pred_avg_16_fallbackPtxPKsS1_xiii
_Z33transform_4x4_luma_add_8_fallbackPhPKsx
_Z33transform_bypass_rdpcm_h_fallbackPiPKsi
_Z33transform_bypass_rdpcm_v_fallbackPiPKsi
_Z33transform_skip_rdpcm_h_8_fallbackPhPKsix
_Z33transform_skip_rdpcm_v_8_fallbackPhPKsix
_Z34ff_hevc_put_hevc_epel_pixels_8_ssePsxPKhxiiiiS_
_Z34ff_hevc_put_hevc_qpel_pixels_8_ssePsxPKhxiiS_
_Z34ff_hevc_transform_16x16_add_8_sse4PhPKsx
_Z34ff_hevc_transform_32x32_add_8_sse4PhPKsx
_Z34fill_luma_motion_vector_predictorsP12base_contextPK20slice_segment_headerP11de265_imageiiiiiiiiiiP12MotionVector
_Z34get_merge_candidate_list_from_treeP15encoder_contextPK20slice_segment_headeriiiiiiiiP8PBMotion
_Z34transform_4x4_luma_add_16_fallbackPtPKsxi
_Z35dump_compact_short_term_ref_pic_setPK11ref_pic_setiP6_iobuf
_Z35ff_hevc_put_hevc_epel_pixels_10_ssePsxPKhxiiiiS_
_Z35ff_hevc_put_hevc_qpel_pixels_10_ssePsxPKhxiiS_
_Z35ff_hevc_put_weighted_pred_avg_8_ssePhxPKsS1_xii
_Z35transform_bypass_rdpcm_h_8_fallbackPhPKsix
_Z35transform_bypass_rdpcm_v_8_fallbackPhPKsix
_Z35write_short_term_ref_pic_set_nopredP11error_queuePK17seq_parameter_setR13CABAC_encoderPK11ref_pic_setiRKSt6vectorIS6_SaIS6_EEb
_Z36derive_zero_motion_vector_candidatesPK20slice_segment_headerP8PBMotionPii
_Z36encode_last_signficiant_coeff_prefixP15encoder_contextP13CABAC_encoderiiii
_Z36init_acceleration_functions_fallbackP22acceleration_functions
_Z37derive_spatial_luma_vector_predictionP12base_contextP11de265_imagePK20slice_segment_headeriiiiiiiiiiPhP12MotionVector
_Z37ff_hevc_transform_4x4_luma_add_8_sse4PhPKsx
_Z38derive_temporal_luma_vector_predictionP12base_contextP11de265_imagePK20slice_segment_headeriiiiiiP12MotionVectorPh
_Z39apply_sample_adaptive_offset_sequentialP11de265_image
_Z39get_merge_candidate_list_without_step_9P12base_contextPK20slice_segment_headerRK18MotionVectorAccessP11de265_imageiiiiiiiiiP8PBMotion
_Z39initialize_CABAC_at_slice_segment_startP14thread_context
_Z3MSEPKhiS0_iii
_Z3SADPKhiS0_iii
_Z3SSDPKhiS0_iii
_Z3binii
_Z3sadPKhiS0_iii
_Z41free_significant_coeff_ctxIdx_lookupTablev
_Z42decode_intra_prediction_from_tree_internalIhEvPK11de265_imagePK6enc_tbRK13CTBTreeMatrixRK17seq_parameter_seti
_Z47derive_combined_bipredictive_merging_candidatesPK12base_contextPK20slice_segment_headerP8PBMotionPii
_Z4ExpGii
_Z4PSNRd
_Z51alloc_and_init_significant_coeff_ctxIdx_lookupTablev
_Z55alloc_and_init_significant_coeff_ctxIdx_lookupTable_OLDv
_Z5isBLAh
_Z5isCRAh
_Z5isIDRh
_Z5isRAPh
_Z6isIRAPh
_Z6isRADLh
_Z6isRASLh
_Z6log2fhP6_iobufPKcz
_Z7blamainv
_Z7fprintfP6_iobufPKcz
_Z7mc_lumaIhEvPK12base_contextPK17seq_parameter_setiiiiPsiPKT_iiii
_Z7mc_lumaItEvPK12base_contextPK17seq_parameter_setiiiiPsiPKT_iiii
_Z8MD5_InitP7MD5_CTX
_Z8add_taskP11thread_poolP11thread_task
_Z8diff_blkPsiPKhiS1_ii
_Z8dump_seiPK11sei_messagePK17seq_parameter_set
_Z8get_bitsP9bitreaderi
_Z8get_svlcP9bitreader
_Z8get_uvlcP9bitreader
_Z8print128PKcDv2_x
_Z8printBlkPKcPKhiiRKNSt7__cxx1112basic_stringIcSt11char_traitsIcESaIcEEE
_Z8printBlkPKcPKiiiRKNSt7__cxx1112basic_stringIcSt11char_traitsIcESaIcEEE
_Z8printBlkPKcPKsiiRKNSt7__cxx1112basic_stringIcSt11char_traitsIcESaIcEEE
_Z8printm32PKcPh
_Z8read_saoP14thread_contextiii
_Z8read_seiP9bitreaderP11sei_messagebPK17seq_parameter_set
_Z8scale_mvP12MotionVectorS_ii
_Z9MD5_FinalPhP7MD5_CTX
_Z9draw_linePhijiiiiiii
_Z9fill_rectPhiiiiiji
_Z9mc_chromaIhEvPK12base_contextPK17seq_parameter_setiiiiPsiPKT_iiii
_Z9mc_chromaItEvPK12base_contextPK17seq_parameter_setiiiiPsiPKT_iiii
_Z9peek_bitsP9bitreaderi
_Z9set_pixelPhiiiji
_Z9skip_bitsP9bitreaderi
_Z9tint_rectPhiiiiiji
_ZN10NAL_Parser10flush_dataEv
_ZN10NAL_Parser13free_NAL_unitEP8NAL_unit
_ZN10NAL_Parser14alloc_NAL_unitEi
_ZN10NAL_Parser17push_to_NAL_queueEP8NAL_unit
_ZN10NAL_Parser18pop_from_NAL_queueEv
_ZN10NAL_Parser25remove_pending_input_dataEv
_ZN10NAL_Parser8push_NALEPKhixPv
_ZN10NAL_Parser9push_dataEPKhixPv
_ZN10NAL_ParserC1Ev
_ZN10NAL_ParserC2Ev
_ZN10NAL_ParserD1Ev
_ZN10NAL_ParserD2Ev
_ZN10alloc_pool10delete_objEPv
_ZN10alloc_pool16add_memory_blockEv
_ZN10alloc_pool7new_objEy
_ZN10alloc_poolC1Eyib
_ZN10alloc_poolC2Eyib
_ZN10alloc_poolD1Ev
_ZN10alloc_poolD2Ev
_ZN10image_data12set_NAL_typeEh
_ZN10image_data14set_referencesEiRKSt6vectorIiSaIiEES4_S4_S4_
_ZN10image_data17set_skip_priorityEi
_ZN10image_data19set_NAL_temporal_idEi
_ZN10image_data9set_intraEv
_ZN10image_dataC1Ev
_ZN10image_dataC2Ev
_ZN10image_dataD1Ev
_ZN10image_dataD2Ev
_ZN10image_unitC1Ev
_ZN10image_unitC2Ev
_ZN10image_unitD1Ev
_ZN10image_unitD2Ev
_ZN10nal_header4readEP9bitreader
_ZN10option_int23processCmdLineArgumentsEPPcPii
_ZN10option_int9set_rangeEii
_ZN10option_intD0Ev
_ZN10option_intD1Ev
_ZN10slice_unit24allocate_thread_contextsEi
_ZN10slice_unitC1EP15decoder_context
_ZN10slice_unitC2EP15decoder_context
_ZN10slice_unitD1Ev
_ZN10slice_unitD2Ev
_ZN11ImageSourceC1Ev
_ZN11ImageSourceC2Ev
_ZN11de265_image10copy_imageEPKS_
_ZN11de265_image10fill_imageEiii
_ZN11de265_image10thread_runEPK11thread_task
_ZN11de265_image11alloc_imageEii12de265_chromaSt10shared_ptrIK17seq_parameter_setEbP15decoder_contextxPvb
_ZN11de265_image11set_mv_infoEiiiiRK8PBMotion
_ZN11de265_image12thread_startEi
_ZN11de265_image13thread_blocksEv
_ZN11de265_image14clear_metadataEv
_ZN11de265_image15copy_lines_fromEPKS_ii
_ZN11de265_image15s_next_image_IDE DATA
_ZN11de265_image15set_image_planeEiPhiPv
_ZN11de265_image15thread_finishesEPK11thread_task
_ZN11de265_image15thread_unblocksEv
_ZN11de265_image17wait_for_progressEP11thread_taskii
_ZN11de265_image17wait_for_progressEP11thread_taskiii
_ZN11de265_image19wait_for_completionEv
_ZN11de265_image24default_image_allocationE DATA
_ZN11de265_image24exchange_pixel_data_withERS_
_ZN11de265_image7releaseEv
_ZN11de265_imageC1Ev
_ZN11de265_imageC2Ev
_ZN11de265_imageD1Ev
_ZN11de265_imageD2Ev
_ZN11error_queue11add_warningE11de265_errorb
_ZN11error_queue11get_warningEv
_ZN11error_queueC1Ev
_ZN11error_queueC2Ev
_ZN11option_base23processCmdLineArgumentsEPPcPii
_ZN11ref_pic_set22compute_derived_valuesEv
_ZN11ref_pic_set5resetEv
_ZN11sop_creator20insert_end_of_streamEv
_ZN12CodingOptionI6enc_cbE11get_contextEv
_ZN12CodingOptionI6enc_cbE12set_rdo_costEf
_ZN12CodingOptionI6enc_cbE3endEv
_ZN12CodingOptionI6enc_cbE5beginEv
_ZN12CodingOptionI6enc_cbE8get_nodeEv
_ZN12CodingOptionI6enc_cbE8set_nodeEPS0_
_ZN12CodingOptionI6enc_cbE9get_cabacEv
_ZN12CodingOptionI6enc_cbEC1EP13CodingOptionsIS0_Ei
_ZN12CodingOptionI6enc_cbEC1Ev
_ZN12CodingOptionI6enc_cbEC2EP13CodingOptionsIS0_Ei
_ZN12CodingOptionI6enc_cbEC2Ev
_ZN12CodingOptionI6enc_tbE11get_contextEv
_ZN12CodingOptionI6enc_tbE12set_rdo_costEf
_ZN12CodingOptionI6enc_tbE3endEv
_ZN12CodingOptionI6enc_tbE5beginEv
_ZN12CodingOptionI6enc_tbE8get_nodeEv
_ZN12CodingOptionI6enc_tbE8set_nodeEPS0_
_ZN12CodingOptionI6enc_tbE9get_cabacEv
_ZN12CodingOptionI6enc_tbEC1EP13CodingOptionsIS0_Ei
_ZN12CodingOptionI6enc_tbEC1Ev
_ZN12CodingOptionI6enc_tbEC2EP13CodingOptionsIS0_Ei
_ZN12CodingOptionI6enc_tbEC2Ev
_ZN12base_context26set_acceleration_functionsE18de265_acceleration
_ZN12base_contextC1Ev
_ZN12base_contextC2Ev
_ZN12profile_data12set_defaultsE11profile_idcii
_ZN12profile_data4readEP9bitreader
_ZN13Algo_CB_Split15encode_cb_splitEP15encoder_contextR19context_model_tableP6enc_cb
_ZN13Algo_TB_Split27encode_transform_tree_splitEP15encoder_contextR19context_model_tablePK11de265_imageP6enc_tbP6enc_cbiii
_ZN13CABAC_encoder10init_CABACEv
_ZN13CABAC_encoder10write_svlcEi
_ZN13CABAC_encoder10write_uvlcEi
_ZN13CABAC_encoder11flush_CABACEv
_ZN13CABAC_encoder15write_CABAC_EGkEii
_ZN13CABAC_encoder17add_trailing_bitsEv
_ZN13CABAC_encoder20RDBits_for_CABAC_binEii
_ZN13CABAC_encoder21write_CABAC_FL_bypassEii
_ZN13CABAC_encoder21write_CABAC_TU_bypassEii
_ZN13CABAC_encoder9flush_VLCEv
_ZN13CABAC_encoder9write_bitEi
_ZN13CTBTreeMatrix5allocEiii
_ZN13CodingOptionsI6enc_cbE10new_optionEb
_ZN13CodingOptionsI6enc_cbE17compute_rdo_costsEv
_ZN13CodingOptionsI6enc_cbE19find_best_rdo_indexEv
_ZN13CodingOptionsI6enc_cbE20return_best_rdo_nodeEv
_ZN13CodingOptionsI6enc_cbE5startENS1_20RateEstimationMethodE
_ZN13CodingOptionsI6enc_cbEC1EP15encoder_contextPS0_R19context_model_table
_ZN13CodingOptionsI6enc_cbEC2EP15encoder_contextPS0_R19context_model_table
_ZN13CodingOptionsI6enc_cbED1Ev
_ZN13CodingOptionsI6enc_cbED2Ev
_ZN13CodingOptionsI6enc_tbE10new_optionEb
_ZN13CodingOptionsI6enc_tbE17compute_rdo_costsEv
_ZN13CodingOptionsI6enc_tbE19find_best_rdo_indexEv
_ZN13CodingOptionsI6enc_tbE20return_best_rdo_nodeEv
_ZN13CodingOptionsI6enc_tbE5startENS1_20RateEstimationMethodE
_ZN13CodingOptionsI6enc_tbEC1EP15encoder_contextPS0_R19context_model_table
_ZN13CodingOptionsI6enc_tbEC2EP15encoder_contextPS0_R19context_model_table
_ZN13CodingOptionsI6enc_tbED1Ev
_ZN13CodingOptionsI6enc_tbED2Ev
_ZN13ImageSink_YUV10send_imageEPK11de265_image
_ZN13ImageSink_YUV12set_filenameEPKc
_ZN13ImageSink_YUVD0Ev
_ZN13ImageSink_YUVD1Ev
_ZN13ImageSink_YUVD2Ev
_ZN13PixelAccessor13copyFromImageEPK11de265_imagei
_ZN13choice_optionI10MVTestModeE9set_valueERKNSt7__cxx1112basic_stringIcSt11char_traitsIcESaIcEEE
_ZN13choice_optionI10MVTestModeED0Ev
_ZN13choice_optionI10MVTestModeED1Ev
_ZN13choice_optionI10MVTestModeED2Ev
_ZN13choice_optionI12MVSearchAlgoE9set_valueERKNSt7__cxx1112basic_stringIcSt11char_traitsIcESaIcEEE
_ZN13choice_optionI12MVSearchAlgoED0Ev
_ZN13choice_optionI12MVSearchAlgoED1Ev
_ZN13choice_optionI12MVSearchAlgoED2Ev
_ZN13choice_optionI13SOP_StructureE9set_valueERKNSt7__cxx1112basic_stringIcSt11char_traitsIcESaIcEEE
_ZN13choice_optionI13SOP_StructureED0Ev
_ZN13choice_optionI13SOP_StructureED1Ev
_ZN13choice_optionI13SOP_StructureED2Ev
_ZN13choice_optionI20TBBitrateEstimMethodE9set_valueERKNSt7__cxx1112basic_stringIcSt11char_traitsIcESaIcEEE
_ZN13choice_optionI20TBBitrateEstimMethodED0Ev
_ZN13choice_optionI20TBBitrateEstimMethodED1Ev
_ZN13choice_optionI20TBBitrateEstimMethodED2Ev
_ZN13choice_optionI21ALGO_CB_IntraPartModeE9set_valueERKNSt7__cxx1112basic_stringIcSt11char_traitsIcESaIcEEE
_ZN13choice_optionI21ALGO_CB_IntraPartModeED0Ev
_ZN13choice_optionI21ALGO_CB_IntraPartModeED1Ev
_ZN13choice_optionI21ALGO_CB_IntraPartModeED2Ev
_ZN13choice_optionI21ALGO_TB_IntraPredModeE9set_valueERKNSt7__cxx1112basic_stringIcSt11char_traitsIcESaIcEEE
_ZN13choice_optionI21ALGO_TB_IntraPredModeED0Ev
_ZN13choice_optionI21ALGO_TB_IntraPredModeED1Ev
_ZN13choice_optionI21ALGO_TB_IntraPredModeED2Ev
_ZN13choice_optionI22ALGO_TB_RateEstimationE9set_valueERKNSt7__cxx1112basic_stringIcSt11char_traitsIcESaIcEEE
_ZN13choice_optionI22ALGO_TB_RateEstimationED0Ev
_ZN13choice_optionI22ALGO_TB_RateEstimationED1Ev
_ZN13choice_optionI22ALGO_TB_RateEstimationED2Ev
_ZN13choice_optionI28ALGO_TB_IntraPredMode_SubsetE9set_valueERKNSt7__cxx1112basic_stringIcSt11char_traitsIcESaIcEEE
_ZN13choice_optionI28ALGO_TB_IntraPredMode_SubsetED0Ev
_ZN13choice_optionI28ALGO_TB_IntraPredMode_SubsetED1Ev
_ZN13choice_optionI28ALGO_TB_IntraPredMode_SubsetED2Ev
_ZN13choice_optionI39ALGO_TB_Split_BruteForce_ZeroBlockPruneE9set_valueERKNSt7__cxx1112basic_stringIcSt11char_traitsIcESaIcEEE
_ZN13choice_optionI39ALGO_TB_Split_BruteForce_ZeroBlockPruneED0Ev
_ZN13choice_optionI39ALGO_TB_Split_BruteForce_ZeroBlockPruneED1Ev
_ZN13choice_optionI39ALGO_TB_Split_BruteForce_ZeroBlockPruneED2Ev
_ZN13choice_optionI6MEModeE9set_valueERKNSt7__cxx1112basic_stringIcSt11char_traitsIcESaIcEEE
_ZN13choice_optionI6MEModeED0Ev
_ZN13choice_optionI6MEModeED1Ev
_ZN13choice_optionI6MEModeED2Ev
_ZN13choice_optionI8PartModeE9set_valueERKNSt7__cxx1112basic_stringIcSt11char_traitsIcESaIcEEE
_ZN13choice_optionI8PartModeED0Ev
_ZN13choice_optionI8PartModeED1Ev
_ZN13choice_optionI8PartModeED2Ev
_ZN13option_MEModeD0Ev
_ZN13option_MEModeD1Ev
_ZN13option_string23processCmdLineArgumentsEPPcPii
_ZN13option_stringD0Ev
_ZN13option_stringD1Ev
_ZN13raw_hash_data12prepare_8bitEPKhi
_ZN13raw_hash_data13prepare_16bitEPKhi
_ZN13raw_hash_dataC1Eii
_ZN13raw_hash_dataC2Eii
_ZN13raw_hash_dataD1Ev
_ZN13raw_hash_dataD2Ev
_ZN14encoder_params14registerParamsER17config_parameters
_ZN14encoder_paramsC1Ev
_ZN14encoder_paramsC2Ev
_ZN14encoder_paramsD1Ev
_ZN14thread_contextC1Ev
_ZN14thread_contextC2Ev
_ZN15Algo_PB_MV_Test7analyzeEP15encoder_contextR19context_model_tableP6enc_cbiiiii
_ZN15Algo_PB_MV_TestD0Ev
_ZN15Algo_PB_MV_TestD1Ev
_ZN15ImageSource_YUV11skip_framesEi
_ZN15ImageSource_YUV14set_input_fileEPKcii
_ZN15ImageSource_YUV15read_next_imageEv
_ZN15ImageSource_YUV9get_imageEb
_ZN15ImageSource_YUVC1Ev
_ZN15ImageSource_YUVC2Ev
_ZN15ImageSource_YUVD0Ev
_ZN15ImageSource_YUVD1Ev
_ZN15ImageSource_YUVD2Ev
_ZN15PacketSink_File11send_packetEPKhi
_ZN15PacketSink_File12set_filenameEPKc
_ZN15PacketSink_FileC1Ev
_ZN15PacketSink_FileC2Ev
_ZN15PacketSink_FileD0Ev
_ZN15PacketSink_FileD1Ev
_ZN15PacketSink_FileD2Ev
_ZN15decoder_context10decode_NALEP8NAL_unit
_ZN15decoder_context11decode_someEPb
_ZN15decoder_context12read_eos_NALER9bitreader
_ZN15decoder_context12read_pps_NALER9bitreader
_ZN15decoder_context12read_sei_NALER9bitreaderb
_ZN15decoder_context12read_sps_NALER9bitreader
_ZN15decoder_context12read_vps_NALER9bitreader
_ZN15decoder_context13set_limit_TIDEi
_ZN15decoder_context14read_slice_NALER9bitreaderP8NAL_unitR10nal_header
_ZN15decoder_context15process_nal_hdrEP10nal_header
_ZN15decoder_context16change_framerateEi
_ZN15decoder_context16stop_thread_poolEv
_ZN15decoder_context17start_thread_poolEi
_ZN15decoder_context19init_thread_contextEP14thread_context
_ZN15decoder_context19set_framerate_ratioEi
_ZN15decoder_context21decode_slice_unit_WPPEP10image_unitP10slice_unit
_ZN15decoder_context22remove_images_from_dpbERKSt6vectorIiSaIiEE
_ZN15decoder_context23add_task_decode_CTB_rowEP14thread_contextbi
_ZN15decoder_context23compute_framedrop_tableEv
_ZN15decoder_context23decode_slice_unit_tilesEP10image_unitP10slice_unit
_ZN15decoder_context26decode_slice_unit_parallelEP10image_unitP10slice_unit
_ZN15decoder_context27process_picture_order_countEP20slice_segment_header
_ZN15decoder_context28calc_tid_and_framerate_ratioEv
_ZN15decoder_context28decode_slice_unit_sequentialEP10image_unitP10slice_unit
_ZN15decoder_context28process_slice_segment_headerEP20slice_segment_headerP11de265_errorxP10nal_headerPv
_ZN15decoder_context28push_picture_to_output_queueEP10image_unit
_ZN15decoder_context29add_task_decode_slice_segmentEP14thread_contextbii
_ZN15decoder_context29mark_whole_slice_as_processedEP10image_unitP10slice_uniti
_ZN15decoder_context29process_reference_picture_setEP20slice_segment_header
_ZN15decoder_context30set_image_allocation_functionsEP22de265_image_allocationPv
_ZN15decoder_context33construct_reference_picture_listsEP20slice_segment_header
_ZN15decoder_context35run_postprocessing_filters_parallelEP10image_unit
_ZN15decoder_context37run_postprocessing_filters_sequentialEP11de265_image
_ZN15decoder_context38generate_unavailable_reference_pictureEPK17seq_parameter_setib
_ZN15decoder_context5resetEv
_ZN15decoder_context6decodeEPi
_ZN15decoder_contextC1Ev
_ZN15decoder_contextC2Ev
_ZN15decoder_contextD0Ev
_ZN15decoder_contextD1Ev
_ZN15decoder_contextD2Ev
_ZN15encoder_context13create_packetE25en265_packet_content_type
_ZN15encoder_context13start_encoderEv
_ZN15encoder_context14encode_headersEv
_ZN15encoder_context32encode_picture_from_input_bufferEv
_ZN15encoder_contextC1Ev
_ZN15encoder_contextC2Ev
_ZN15encoder_contextD0Ev
_ZN15encoder_contextD1Ev
_ZN15encoder_contextD2Ev
_ZN15option_PartModeD0Ev
_ZN15option_PartModeD1Ev
_ZN15thread_task_sao4workEv
_ZN15thread_task_saoD0Ev
_ZN15thread_task_saoD1Ev
_ZN16Logging_TB_Split5printEPK15encoder_contextPKc
_ZN16Logging_TB_SplitD0Ev
_ZN16Logging_TB_SplitD1Ev
_ZN17Algo_PB_MV_Search6paramsD1Ev
_ZN17Algo_PB_MV_Search7analyzeEP15encoder_contextR19context_model_tableP6enc_cbiiiii
_ZN17Algo_PB_MV_SearchD0Ev
_ZN17Algo_PB_MV_SearchD1Ev
_ZN17Algo_TB_Transform7analyzeEP15encoder_contextR19context_model_tablePK11de265_imageP6enc_tbiii
_ZN17Algo_TB_TransformD0Ev
_ZN17Algo_TB_TransformD1Ev
_ZN17config_parameters10add_optionEP11option_base
_ZN17config_parameters10set_choiceEPKcS1_
_ZN17config_parameters10set_stringEPKcS1_
_ZN17config_parameters25parse_command_line_paramsEPiPPcS0_b
_ZN17config_parameters7set_intEPKci
_ZN17config_parameters8set_boolEPKcb
_ZN17option_MVTestModeD0Ev
_ZN17option_MVTestModeD1Ev
_ZN17pic_parameter_set12set_defaultsE9PresetSet
_ZN17pic_parameter_set18set_derived_valuesEPK17seq_parameter_set
_ZN17pic_parameter_set4readEP9bitreaderP15decoder_context
_ZN17pic_parameter_set5writeEP11error_queueR13CABAC_encoderPK17seq_parameter_set
_ZN17pic_parameter_setC1Ev
_ZN17pic_parameter_setC2Ev
_ZN17pic_parameter_setD1Ev
_ZN17pic_parameter_setD2Ev
_ZN17seq_parameter_set12set_defaultsE9PresetSet
_ZN17seq_parameter_set14set_resolutionEii
_ZN17seq_parameter_set21set_CB_log2size_rangeEii
_ZN17seq_parameter_set21set_TB_log2size_rangeEii
_ZN17seq_parameter_set22compute_derived_valuesEb
_ZN17seq_parameter_set4readEP11error_queueP9bitreader
_ZN17seq_parameter_set5writeEP11error_queueR13CABAC_encoder
_ZN17seq_parameter_setC1Ev
_ZN17seq_parameter_setC2Ev
_ZN17seq_parameter_setD1Ev
_ZN17seq_parameter_setD2Ev
_ZN18EncoderCore_Custom16getAlgoCTBQScaleEv
_ZN18EncoderCore_Custom9setParamsER14encoder_params
_ZN18EncoderCore_CustomD0Ev
_ZN18EncoderCore_CustomD1Ev
_ZN18choice_option_base23processCmdLineArgumentsEPPcPii
_ZN18profile_tier_level4readEP9bitreaderi
_ZN18small_image_bufferC1Eii
_ZN18small_image_bufferC2Eii
_ZN18small_image_bufferD1Ev
_ZN18small_image_bufferD2Ev
_ZN19CABAC_encoder_estim10write_bitsEji
_ZN19CABAC_encoder_estim15write_CABAC_bitEii
_ZN19CABAC_encoder_estim15write_startcodeEv
_ZN19CABAC_encoder_estim18write_CABAC_bypassEi
_ZN19CABAC_encoder_estim20write_CABAC_term_bitEi
_ZN19CABAC_encoder_estim21write_CABAC_FL_bypassEii
_ZN19CABAC_encoder_estim5resetEv
_ZN19CABAC_encoder_estim9skip_bitsEi
_ZN19CABAC_encoder_estim9write_bitEi
_ZN19CABAC_encoder_estimD0Ev
_ZN19CABAC_encoder_estimD1Ev
_ZN19context_model_table33decouple_or_alloc_with_empty_dataEv
_ZN19context_model_table4initEii
_ZN19context_model_table7releaseEv
_ZN19context_model_table8decoupleEv
_ZN19context_model_table8transferEv
_ZN19context_model_tableC1ERKS_
_ZN19context_model_tableC1Ev
_ZN19context_model_tableC2ERKS_
_ZN19context_model_tableC2Ev
_ZN19context_model_tableD1Ev
_ZN19context_model_tableD2Ev
_ZN19context_model_tableaSERKS_
_ZN19de265_progress_lock12set_progressEi
_ZN19de265_progress_lock17increase_progressEi
_ZN19de265_progress_lock17wait_for_progressEi
_ZN19de265_progress_lockC1Ev
_ZN19de265_progress_lockC2Ev
_ZN19de265_progress_lockD1Ev
_ZN19de265_progress_lockD2Ev
_ZN19option_MVSearchAlgoD0Ev
_ZN19option_MVSearchAlgoD1Ev
_ZN19pps_range_extension4readEP9bitreaderP15decoder_contextPK17pic_parameter_set
_ZN19pps_range_extension5resetEv
_ZN19sps_range_extension4readEP11error_queueP9bitreader
_ZN19sps_range_extensionC1Ev
_ZN19sps_range_extensionC2Ev
_ZN19thread_task_ctb_row4workEv
_ZN19thread_task_ctb_rowD0Ev
_ZN19thread_task_ctb_rowD1Ev
_ZN19video_parameter_set12set_defaultsE11profile_idcii
_ZN19video_parameter_set4readEP11error_queueP9bitreader
_ZN20option_InterPartModeD0Ev
_ZN20option_InterPartModeD1Ev
_ZN20option_SOP_StructureD0Ev
_ZN20option_SOP_StructureD1Ev
_ZN20slice_segment_header12set_defaultsEv
_ZN20slice_segment_header22compute_derived_valuesEPK17pic_parameter_set
_ZN20slice_segment_header4readEP9bitreaderP15decoder_contextPb
_ZN20slice_segment_header5resetEv
_ZN20slice_segment_header5writeEP11error_queueR13CABAC_encoderPK17seq_parameter_setPK17pic_parameter_seth
_ZN21Algo_CB_InterPartMode10codeAllPBsEP15encoder_contextR19context_model_tableP6enc_cb
_ZN21intra_border_computerIhE29reference_sample_substitutionEv
_ZN21intra_border_computerIhE7preprocEv
_ZN21intra_border_computerItE15fill_from_imageEv
_ZN21intra_border_computerItE29reference_sample_substitutionEv
_ZN21intra_border_computerItE7preprocEv
_ZN22decoded_picture_buffer20flush_reorder_bufferEv
_ZN22decoded_picture_buffer32pop_next_picture_in_output_queueEv
_ZN22decoded_picture_buffer37output_next_picture_in_reorder_bufferEv
_ZN22decoded_picture_buffer5clearEv
_ZN22decoded_picture_buffer9new_imageESt10shared_ptrIK17seq_parameter_setEP15decoder_contextxPvb
_ZN22decoded_picture_bufferC1Ev
_ZN22decoded_picture_bufferC2Ev
_ZN22decoded_picture_bufferD1Ev
_ZN22decoded_picture_bufferD2Ev
_ZN22encoder_picture_buffer11get_pictureEi
_ZN22encoder_picture_buffer12flush_imagesEv
_ZN22encoder_picture_buffer19release_input_imageEi
_ZN22encoder_picture_buffer19sop_metadata_commitEi
_ZN22encoder_picture_buffer20insert_end_of_streamEv
_ZN22encoder_picture_buffer20set_prediction_imageEiP11de265_image
_ZN22encoder_picture_buffer21mark_encoding_startedEi
_ZN22encoder_picture_buffer22mark_encoding_finishedEi
_ZN22encoder_picture_buffer23mark_image_is_outputtedEi
_ZN22encoder_picture_buffer24set_reconstruction_imageEiP11de265_image
_ZN22encoder_picture_buffer26get_next_picture_to_encodeEv
_ZN22encoder_picture_buffer35insert_next_image_in_encoding_orderEPK11de265_imagei
_ZN22encoder_picture_buffer5resetEv
_ZN22encoder_picture_bufferC1Ev
_ZN22encoder_picture_bufferC2Ev
_ZN22encoder_picture_bufferD1Ev
_ZN22encoder_picture_bufferD2Ev
_ZN22sop_creator_intra_only21set_SPS_header_valuesEv
_ZN22sop_creator_intra_only22insert_new_input_imageEP11de265_image
_ZN22sop_creator_intra_onlyC1Ev
_ZN22sop_creator_intra_onlyC2Ev
_ZN22sop_creator_intra_onlyD0Ev
_ZN22sop_creator_intra_onlyD1Ev
_ZN23Algo_CB_Skip_BruteForce7analyzeEP15encoder_contextR19context_model_tableP6enc_cb
_ZN23Algo_CB_Skip_BruteForceD0Ev
_ZN23Algo_CB_Skip_BruteForceD1Ev
_ZN23CABAC_encoder_bitstream10init_CABACEv
_ZN23CABAC_encoder_bitstream10write_bitsEji
_ZN23CABAC_encoder_bitstream11append_byteEi
_ZN23CABAC_encoder_bitstream11flush_CABACEv
_ZN23CABAC_encoder_bitstream15testAndWriteOutEv
_ZN23CABAC_encoder_bitstream15write_CABAC_bitEii
_ZN23CABAC_encoder_bitstream15write_startcodeEv
_ZN23CABAC_encoder_bitstream18write_CABAC_bypassEi
_ZN23CABAC_encoder_bitstream20write_CABAC_term_bitEi
_ZN23CABAC_encoder_bitstream21check_size_and_resizeEi
_ZN23CABAC_encoder_bitstream5resetEv
_ZN23CABAC_encoder_bitstream9flush_VLCEv
_ZN23CABAC_encoder_bitstream9skip_bitsEi
_ZN23CABAC_encoder_bitstream9write_outEv
_ZN23CABAC_encoder_bitstreamC1Ev
_ZN23CABAC_encoder_bitstreamC2Ev
_ZN23CABAC_encoder_bitstreamD0Ev
_ZN23CABAC_encoder_bitstreamD1Ev
_ZN23CABAC_encoder_bitstreamD2Ev
_ZN24Algo_CB_MergeIndex_Fixed7analyzeEP15encoder_contextR19context_model_tableP6enc_cb
_ZN24Algo_CB_MergeIndex_FixedD0Ev
_ZN24Algo_CB_MergeIndex_FixedD1Ev
_ZN24Algo_CB_Split_BruteForce7analyzeEP15encoder_contextR19context_model_tableP6enc_cb
_ZN24Algo_CB_Split_BruteForceD0Ev
_ZN24Algo_CB_Split_BruteForceD1Ev
_ZN24Algo_CTB_QScale_Constant7analyzeEP15encoder_contextR19context_model_tableii
_ZN24Algo_CTB_QScale_ConstantD0Ev
_ZN24Algo_CTB_QScale_ConstantD1Ev
_ZN24Algo_TB_Split_BruteForce7analyzeEP15encoder_contextR19context_model_tablePK11de265_imageP6enc_tbiii
_ZN24Algo_TB_Split_BruteForceD0Ev
_ZN24Algo_TB_Split_BruteForceD1Ev
_ZN25thread_task_slice_segment4workEv
_ZN25thread_task_slice_segmentD0Ev
_ZN25thread_task_slice_segmentD1Ev
_ZN26thread_task_deblock_CTBRow4workEv
_ZN26thread_task_deblock_CTBRowD0Ev
_ZN26thread_task_deblock_CTBRowD1Ev
_ZN27Algo_CB_InterPartMode_Fixed7analyzeEP15encoder_contextR19context_model_tableP6enc_cb
_ZN27Algo_CB_InterPartMode_FixedD0Ev
_ZN27Algo_CB_InterPartMode_FixedD1Ev
_ZN27Algo_CB_IntraPartMode_Fixed7analyzeEP15encoder_contextR19context_model_tableP6enc_cb
_ZN27Algo_CB_IntraPartMode_FixedD0Ev
_ZN27Algo_CB_IntraPartMode_FixedD1Ev
_ZN27Algo_TB_RateEstimation_None21encode_transform_unitEP15encoder_contextR19context_model_tablePK6enc_tbPK6enc_cbiiiiiii
_ZN27Algo_TB_RateEstimation_NoneD0Ev
_ZN27Algo_TB_RateEstimation_NoneD1Ev
_ZN27option_TBBitrateEstimMethodC1Ev
_ZN27option_TBBitrateEstimMethodD0Ev
_ZN27option_TBBitrateEstimMethodD1Ev
_ZN27video_usability_information4readEP11error_queueP9bitreaderPK17seq_parameter_set
_ZN27video_usability_informationC1Ev
_ZN27video_usability_informationC2Ev
_ZN28Algo_TB_RateEstimation_Exact21encode_transform_unitEP15encoder_contextR19context_model_tablePK6enc_tbPK6enc_cbiiiiiii
_ZN28Algo_TB_RateEstimation_ExactD0Ev
_ZN28Algo_TB_RateEstimation_ExactD1Ev
_ZN28CABAC_encoder_estim_constant15write_CABAC_bitEii
_ZN28CABAC_encoder_estim_constantD0Ev
_ZN28CABAC_encoder_estim_constantD1Ev
_ZN28option_ALGO_CB_IntraPartModeD0Ev
_ZN28option_ALGO_CB_IntraPartModeD1Ev
_ZN28option_ALGO_TB_IntraPredModeD0Ev
_ZN28option_ALGO_TB_IntraPredModeD1Ev
_ZN29Algo_CB_IntraInter_BruteForce7analyzeEP15encoder_contextR19context_model_tableP6enc_cb
_ZN29Algo_CB_IntraInter_BruteForceD0Ev
_ZN29Algo_CB_IntraInter_BruteForceD1Ev
_ZN29intra_border_computer_ctbtreeIhE17fill_from_ctbtreeEPK6enc_tbRK13CTBTreeMatrix
_ZN29option_ALGO_TB_RateEstimationD0Ev
_ZN29option_ALGO_TB_RateEstimationD1Ev
_ZN29sop_creator_trivial_low_delay21set_SPS_header_valuesEv
_ZN29sop_creator_trivial_low_delay22insert_new_input_imageEP11de265_image
_ZN29sop_creator_trivial_low_delayC1Ev
_ZN29sop_creator_trivial_low_delayC2Ev
_ZN29sop_creator_trivial_low_delayD0Ev
_ZN29sop_creator_trivial_low_delayD1Ev
_ZN31Algo_TB_IntraPredMode_FastBrute7analyzeEP15encoder_contextR19context_model_tablePK11de265_imageP6enc_tbiii
_ZN31Algo_TB_IntraPredMode_FastBruteD0Ev
_ZN31Algo_TB_IntraPredMode_FastBruteD1Ev
_ZN32Algo_CB_IntraPartMode_BruteForce7analyzeEP15encoder_contextR19context_model_tableP6enc_cb
_ZN32Algo_CB_IntraPartMode_BruteForceD0Ev
_ZN32Algo_CB_IntraPartMode_BruteForceD1Ev
_ZN32Algo_TB_IntraPredMode_BruteForce7analyzeEP15encoder_contextR19context_model_tablePK11de265_imageP6enc_tbiii
_ZN32Algo_TB_IntraPredMode_BruteForceD0Ev
_ZN32Algo_TB_IntraPredMode_BruteForceD1Ev
_ZN33Algo_TB_IntraPredMode_MinResidual7analyzeEP15encoder_contextR19context_model_tablePK11de265_imageP6enc_tbiii
_ZN33Algo_TB_IntraPredMode_MinResidualD0Ev
_ZN33Algo_TB_IntraPredMode_MinResidualD1Ev
_ZN35option_ALGO_TB_IntraPredMode_SubsetD0Ev
_ZN35option_ALGO_TB_IntraPredMode_SubsetD1Ev
_ZN46option_ALGO_TB_Split_BruteForce_ZeroBlockPruneD0Ev
_ZN46option_ALGO_TB_Split_BruteForce_ZeroBlockPruneD1Ev
_ZN6enc_cb33set_rqt_root_bf_from_children_cbfEv
_ZN6enc_cb8mMemPoolE DATA
_ZN6enc_cbC1Ev
_ZN6enc_cbC2Ev
_ZN6enc_cbD0Ev
_ZN6enc_cbD1Ev
_ZN6enc_cbD2Ev
_ZN6enc_tb18alloc_coeff_memoryEii
_ZN6enc_tb27set_cbf_flags_from_childrenEv
_ZN6enc_tb8mMemPoolE DATA
_ZN6enc_tb9getPixelsEiiiRK17seq_parameter_set
_ZN6enc_tbC1EiiiP6enc_cb
_ZN6enc_tbC2EiiiP6enc_cb
_ZN6enc_tbD0Ev
_ZN6enc_tbD1Ev
_ZN6enc_tbD2Ev
_ZN7Logging13print_loggingEPK15encoder_contextPKcS4_
_ZN8NAL_unit19insert_skipped_byteEi
_ZN8NAL_unit21remove_stuffing_bytesEv
_ZN8NAL_unit5clearEv
_ZN8NAL_unit6appendEPKhi
_ZN8NAL_unit6resizeEi
_ZN8NAL_unit8set_dataEPKhi
_ZN8NAL_unitC1Ev
_ZN8NAL_unitC2Ev
_ZN8NAL_unitD1Ev
_ZN8NAL_unitD2Ev
_ZNK10nal_header5writeER13CABAC_encoder
_ZNK10option_int10is_definedEv
_ZNK10option_int11has_defaultEv
_ZNK10option_int12getTypeDescrB5cxx11Ev
_ZNK10option_int18get_default_stringB5cxx11Ev
_ZNK10option_int8is_validEi
_ZNK11EncoderCore16getSlice_QPDeltaEv
_ZNK11de265_image15available_zscanEiiii
_ZNK11de265_image18available_pred_blkEiiiiiiiiii
_ZNK11de265_image18debug_is_completedEv
_ZNK11option_base18get_default_stringB5cxx11Ev
_ZNK11sop_creator29get_number_of_temporal_layersEv
_ZNK12CodingOptionI6enc_cbE14get_cabac_rateEv
_ZNK12CodingOptionI6enc_cbEcvbEv
_ZNK12CodingOptionI6enc_tbE14get_cabac_rateEv
_ZNK12CodingOptionI6enc_tbEcvbEv
_ZNK12profile_data4dumpEbP6_iobuf
_ZNK12profile_data5writeER13CABAC_encoder
_ZNK13CTBTreeMatrix26writeReconstructionToImageEP11de265_imagePK17seq_parameter_set
_ZNK13CTBTreeMatrix5getCBEii
_ZNK13CTBTreeMatrix5getPBEii
_ZNK13CTBTreeMatrix5getTBEii
_ZNK13PixelAccessor11copyToImageEP11de265_imagei
_ZNK13choice_optionI10MVTestModeE10is_definedEv
_ZNK13choice_optionI10MVTestModeE11has_defaultEv
_ZNK13choice_optionI10MVTestModeE16get_choice_namesB5cxx11Ev
_ZNK13choice_optionI10MVTestModeE18get_default_stringB5cxx11Ev
_ZNK13choice_optionI12MVSearchAlgoE10is_definedEv
_ZNK13choice_optionI12MVSearchAlgoE11has_defaultEv
_ZNK13choice_optionI12MVSearchAlgoE16get_choice_namesB5cxx11Ev
_ZNK13choice_optionI12MVSearchAlgoE18get_default_stringB5cxx11Ev
_ZNK13choice_optionI13SOP_StructureE10is_definedEv
_ZNK13choice_optionI13SOP_StructureE11has_defaultEv
_ZNK13choice_optionI13SOP_StructureE16get_choice_namesB5cxx11Ev
_ZNK13choice_optionI13SOP_StructureE18get_default_stringB5cxx11Ev
_ZNK13choice_optionI20TBBitrateEstimMethodE10is_definedEv
_ZNK13choice_optionI20TBBitrateEstimMethodE11has_defaultEv
_ZNK13choice_optionI20TBBitrateEstimMethodE16get_choice_namesB5cxx11Ev
_ZNK13choice_optionI20TBBitrateEstimMethodE18get_default_stringB5cxx11Ev
_ZNK13choice_optionI21ALGO_CB_IntraPartModeE10is_definedEv
_ZNK13choice_optionI21ALGO_CB_IntraPartModeE11has_defaultEv
_ZNK13choice_optionI21ALGO_CB_IntraPartModeE16get_choice_namesB5cxx11Ev
_ZNK13choice_optionI21ALGO_CB_IntraPartModeE18get_default_stringB5cxx11Ev
_ZNK13choice_optionI21ALGO_TB_IntraPredModeE10is_definedEv
_ZNK13choice_optionI21ALGO_TB_IntraPredModeE11has_defaultEv
_ZNK13choice_optionI21ALGO_TB_IntraPredModeE16get_choice_namesB5cxx11Ev
_ZNK13choice_optionI21ALGO_TB_IntraPredModeE18get_default_stringB5cxx11Ev
_ZNK13choice_optionI22ALGO_TB_RateEstimationE10is_definedEv
_ZNK13choice_optionI22ALGO_TB_RateEstimationE11has_defaultEv
_ZNK13choice_optionI22ALGO_TB_RateEstimationE16get_choice_namesB5cxx11Ev
_ZNK13choice_optionI22ALGO_TB_RateEstimationE18get_default_stringB5cxx11Ev
_ZNK13choice_optionI28ALGO_TB_IntraPredMode_SubsetE10is_definedEv
_ZNK13choice_optionI28ALGO_TB_IntraPredMode_SubsetE11has_defaultEv
_ZNK13choice_optionI28ALGO_TB_IntraPredMode_SubsetE16get_choice_namesB5cxx11Ev
_ZNK13choice_optionI28ALGO_TB_IntraPredMode_SubsetE18get_default_stringB5cxx11Ev
_ZNK13choice_optionI39ALGO_TB_Split_BruteForce_ZeroBlockPruneE10is_definedEv
_ZNK13choice_optionI39ALGO_TB_Split_BruteForce_ZeroBlockPruneE11has_defaultEv
_ZNK13choice_optionI39ALGO_TB_Split_BruteForce_ZeroBlockPruneE16get_choice_namesB5cxx11Ev
_ZNK13choice_optionI39ALGO_TB_Split_BruteForce_ZeroBlockPruneE18get_default_stringB5cxx11Ev
_ZNK13choice_optionI6MEModeE10is_definedEv
_ZNK13choice_optionI6MEModeE11has_defaultEv
_ZNK13choice_optionI6MEModeE16get_choice_namesB5cxx11Ev
_ZNK13choice_optionI6MEModeE18get_default_stringB5cxx11Ev
_ZNK13choice_optionI8PartModeE10is_definedEv
_ZNK13choice_optionI8PartModeE11has_defaultEv
_ZNK13choice_optionI8PartModeE16get_choice_namesB5cxx11Ev
_ZNK13choice_optionI8PartModeE18get_default_stringB5cxx11Ev
_ZNK13option_string10is_definedEv
_ZNK13option_string11has_defaultEv
_ZNK13option_string12getTypeDescrB5cxx11Ev
_ZNK13option_string18get_default_stringB5cxx11Ev
_ZNK15ImageSource_YUV10get_heightEv
_ZNK15ImageSource_YUV9get_widthEv
_ZNK15decoder_context15get_highest_TIDEv
_ZNK15decoder_context9get_imageEi
_ZNK15decoder_context9has_imageEi
_ZNK15encoder_context9get_imageEi
_ZNK15encoder_context9has_imageEi
_ZNK15thread_task_sao4nameB5cxx11Ev
_ZNK16Logging_TB_Split4nameEv
_ZNK17Algo_TB_Transform4nameEv
_ZNK17config_parameters11find_optionEPKc
_ZNK17config_parameters12print_paramsEv
_ZNK17config_parameters17get_parameter_IDsB5cxx11Ev
_ZNK17config_parameters18get_parameter_typeEPKc
_ZNK17config_parameters21get_parameter_choicesB5cxx11EPKc
_ZNK17config_parameters26get_parameter_string_tableEv
_ZNK17config_parameters27get_parameter_choices_tableEPKc
_ZNK17pic_parameter_set17is_tile_start_CTBEii
_ZNK17pic_parameter_set4dumpEi
_ZNK17seq_parameter_set4dumpEi
_ZNK18Algo_CB_IntraInter4nameEv
_ZNK18Algo_CB_MergeIndex4nameEv
_ZNK18EncoderCore_Custom9getPPS_QPEv
_ZNK18choice_option_base12getTypeDescrB5cxx11Ev
_ZNK18choice_option_base24get_choices_string_tableEv
_ZNK18profile_tier_level4dumpEiP6_iobuf
_ZNK18profile_tier_level5writeER13CABAC_encoderi
_ZNK19CABAC_encoder_estim16modifies_contextEv
_ZNK19CABAC_encoder_estim24number_free_bits_in_byteEv
_ZNK19CABAC_encoder_estim4sizeEv
_ZNK19context_model_table10debug_dumpB5cxx11Ev
_ZNK19context_model_tableeqERKS_
_ZNK19de265_progress_lock12get_progressEv
_ZNK19pps_range_extension4dumpEi
_ZNK19sps_range_extension4dumpEi
_ZNK19thread_task_ctb_row4nameB5cxx11Ev
_ZNK19video_parameter_set4dumpEi
_ZNK19video_parameter_set5writeEP11error_queueR13CABAC_encoder
_ZNK20slice_segment_header25dump_slice_segment_headerEPK15decoder_contexti
_ZNK21Algo_TB_IntraPredMode4nameEv
_ZNK22decoded_picture_buffer14log_dpb_queuesEv
_ZNK22decoded_picture_buffer15log_dpb_contentEv
_ZNK22decoded_picture_buffer20has_free_dpb_pictureEb
_ZNK22decoded_picture_buffer28DPB_index_of_picture_with_IDEi
_ZNK22decoded_picture_buffer29DPB_index_of_picture_with_LSBEiib
_ZNK22decoded_picture_buffer29DPB_index_of_picture_with_POCEiib
_ZNK22encoder_picture_buffer11get_pictureEi
_ZNK22encoder_picture_buffer11has_pictureEi
_ZNK22encoder_picture_buffer26have_more_frames_to_encodeEv
_ZNK23Algo_CB_Skip_BruteForce4nameEv
_ZNK23CABAC_encoder_bitstream16modifies_contextEv
_ZNK23CABAC_encoder_bitstream24number_free_bits_in_byteEv
_ZNK23CABAC_encoder_bitstream4sizeEv
_ZNK24Algo_CB_Split_BruteForce4nameEv
_ZNK24Algo_CTB_QScale_Constant4nameEv
_ZNK24Algo_TB_Split_BruteForce4nameEv
_ZNK25thread_task_slice_segment4nameB5cxx11Ev
_ZNK26thread_task_deblock_CTBRow4nameB5cxx11Ev
_ZNK27Algo_CB_InterPartMode_Fixed4nameEv
_ZNK27Algo_CB_IntraPartMode_Fixed4nameEv
_ZNK27Algo_TB_RateEstimation_None4nameEv
_ZNK27video_usability_information4dumpEi
_ZNK28Algo_TB_RateEstimation_Exact4nameEv
_ZNK28CABAC_encoder_estim_constant16modifies_contextEv
_ZNK30MotionVectorAccess_de265_image11get_mv_infoEii
_ZNK30MotionVectorAccess_de265_image12get_PartModeEii
_ZNK31Algo_TB_IntraPredMode_FastBrute4nameEv
_ZNK32Algo_CB_IntraPartMode_BruteForce4nameEv
_ZNK32Algo_TB_IntraPredMode_BruteForce4nameEv
_ZNK33Algo_TB_IntraPredMode_MinResidual4nameEv
_ZNK34MotionVectorAccess_encoder_context11get_mv_infoEii
_ZNK34MotionVectorAccess_encoder_context12get_PartModeEii
_ZNK4Algo4nameEv
_ZNK6enc_cb11reconstructEP15encoder_contextP11de265_image
_ZNK6enc_cb14debug_dumpTreeEii
_ZNK6enc_cb26writeReconstructionToImageEP11de265_imagePK17seq_parameter_set
_ZNK6enc_cb5getTBEii
_ZNK6enc_tb11reconstructEP15encoder_contextP11de265_image
_ZNK6enc_tb14debug_dumpTreeEii
_ZNK6enc_tb14reconstruct_tbEP15encoder_contextP11de265_imageiiii
_ZNK6enc_tb16debug_writeBlackEP15encoder_contextP11de265_image
_ZNK6enc_tb26writeReconstructionToImageEP11de265_imagePK17seq_parameter_set
_ZNK6enc_tb5getTBEii
_ZNK8NAL_unit24num_skipped_bytes_beforeEii
_ZNK8PBMotioneqERKS_
_ZNSt15_Sp_counted_ptrIDnLN9__gnu_cxx12_Lock_policyE2EE10_M_disposeEv
_ZNSt15_Sp_counted_ptrIP22sop_creator_intra_onlyLN9__gnu_cxx12_Lock_policyE2EE10_M_destroyEv
_ZNSt15_Sp_counted_ptrIP22sop_creator_intra_onlyLN9__gnu_cxx12_Lock_policyE2EE10_M_disposeEv
_ZNSt15_Sp_counted_ptrIP22sop_creator_intra_onlyLN9__gnu_cxx12_Lock_policyE2EE14_M_get_deleterERKSt9type_info
_ZNSt15_Sp_counted_ptrIP22sop_creator_intra_onlyLN9__gnu_cxx12_Lock_policyE2EED0Ev
_ZNSt15_Sp_counted_ptrIP22sop_creator_intra_onlyLN9__gnu_cxx12_Lock_policyE2EED1Ev
_ZNSt15_Sp_counted_ptrIP29sop_creator_trivial_low_delayLN9__gnu_cxx12_Lock_policyE2EE10_M_destroyEv
_ZNSt15_Sp_counted_ptrIP29sop_creator_trivial_low_delayLN9__gnu_cxx12_Lock_policyE2EE10_M_disposeEv
_ZNSt15_Sp_counted_ptrIP29sop_creator_trivial_low_delayLN9__gnu_cxx12_Lock_policyE2EE14_M_get_deleterERKSt9type_info
_ZNSt15_Sp_counted_ptrIP29sop_creator_trivial_low_delayLN9__gnu_cxx12_Lock_policyE2EED0Ev
_ZNSt15_Sp_counted_ptrIP29sop_creator_trivial_low_delayLN9__gnu_cxx12_Lock_policyE2EED1Ev
_ZNSt16_Sp_counted_baseILN9__gnu_cxx12_Lock_policyE2EE10_M_destroyEv
_ZNSt16_Sp_counted_baseILN9__gnu_cxx12_Lock_policyE2EE10_M_releaseEv
_ZNSt23_Sp_counted_ptr_inplaceI17pic_parameter_setSaIS0_ELN9__gnu_cxx12_Lock_policyE2EE10_M_destroyEv
_ZNSt23_Sp_counted_ptr_inplaceI17pic_parameter_setSaIS0_ELN9__gnu_cxx12_Lock_policyE2EE10_M_disposeEv
_ZNSt23_Sp_counted_ptr_inplaceI17pic_parameter_setSaIS0_ELN9__gnu_cxx12_Lock_policyE2EE14_M_get_deleterERKSt9type_info
_ZNSt23_Sp_counted_ptr_inplaceI17pic_parameter_setSaIS0_ELN9__gnu_cxx12_Lock_policyE2EED0Ev
_ZNSt23_Sp_counted_ptr_inplaceI17pic_parameter_setSaIS0_ELN9__gnu_cxx12_Lock_policyE2EED1Ev
_ZNSt23_Sp_counted_ptr_inplaceI17seq_parameter_setSaIS0_ELN9__gnu_cxx12_Lock_policyE2EE10_M_destroyEv
_ZNSt23_Sp_counted_ptr_inplaceI17seq_parameter_setSaIS0_ELN9__gnu_cxx12_Lock_policyE2EE10_M_disposeEv
_ZNSt23_Sp_counted_ptr_inplaceI17seq_parameter_setSaIS0_ELN9__gnu_cxx12_Lock_policyE2EE14_M_get_deleterERKSt9type_info
_ZNSt23_Sp_counted_ptr_inplaceI17seq_parameter_setSaIS0_ELN9__gnu_cxx12_Lock_policyE2EED0Ev
_ZNSt23_Sp_counted_ptr_inplaceI17seq_parameter_setSaIS0_ELN9__gnu_cxx12_Lock_policyE2EED1Ev
_ZNSt23_Sp_counted_ptr_inplaceI18small_image_bufferSaIS0_ELN9__gnu_cxx12_Lock_policyE2EE10_M_destroyEv
_ZNSt23_Sp_counted_ptr_inplaceI18small_image_bufferSaIS0_ELN9__gnu_cxx12_Lock_policyE2EE10_M_disposeEv
_ZNSt23_Sp_counted_ptr_inplaceI18small_image_bufferSaIS0_ELN9__gnu_cxx12_Lock_policyE2EE14_M_get_deleterERKSt9type_info
_ZNSt23_Sp_counted_ptr_inplaceI18small_image_bufferSaIS0_ELN9__gnu_cxx12_Lock_policyE2EED0Ev
_ZNSt23_Sp_counted_ptr_inplaceI18small_image_bufferSaIS0_ELN9__gnu_cxx12_Lock_policyE2EED1Ev
_ZNSt23_Sp_counted_ptr_inplaceI19video_parameter_setSaIS0_ELN9__gnu_cxx12_Lock_policyE2EE10_M_destroyEv
_ZNSt23_Sp_counted_ptr_inplaceI19video_parameter_setSaIS0_ELN9__gnu_cxx12_Lock_policyE2EE10_M_disposeEv
_ZNSt23_Sp_counted_ptr_inplaceI19video_parameter_setSaIS0_ELN9__gnu_cxx12_Lock_policyE2EE14_M_get_deleterERKSt9type_info
_ZNSt23_Sp_counted_ptr_inplaceI19video_parameter_setSaIS0_ELN9__gnu_cxx12_Lock_policyE2EED0Ev
_ZNSt23_Sp_counted_ptr_inplaceI19video_parameter_setSaIS0_ELN9__gnu_cxx12_Lock_policyE2EED1Ev
_ZNSt5dequeIP10image_dataSaIS1_EE13_M_insert_auxISt15_Deque_iteratorIS1_RKS1_PS6_EEEvS5_IS1_RS1_PS1_ET_SD_y
_ZNSt5dequeIP10image_dataSaIS1_EE17_M_reallocate_mapEyb
_ZNSt5dequeIP10image_dataSaIS1_EE23_M_new_elements_at_backEy
_ZNSt5dequeIP10image_dataSaIS1_EE24_M_new_elements_at_frontEy
_ZNSt5dequeIP10image_dataSaIS1_EEaSERKS3_
_ZNSt5dequeIP12en265_packetSaIS1_EE16_M_push_back_auxIJRKS1_EEEvDpOT_
_ZNSt5dequeIP8NAL_unitSaIS1_EE16_M_push_back_auxIJRKS1_EEEvDpOT_
_ZNSt6vectorI11ref_pic_setSaIS0_EE17_M_realloc_insertIJRKS0_EEEvN9__gnu_cxx17__normal_iteratorIPS0_S2_EEDpOT_
_ZNSt6vectorI11ref_pic_setSaIS0_EE6resizeEy
_ZNSt6vectorI11sei_messageSaIS0_EE17_M_realloc_insertIJRKS0_EEEvN9__gnu_cxx17__normal_iteratorIPS0_S2_EEDpOT_
_ZNSt6vectorI12CodingOptionI6enc_tbESaIS2_EE17_M_realloc_insertIJRKS2_EEEvN9__gnu_cxx17__normal_iteratorIPS2_S4_EEDpOT_
_ZNSt6vectorI19context_model_tableSaIS0_EE17_M_default_appendEy
_ZNSt6vectorIN13CodingOptionsI6enc_cbE16CodingOptionDataESaIS3_EE17_M_realloc_insertIJS3_EEEvN9__gnu_cxx17__normal_iteratorIPS3_S5_EEDpOT_
_ZNSt6vectorIN13CodingOptionsI6enc_tbE16CodingOptionDataESaIS3_EE17_M_realloc_insertIJS3_EEEvN9__gnu_cxx17__normal_iteratorIPS3_S5_EEDpOT_
_ZNSt6vectorINSt7__cxx1112basic_stringIcSt11char_traitsIcESaIcEEESaIS5_EE17_M_realloc_insertIJRKS5_EEEvN9__gnu_cxx17__normal_iteratorIPS5_S7_EEDpOT_
_ZNSt6vectorINSt7__cxx1112basic_stringIcSt11char_traitsIcESaIcEEESaIS5_EE17_M_realloc_insertIJS5_EEEvN9__gnu_cxx17__normal_iteratorIPS5_S7_EEDpOT_
_ZNSt6vectorINSt7__cxx1112basic_stringIcSt11char_traitsIcESaIcEEESaIS5_EED1Ev
_ZNSt6vectorIP10image_unitSaIS1_EE17_M_realloc_insertIJRKS1_EEEvN9__gnu_cxx17__normal_iteratorIPS1_S3_EEDpOT_
_ZNSt6vectorIP10slice_unitSaIS1_EE17_M_realloc_insertIJRKS1_EEEvN9__gnu_cxx17__normal_iteratorIPS1_S3_EEDpOT_
_ZNSt6vectorIP11de265_imageSaIS1_EE17_M_realloc_insertIJRKS1_EEEvN9__gnu_cxx17__normal_iteratorIPS1_S3_EEDpOT_
_ZNSt6vectorIP11de265_imageSaIS1_EE17_M_realloc_insertIJS1_EEEvN9__gnu_cxx17__normal_iteratorIPS1_S3_EEDpOT_
_ZNSt6vectorIP11thread_taskSaIS1_EE12emplace_backIJS1_EEEvDpOT_
_ZNSt6vectorIP11thread_taskSaIS1_EE17_M_realloc_insertIJS1_EEEvN9__gnu_cxx17__normal_iteratorIPS1_S3_EEDpOT_
_ZNSt6vectorIP20slice_segment_headerSaIS1_EE17_M_realloc_insertIJRKS1_EEEvN9__gnu_cxx17__normal_iteratorIPS1_S3_EEDpOT_
_ZNSt6vectorIP6enc_cbSaIS1_EE14_M_fill_insertEN9__gnu_cxx17__normal_iteratorIPS1_S3_EEyRKS1_
_ZNSt6vectorIP8NAL_unitSaIS1_EE17_M_realloc_insertIJRKS1_EEEvN9__gnu_cxx17__normal_iteratorIPS1_S3_EEDpOT_
_ZNSt6vectorIPhSaIS0_EE17_M_realloc_insertIJRKS0_EEEvN9__gnu_cxx17__normal_iteratorIPS0_S2_EEDpOT_
_ZNSt6vectorIPvSaIS0_EE17_M_realloc_insertIJRKS0_EEEvN9__gnu_cxx17__normal_iteratorIPS0_S2_EEDpOT_
_ZNSt6vectorIS_IcSaIcEESaIS1_EE17_M_default_appendEy
_ZNSt6vectorISt4pairI13IntraPredModefESaIS2_EE12emplace_backIJS2_EEEvDpOT_
_ZNSt6vectorISt4pairI13IntraPredModefESaIS2_EE17_M_default_appendEy
_ZNSt6vectorISt4pairINSt7__cxx1112basic_stringIcSt11char_traitsIcESaIcEEE10MVTestModeESaIS8_EE17_M_realloc_insertIJS8_EEEvN9__gnu_cxx17__normal_iteratorIPS8_SA_EEDpOT_
_ZNSt6vectorISt4pairINSt7__cxx1112basic_stringIcSt11char_traitsIcESaIcEEE12MVSearchAlgoESaIS8_EE17_M_realloc_insertIJS8_EEEvN9__gnu_cxx17__normal_iteratorIPS8_SA_EEDpOT_
_ZNSt6vectorISt4pairINSt7__cxx1112basic_stringIcSt11char_traitsIcESaIcEEE13SOP_StructureESaIS8_EE17_M_realloc_insertIJS8_EEEvN9__gnu_cxx17__normal_iteratorIPS8_SA_EEDpOT_
_ZNSt6vectorISt4pairINSt7__cxx1112basic_stringIcSt11char_traitsIcESaIcEEE20TBBitrateEstimMethodESaIS8_EE17_M_realloc_insertIJS8_EEEvN9__gnu_cxx17__normal_iteratorIPS8_SA_EEDpOT_
_ZNSt6vectorISt4pairINSt7__cxx1112basic_stringIcSt11char_traitsIcESaIcEEE21ALGO_CB_IntraPartModeESaIS8_EE17_M_realloc_insertIJS8_EEEvN9__gnu_cxx17__normal_iteratorIPS8_SA_EEDpOT_
_ZNSt6vectorISt4pairINSt7__cxx1112basic_stringIcSt11char_traitsIcESaIcEEE21ALGO_TB_IntraPredModeESaIS8_EE17_M_realloc_insertIJS8_EEEvN9__gnu_cxx17__normal_iteratorIPS8_SA_EEDpOT_
_ZNSt6vectorISt4pairINSt7__cxx1112basic_stringIcSt11char_traitsIcESaIcEEE22ALGO_TB_RateEstimationESaIS8_EE17_M_realloc_insertIJS8_EEEvN9__gnu_cxx17__normal_iteratorIPS8_SA_EEDpOT_
_ZNSt6vectorISt4pairINSt7__cxx1112basic_stringIcSt11char_traitsIcESaIcEEE28ALGO_TB_IntraPredMode_SubsetESaIS8_EE17_M_realloc_insertIJS8_EEEvN9__gnu_cxx17__normal_iteratorIPS8_SA_EEDpOT_
_ZNSt6vectorISt4pairINSt7__cxx1112basic_stringIcSt11char_traitsIcESaIcEEE39ALGO_TB_Split_BruteForce_ZeroBlockPruneESaIS8_EE17_M_realloc_insertIJS8_EEEvN9__gnu_cxx17__normal_iteratorIPS8_SA_EEDpOT_
_ZNSt6vectorISt4pairINSt7__cxx1112basic_stringIcSt11char_traitsIcESaIcEEE6MEModeESaIS8_EE17_M_realloc_insertIJS8_EEEvN9__gnu_cxx17__normal_iteratorIPS8_SA_EEDpOT_
_ZNSt6vectorISt4pairINSt7__cxx1112basic_stringIcSt11char_traitsIcESaIcEEE8PartModeESaIS8_EE17_M_realloc_insertIJS8_EEEvN9__gnu_cxx17__normal_iteratorIPS8_SA_EEDpOT_
_ZNSt6vectorIcSaIcEE14_M_fill_insertEN9__gnu_cxx17__normal_iteratorIPcS1_EEyRKc
_ZNSt6vectorIcSaIcEE17_M_default_appendEy
_ZNSt6vectorIiSaIiEE12emplace_backIJiEEEvDpOT_
_ZNSt6vectorIiSaIiEE17_M_default_appendEy
_ZNSt6vectorIiSaIiEE17_M_realloc_insertIJRKiEEEvN9__gnu_cxx17__normal_iteratorIPiS1_EEDpOT_
_ZNSt6vectorIiSaIiEE17_M_realloc_insertIJiEEEvN9__gnu_cxx17__normal_iteratorIPiS1_EEDpOT_
_ZNSt6vectorIiSaIiEEaSERKS1_
_ZNSt7__cxx1115basic_stringbufIcSt11char_traitsIcESaIcEED1Ev
_ZSt13__adjust_heapIN9__gnu_cxx17__normal_iteratorIPSt4pairI13IntraPredModefESt6vectorIS4_SaIS4_EEEExS4_NS0_5__ops15_Iter_comp_iterIPFbS4_S4_EEEEvT_T0_SG_T1_T2_
_ZSt4copyIP10image_dataESt15_Deque_iteratorIT_RS3_PS3_ES2_IS3_RKS3_PS7_ESA_S6_
_ZTI10Algo_PB_MV DATA
_ZTI10PacketSink DATA
_ZTI10option_int DATA
_ZTI11EncoderCore DATA
_ZTI11ImageSource DATA
_ZTI11error_queue DATA
_ZTI11option_base DATA
_ZTI11option_bool DATA
_ZTI11sop_creator DATA
_ZTI11thread_task DATA
_ZTI12Algo_CB_Skip DATA
_ZTI12base_context DATA
_ZTI13Algo_CB_Split DATA
_ZTI13Algo_TB_Split DATA
_ZTI13CABAC_encoder DATA
_ZTI13ImageSink_YUV DATA
_ZTI13choice_optionI10MVTestModeE DATA
_ZTI13choice_optionI12MVSearchAlgoE DATA
_ZTI13choice_optionI13SOP_StructureE DATA
_ZTI13choice_optionI20TBBitrateEstimMethodE DATA
_ZTI13choice_optionI21ALGO_CB_IntraPartModeE DATA
_ZTI13choice_optionI21ALGO_TB_IntraPredModeE DATA
_ZTI13choice_optionI22ALGO_TB_RateEstimationE DATA
_ZTI13choice_optionI28ALGO_TB_IntraPredMode_SubsetE DATA
_ZTI13choice_optionI39ALGO_TB_Split_BruteForce_ZeroBlockPruneE DATA
_ZTI13choice_optionI6MEModeE DATA
_ZTI13choice_optionI8PartModeE DATA
_ZTI13option_MEMode DATA
_ZTI13option_string DATA
_ZTI15Algo_CTB_QScale DATA
_ZTI15Algo_PB_MV_Test DATA
_ZTI15ImageSource_YUV DATA
_ZTI15PacketSink_File DATA
_ZTI15decoder_context DATA
_ZTI15encoder_context DATA
_ZTI15option_PartMode DATA
_ZTI15thread_task_sao DATA
_ZTI16Algo_TB_Residual DATA
_ZTI16Logging_TB_Split DATA
_ZTI17Algo_PB_MV_Search DATA
_ZTI17Algo_TB_Transform DATA
_ZTI17option_MVTestMode DATA
_ZTI17pic_order_counter DATA
_ZTI18Algo_CB_IntraInter DATA
_ZTI18Algo_CB_MergeIndex DATA
_ZTI18EncoderCore_Custom DATA
_ZTI18MotionVectorAccess DATA
_ZTI18choice_option_base DATA
_ZTI19CABAC_encoder_estim DATA
_ZTI19option_MVSearchAlgo DATA
_ZTI19thread_task_ctb_row DATA
_ZTI20option_InterPartMode DATA
_ZTI20option_SOP_Structure DATA
_ZTI21Algo_CB_InterPartMode DATA
_ZTI21Algo_CB_IntraPartMode DATA
_ZTI21Algo_TB_IntraPredMode DATA
_ZTI22Algo_TB_RateEstimation DATA
_ZTI22sop_creator_intra_only DATA
_ZTI23Algo_CB_Skip_BruteForce DATA
_ZTI23CABAC_encoder_bitstream DATA
_ZTI24Algo_CB_MergeIndex_Fixed DATA
_ZTI24Algo_CB_Split_BruteForce DATA
_ZTI24Algo_CTB_QScale_Constant DATA
_ZTI24Algo_TB_Split_BruteForce DATA
_ZTI25thread_task_slice_segment DATA
_ZTI26thread_task_deblock_CTBRow DATA
_ZTI27Algo_CB_InterPartMode_Fixed DATA
_ZTI27Algo_CB_IntraPartMode_Fixed DATA
_ZTI27Algo_TB_RateEstimation_None DATA
_ZTI27option_TBBitrateEstimMethod DATA
_ZTI28Algo_TB_RateEstimation_Exact DATA
_ZTI28CABAC_encoder_estim_constant DATA
_ZTI28option_ALGO_CB_IntraPartMode DATA
_ZTI28option_ALGO_TB_IntraPredMode DATA
_ZTI29Algo_CB_IntraInter_BruteForce DATA
_ZTI29option_ALGO_TB_RateEstimation DATA
_ZTI29sop_creator_trivial_low_delay DATA
_ZTI30MotionVectorAccess_de265_image DATA
_ZTI31Algo_TB_IntraPredMode_FastBrute DATA
_ZTI32Algo_CB_IntraPartMode_BruteForce DATA
_ZTI32Algo_TB_IntraPredMode_BruteForce DATA
_ZTI32Algo_TB_IntraPredMode_ModeSubset DATA
_ZTI33Algo_TB_IntraPredMode_MinResidual DATA
_ZTI34MotionVectorAccess_encoder_context DATA
_ZTI35option_ALGO_TB_IntraPredMode_Subset DATA
_ZTI46option_ALGO_TB_Split_BruteForce_ZeroBlockPrune DATA
_ZTI4Algo DATA
_ZTI6enc_cb DATA
_ZTI6enc_tb DATA
_ZTI7Algo_CB DATA
_ZTI7Algo_PB DATA
_ZTI7Logging DATA
_ZTI8enc_node DATA
_ZTI9ImageSink DATA
_ZTISt11_Mutex_baseILN9__gnu_cxx12_Lock_policyE2EE DATA
_ZTISt15_Sp_counted_ptrIP22sop_creator_intra_onlyLN9__gnu_cxx12_Lock_policyE2EE DATA
_ZTISt15_Sp_counted_ptrIP29sop_creator_trivial_low_delayLN9__gnu_cxx12_Lock_policyE2EE DATA
_ZTISt16_Sp_counted_baseILN9__gnu_cxx12_Lock_policyE2EE DATA
_ZTISt19_Sp_make_shared_tag DATA
_ZTISt23_Sp_counted_ptr_inplaceI17pic_parameter_setSaIS0_ELN9__gnu_cxx12_Lock_policyE2EE DATA
_ZTISt23_Sp_counted_ptr_inplaceI17seq_parameter_setSaIS0_ELN9__gnu_cxx12_Lock_policyE2EE DATA
_ZTISt23_Sp_counted_ptr_inplaceI18small_image_bufferSaIS0_ELN9__gnu_cxx12_Lock_policyE2EE DATA
_ZTISt23_Sp_counted_ptr_inplaceI19video_parameter_setSaIS0_ELN9__gnu_cxx12_Lock_policyE2EE DATA
_ZTS10Algo_PB_MV DATA
_ZTS10PacketSink DATA
_ZTS10option_int DATA
_ZTS11EncoderCore DATA
_ZTS11ImageSource DATA
_ZTS11error_queue DATA
_ZTS11option_base DATA
_ZTS11option_bool DATA
_ZTS11sop_creator DATA
_ZTS11thread_task DATA
_ZTS12Algo_CB_Skip DATA
_ZTS12base_context DATA
_ZTS13Algo_CB_Split DATA
_ZTS13Algo_TB_Split DATA
_ZTS13CABAC_encoder DATA
_ZTS13ImageSink_YUV DATA
_ZTS13choice_optionI10MVTestModeE DATA
_ZTS13choice_optionI12MVSearchAlgoE DATA
_ZTS13choice_optionI13SOP_StructureE DATA
_ZTS13choice_optionI20TBBitrateEstimMethodE DATA
_ZTS13choice_optionI21ALGO_CB_IntraPartModeE DATA
_ZTS13choice_optionI21ALGO_TB_IntraPredModeE DATA
_ZTS13choice_optionI22ALGO_TB_RateEstimationE DATA
_ZTS13choice_optionI28ALGO_TB_IntraPredMode_SubsetE DATA
_ZTS13choice_optionI39ALGO_TB_Split_BruteForce_ZeroBlockPruneE DATA
_ZTS13choice_optionI6MEModeE DATA
_ZTS13choice_optionI8PartModeE DATA
_ZTS13option_MEMode DATA
_ZTS13option_string DATA
_ZTS15Algo_CTB_QScale DATA
_ZTS15Algo_PB_MV_Test DATA
_ZTS15ImageSource_YUV DATA
_ZTS15PacketSink_File DATA
_ZTS15decoder_context DATA
_ZTS15encoder_context DATA
_ZTS15option_PartMode DATA
_ZTS15thread_task_sao DATA
_ZTS16Algo_TB_Residual DATA
_ZTS16Logging_TB_Split DATA
_ZTS17Algo_PB_MV_Search DATA
_ZTS17Algo_TB_Transform DATA
_ZTS17option_MVTestMode DATA
_ZTS17pic_order_counter DATA
_ZTS18Algo_CB_IntraInter DATA
_ZTS18Algo_CB_MergeIndex DATA
_ZTS18EncoderCore_Custom DATA
_ZTS18MotionVectorAccess DATA
_ZTS18choice_option_base DATA
_ZTS19CABAC_encoder_estim DATA
_ZTS19option_MVSearchAlgo DATA
_ZTS19thread_task_ctb_row DATA
_ZTS20option_InterPartMode DATA
_ZTS20option_SOP_Structure DATA
_ZTS21Algo_CB_InterPartMode DATA
_ZTS21Algo_CB_IntraPartMode DATA
_ZTS21Algo_TB_IntraPredMode DATA
_ZTS22Algo_TB_RateEstimation DATA
_ZTS22sop_creator_intra_only DATA
_ZTS23Algo_CB_Skip_BruteForce DATA
_ZTS23CABAC_encoder_bitstream DATA
_ZTS24Algo_CB_MergeIndex_Fixed DATA
_ZTS24Algo_CB_Split_BruteForce DATA
_ZTS24Algo_CTB_QScale_Constant DATA
_ZTS24Algo_TB_Split_BruteForce DATA
_ZTS25thread_task_slice_segment DATA
_ZTS26thread_task_deblock_CTBRow DATA
_ZTS27Algo_CB_InterPartMode_Fixed DATA
_ZTS27Algo_CB_IntraPartMode_Fixed DATA
_ZTS27Algo_TB_RateEstimation_None DATA
_ZTS27option_TBBitrateEstimMethod DATA
_ZTS28Algo_TB_RateEstimation_Exact DATA
_ZTS28CABAC_encoder_estim_constant DATA
_ZTS28option_ALGO_CB_IntraPartMode DATA
_ZTS28option_ALGO_TB_IntraPredMode DATA
_ZTS29Algo_CB_IntraInter_BruteForce DATA
_ZTS29option_ALGO_TB_RateEstimation DATA
_ZTS29sop_creator_trivial_low_delay DATA
_ZTS30MotionVectorAccess_de265_image DATA
_ZTS31Algo_TB_IntraPredMode_FastBrute DATA
_ZTS32Algo_CB_IntraPartMode_BruteForce DATA
_ZTS32Algo_TB_IntraPredMode_BruteForce DATA
_ZTS32Algo_TB_IntraPredMode_ModeSubset DATA
_ZTS33Algo_TB_IntraPredMode_MinResidual DATA
_ZTS34MotionVectorAccess_encoder_context DATA
_ZTS35option_ALGO_TB_IntraPredMode_Subset DATA
_ZTS46option_ALGO_TB_Split_BruteForce_ZeroBlockPrune DATA
_ZTS4Algo DATA
_ZTS6enc_cb DATA
_ZTS6enc_tb DATA
_ZTS7Algo_CB DATA
_ZTS7Algo_PB DATA
_ZTS7Logging DATA
_ZTS8enc_node DATA
_ZTS9ImageSink DATA
_ZTSSt11_Mutex_baseILN9__gnu_cxx12_Lock_policyE2EE DATA
_ZTSSt15_Sp_counted_ptrIP22sop_creator_intra_onlyLN9__gnu_cxx12_Lock_policyE2EE DATA
_ZTSSt15_Sp_counted_ptrIP29sop_creator_trivial_low_delayLN9__gnu_cxx12_Lock_policyE2EE DATA
_ZTSSt16_Sp_counted_baseILN9__gnu_cxx12_Lock_policyE2EE DATA
_ZTSSt19_Sp_make_shared_tag DATA
_ZTSSt23_Sp_counted_ptr_inplaceI17pic_parameter_setSaIS0_ELN9__gnu_cxx12_Lock_policyE2EE DATA
_ZTSSt23_Sp_counted_ptr_inplaceI17seq_parameter_setSaIS0_ELN9__gnu_cxx12_Lock_policyE2EE DATA
_ZTSSt23_Sp_counted_ptr_inplaceI18small_image_bufferSaIS0_ELN9__gnu_cxx12_Lock_policyE2EE DATA
_ZTSSt23_Sp_counted_ptr_inplaceI19video_parameter_setSaIS0_ELN9__gnu_cxx12_Lock_policyE2EE DATA
_ZTV10option_int DATA
_ZTV11ImageSource DATA
_ZTV11option_base DATA
_ZTV12base_context DATA
_ZTV13CABAC_encoder DATA
_ZTV13ImageSink_YUV DATA
_ZTV13choice_optionI10MVTestModeE DATA
_ZTV13choice_optionI12MVSearchAlgoE DATA
_ZTV13choice_optionI13SOP_StructureE DATA
_ZTV13choice_optionI20TBBitrateEstimMethodE DATA
_ZTV13choice_optionI21ALGO_CB_IntraPartModeE DATA
_ZTV13choice_optionI21ALGO_TB_IntraPredModeE DATA
_ZTV13choice_optionI22ALGO_TB_RateEstimationE DATA
_ZTV13choice_optionI28ALGO_TB_IntraPredMode_SubsetE DATA
_ZTV13choice_optionI39ALGO_TB_Split_BruteForce_ZeroBlockPruneE DATA
_ZTV13choice_optionI6MEModeE DATA
_ZTV13choice_optionI8PartModeE DATA
_ZTV13option_MEMode DATA
_ZTV13option_string DATA
_ZTV15Algo_PB_MV_Test DATA
_ZTV15ImageSource_YUV DATA
_ZTV15PacketSink_File DATA
_ZTV15decoder_context DATA
_ZTV15encoder_context DATA
_ZTV15option_PartMode DATA
_ZTV15thread_task_sao DATA
_ZTV16Logging_TB_Split DATA
_ZTV17Algo_PB_MV_Search DATA
_ZTV17Algo_TB_Transform DATA
_ZTV17option_MVTestMode DATA
_ZTV18EncoderCore_Custom DATA
_ZTV18choice_option_base DATA
_ZTV19CABAC_encoder_estim DATA
_ZTV19option_MVSearchAlgo DATA
_ZTV19thread_task_ctb_row DATA
_ZTV20option_InterPartMode DATA
_ZTV20option_SOP_Structure DATA
_ZTV22sop_creator_intra_only DATA
_ZTV23Algo_CB_Skip_BruteForce DATA
_ZTV23CABAC_encoder_bitstream DATA
_ZTV24Algo_CB_MergeIndex_Fixed DATA
_ZTV24Algo_CB_Split_BruteForce DATA
_ZTV24Algo_CTB_QScale_Constant DATA
_ZTV24Algo_TB_Split_BruteForce DATA
_ZTV25thread_task_slice_segment DATA
_ZTV26thread_task_deblock_CTBRow DATA
_ZTV27Algo_CB_InterPartMode_Fixed DATA
_ZTV27Algo_CB_IntraPartMode_Fixed DATA
_ZTV27Algo_TB_RateEstimation_None DATA
_ZTV27option_TBBitrateEstimMethod DATA
_ZTV28Algo_TB_RateEstimation_Exact DATA
_ZTV28CABAC_encoder_estim_constant DATA
_ZTV28option_ALGO_CB_IntraPartMode DATA
_ZTV28option_ALGO_TB_IntraPredMode DATA
_ZTV29Algo_CB_IntraInter_BruteForce DATA
_ZTV29option_ALGO_TB_RateEstimation DATA
_ZTV29sop_creator_trivial_low_delay DATA
_ZTV30MotionVectorAccess_de265_image DATA
_ZTV31Algo_TB_IntraPredMode_FastBrute DATA
_ZTV32Algo_CB_IntraPartMode_BruteForce DATA
_ZTV32Algo_TB_IntraPredMode_BruteForce DATA
_ZTV33Algo_TB_IntraPredMode_MinResidual DATA
_ZTV34MotionVectorAccess_encoder_context DATA
_ZTV35option_ALGO_TB_IntraPredMode_Subset DATA
_ZTV46option_ALGO_TB_Split_BruteForce_ZeroBlockPrune DATA
_ZTV6enc_cb DATA
_ZTV6enc_tb DATA
_ZTVSt15_Sp_counted_ptrIP22sop_creator_intra_onlyLN9__gnu_cxx12_Lock_policyE2EE DATA
_ZTVSt15_Sp_counted_ptrIP29sop_creator_trivial_low_delayLN9__gnu_cxx12_Lock_policyE2EE DATA
_ZTVSt23_Sp_counted_ptr_inplaceI17pic_parameter_setSaIS0_ELN9__gnu_cxx12_Lock_policyE2EE DATA
_ZTVSt23_Sp_counted_ptr_inplaceI17seq_parameter_setSaIS0_ELN9__gnu_cxx12_Lock_policyE2EE DATA
_ZTVSt23_Sp_counted_ptr_inplaceI18small_image_bufferSaIS0_ELN9__gnu_cxx12_Lock_policyE2EE DATA
_ZTVSt23_Sp_counted_ptr_inplaceI19video_parameter_setSaIS0_ELN9__gnu_cxx12_Lock_policyE2EE DATA
allocCB DATA
allocTB DATA
ctxIdxLookup DATA
de265_change_framerate
de265_decode
de265_decode_data
de265_disable_logging
de265_flush_data
de265_free
de265_free_decoder
de265_get_bits_per_pixel
de265_get_chroma_format
de265_get_current_TID
de265_get_default_image_allocation_functions
de265_get_error_text
de265_get_highest_TID
de265_get_image_NAL_header
de265_get_image_PTS
de265_get_image_height
de265_get_image_plane
de265_get_image_plane_user_data
de265_get_image_user_data
de265_get_image_width
de265_get_next_picture
de265_get_number_of_NAL_units_pending
de265_get_number_of_input_bytes_pending
de265_get_parameter_bool
de265_get_version
de265_get_version_number
de265_get_version_number_maintenance
de265_get_version_number_major
de265_get_version_number_minor
de265_get_warning
de265_init
de265_isOK
de265_new_decoder
de265_peek_next_picture
de265_push_NAL
de265_push_data
de265_push_end_of_NAL
de265_push_end_of_frame
de265_release_next_picture
de265_reset
de265_set_framerate_ratio
de265_set_image_allocation_functions
de265_set_image_plane
de265_set_image_user_data
de265_set_limit_TID
de265_set_parameter_bool
de265_set_parameter_int
de265_set_verbosity
de265_start_worker_threads
draw_CB_grid
draw_Motion
draw_PB_grid
draw_PB_pred_modes
draw_QuantPY
draw_Slices
draw_TB_grid
draw_Tiles
draw_intra_pred_modes
en265_allocate_image
en265_block_on_input_queue_length
en265_current_input_queue_length
en265_encode
en265_free_encoder
en265_free_packet
en265_get_encoder_state
en265_get_image_spec
en265_get_packet
en265_get_parameter_type
en265_list_parameter_choices
en265_list_parameters
en265_new_encoder
en265_number_of_queued_packets
en265_parse_command_line_parameters
en265_push_eof
en265_push_image
en265_set_parameter_bool
en265_set_parameter_choice
en265_set_parameter_int
en265_set_parameter_string
en265_show_parameters
en265_start_encoder
en265_trim_input_queue
intraPredAngle_table DATA
invAngle_table DATA
logging_tb_split DATA
tab8_22 DATA
win32_cond_broadcast
win32_cond_destroy
win32_cond_init
win32_cond_signal
win32_cond_wait
