;
; Definition file of libIlmImf-2_5.dll
; Automatic generated by gendef
; written by Kai Tietz 2008
;
LIBRARY "libIlmImf-2_5.dll"
EXPORTS
ImfApplyLut
ImfCloseInputFile
ImfCloseOutputFile
ImfCloseTiledInputFile
ImfCloseTiledOutputFile
ImfCopyHeader
ImfDeleteHeader
ImfDeleteLut
ImfErrorMessage
ImfFloatToHalf
ImfFloatToHalfArray
ImfHalfToFloat
ImfHalfToFloatArray
ImfHeaderBox2fAttribute
ImfHeaderBox2iAttribute
ImfHeaderCompression
ImfHeaderDataWindow
ImfHeaderDisplayWindow
ImfHeaderDoubleAttribute
ImfHeaderFloatAttribute
ImfHeaderIntAttribute
ImfHeaderLineOrder
ImfHeaderM33fAttribute
ImfHeaderM44fAttribute
ImfHeaderPixelAspectRatio
ImfHeaderScreenWindowCenter
ImfHeaderScreenWindowWidth
ImfHeaderSetBox2fAttribute
ImfHeaderSetBox2iAttribute
ImfHeaderSetCompression
ImfHeaderSetDataWindow
ImfHeaderSetDisplayWindow
ImfHeaderSetDoubleAttribute
ImfHeaderSetFloatAttribute
ImfHeaderSetIntAttribute
ImfHeaderSetLineOrder
ImfHeaderSetM33fAttribute
ImfHeaderSetM44fAttribute
ImfHeaderSetPixelAspectRatio
ImfHeaderSetScreenWindowCenter
ImfHeaderSetScreenWindowWidth
ImfHeaderSetStringAttribute
ImfHeaderSetV2fAttribute
ImfHeaderSetV2iAttribute
ImfHeaderSetV3fAttribute
ImfHeaderSetV3iAttribute
ImfHeaderStringAttribute
ImfHeaderV2fAttribute
ImfHeaderV2iAttribute
ImfHeaderV3fAttribute
ImfHeaderV3iAttribute
ImfInputChannels
ImfInputFileName
ImfInputHeader
ImfInputReadPixels
ImfInputSetFrameBuffer
ImfNewHeader
ImfNewRound12logLut
ImfNewRoundNBitLut
ImfOpenInputFile
ImfOpenOutputFile
ImfOpenTiledInputFile
ImfOpenTiledOutputFile
ImfOutputChannels
ImfOutputCurrentScanLine
ImfOutputHeader
ImfOutputSetFrameBuffer
ImfOutputWritePixels
ImfTiledInputChannels
ImfTiledInputFileName
ImfTiledInputHeader
ImfTiledInputLevelMode
ImfTiledInputLevelRoundingMode
ImfTiledInputReadTile
ImfTiledInputReadTiles
ImfTiledInputSetFrameBuffer
ImfTiledInputTileXSize
ImfTiledInputTileYSize
ImfTiledOutputChannels
ImfTiledOutputHeader
ImfTiledOutputLevelMode
ImfTiledOutputLevelRoundingMode
ImfTiledOutputSetFrameBuffer
ImfTiledOutputTileXSize
ImfTiledOutputTileYSize
ImfTiledOutputWriteTile
ImfTiledOutputWriteTiles
_ZN4half7setBitsEt
_ZN7Imf_2_510Compressor12compressTileEPKciN9Imath_2_53BoxINS3_4Vec2IiEEEERS2_
_ZN7Imf_2_510Compressor14uncompressTileEPKciN9Imath_2_53BoxINS3_4Vec2IiEEEERS2_
_ZN7Imf_2_510CompressorC1ERKNS_6HeaderE
_ZN7Imf_2_510CompressorC2ERKNS_6HeaderE
_ZN7Imf_2_510CompressorD0Ev
_ZN7Imf_2_510CompressorD1Ev
_ZN7Imf_2_510CompressorD2Ev
_ZN7Imf_2_510LatLongMap13pixelPositionERKN9Imath_2_53BoxINS1_4Vec2IiEEEERKNS1_4Vec3IfEE
_ZN7Imf_2_510LatLongMap13pixelPositionERKN9Imath_2_53BoxINS1_4Vec2IiEEEERKNS3_IfEE
_ZN7Imf_2_510LatLongMap7latLongERKN9Imath_2_53BoxINS1_4Vec2IiEEEERKNS3_IfEE
_ZN7Imf_2_510LatLongMap7latLongERKN9Imath_2_54Vec3IfEE
_ZN7Imf_2_510LatLongMap9directionERKN9Imath_2_53BoxINS1_4Vec2IiEEEERKNS3_IfEE
_ZN7Imf_2_510OutputFile10copyPixelsERNS_9InputFileE
_ZN7Imf_2_510OutputFile10copyPixelsERNS_9InputPartE
_ZN7Imf_2_510OutputFile11writePixelsEi
_ZN7Imf_2_510OutputFile13breakScanLineEiiic
_ZN7Imf_2_510OutputFile14setFrameBufferERKNS_11FrameBufferE
_ZN7Imf_2_510OutputFile18updatePreviewImageEPKNS_11PreviewRgbaE
_ZN7Imf_2_510OutputFileC1EPKcRKNS_6HeaderEi
_ZN7Imf_2_510OutputFileC1ERNS_7OStreamERKNS_6HeaderEi
_ZN7Imf_2_510OutputFileC2EPKcRKNS_6HeaderEi
_ZN7Imf_2_510OutputFileC2ERNS_7OStreamERKNS_6HeaderEi
_ZN7Imf_2_510OutputFileD0Ev
_ZN7Imf_2_510OutputFileD1Ev
_ZN7Imf_2_510OutputFileD2Ev
_ZN7Imf_2_510OutputPart10copyPixelsERNS_9InputFileE
_ZN7Imf_2_510OutputPart10copyPixelsERNS_9InputPartE
_ZN7Imf_2_510OutputPart11writePixelsEi
_ZN7Imf_2_510OutputPart13breakScanLineEiiic
_ZN7Imf_2_510OutputPart14setFrameBufferERKNS_11FrameBufferE
_ZN7Imf_2_510OutputPart18updatePreviewImageEPKNS_11PreviewRgbaE
_ZN7Imf_2_510OutputPartC1ERNS_19MultiPartOutputFileEi
_ZN7Imf_2_510OutputPartC2ERNS_19MultiPartOutputFileEi
_ZN7Imf_2_510addCapDateERNS_6HeaderERKNSt7__cxx1112basic_stringIcSt11char_traitsIcESaIcEEE
_ZN7Imf_2_510addExpTimeERNS_6HeaderERKf
_ZN7Imf_2_510addKeyCodeERNS_6HeaderERKNS_7KeyCodeE
_ZN7Imf_2_510halfToUintE4half
_ZN7Imf_2_510hasCapDateERKNS_6HeaderE
_ZN7Imf_2_510hasExpTimeERKNS_6HeaderE
_ZN7Imf_2_510hasKeyCodeERKNS_6HeaderE
_ZN7Imf_2_510isDeepDataERKNSt7__cxx1112basic_stringIcSt11char_traitsIcESaIcEEE
_ZN7Imf_2_510isImfMagicEPKc
_ZN7Imf_2_510numSamplesEiii
_ZN7Imf_2_510round12logE4half
_ZN7Imf_2_510uintToHalfEj
_ZN7Imf_2_510wav2DecodeEPtiiiit
_ZN7Imf_2_510wav2EncodeEPtiiiit
_ZN7Imf_2_510worldToNDCERKNS_6HeaderE
_ZN7Imf_2_510worldToNDCERNS_6HeaderE
_ZN7Imf_2_511ChannelList11findChannelEPKc
_ZN7Imf_2_511ChannelList11findChannelERKNSt7__cxx1112basic_stringIcSt11char_traitsIcESaIcEEE
_ZN7Imf_2_511ChannelList13ConstIteratorC1ERKNS0_8IteratorE
_ZN7Imf_2_511ChannelList13ConstIteratorC1ERKSt23_Rb_tree_const_iteratorISt4pairIKNS_4NameENS_7ChannelEEE
_ZN7Imf_2_511ChannelList13ConstIteratorC1Ev
_ZN7Imf_2_511ChannelList13ConstIteratorC2ERKNS0_8IteratorE
_ZN7Imf_2_511ChannelList13ConstIteratorC2ERKSt23_Rb_tree_const_iteratorISt4pairIKNS_4NameENS_7ChannelEEE
_ZN7Imf_2_511ChannelList13ConstIteratorC2Ev
_ZN7Imf_2_511ChannelList13ConstIteratorppEi
_ZN7Imf_2_511ChannelList13ConstIteratorppEv
_ZN7Imf_2_511ChannelList15channelsInLayerERKNSt7__cxx1112basic_stringIcSt11char_traitsIcESaIcEEERNS0_8IteratorESA_
_ZN7Imf_2_511ChannelList18channelsWithPrefixEPKcRNS0_8IteratorES4_
_ZN7Imf_2_511ChannelList18channelsWithPrefixERKNSt7__cxx1112basic_stringIcSt11char_traitsIcESaIcEEERNS0_8IteratorESA_
_ZN7Imf_2_511ChannelList3endEv
_ZN7Imf_2_511ChannelList4findEPKc
_ZN7Imf_2_511ChannelList4findERKNSt7__cxx1112basic_stringIcSt11char_traitsIcESaIcEEE
_ZN7Imf_2_511ChannelList5beginEv
_ZN7Imf_2_511ChannelList6insertEPKcRKNS_7ChannelE
_ZN7Imf_2_511ChannelList6insertERKNSt7__cxx1112basic_stringIcSt11char_traitsIcESaIcEEERKNS_7ChannelE
_ZN7Imf_2_511ChannelList8IteratorC1ERKSt17_Rb_tree_iteratorISt4pairIKNS_4NameENS_7ChannelEEE
_ZN7Imf_2_511ChannelList8IteratorC1Ev
_ZN7Imf_2_511ChannelList8IteratorC2ERKSt17_Rb_tree_iteratorISt4pairIKNS_4NameENS_7ChannelEEE
_ZN7Imf_2_511ChannelList8IteratorC2Ev
_ZN7Imf_2_511ChannelList8IteratorppEi
_ZN7Imf_2_511ChannelList8IteratorppEv
_ZN7Imf_2_511ChannelListixEPKc
_ZN7Imf_2_511ChannelListixERKNSt7__cxx1112basic_stringIcSt11char_traitsIcESaIcEEE
_ZN7Imf_2_511FrameBuffer13ConstIteratorC1ERKNS0_8IteratorE
_ZN7Imf_2_511FrameBuffer13ConstIteratorC1ERKSt23_Rb_tree_const_iteratorISt4pairIKNS_4NameENS_5SliceEEE
_ZN7Imf_2_511FrameBuffer13ConstIteratorC1Ev
_ZN7Imf_2_511FrameBuffer13ConstIteratorC2ERKNS0_8IteratorE
_ZN7Imf_2_511FrameBuffer13ConstIteratorC2ERKSt23_Rb_tree_const_iteratorISt4pairIKNS_4NameENS_5SliceEEE
_ZN7Imf_2_511FrameBuffer13ConstIteratorC2Ev
_ZN7Imf_2_511FrameBuffer13ConstIteratorppEi
_ZN7Imf_2_511FrameBuffer13ConstIteratorppEv
_ZN7Imf_2_511FrameBuffer3endEv
_ZN7Imf_2_511FrameBuffer4findEPKc
_ZN7Imf_2_511FrameBuffer4findERKNSt7__cxx1112basic_stringIcSt11char_traitsIcESaIcEEE
_ZN7Imf_2_511FrameBuffer5beginEv
_ZN7Imf_2_511FrameBuffer6insertEPKcRKNS_5SliceE
_ZN7Imf_2_511FrameBuffer6insertERKNSt7__cxx1112basic_stringIcSt11char_traitsIcESaIcEEERKNS_5SliceE
_ZN7Imf_2_511FrameBuffer8IteratorC1ERKSt17_Rb_tree_iteratorISt4pairIKNS_4NameENS_5SliceEEE
_ZN7Imf_2_511FrameBuffer8IteratorC1Ev
_ZN7Imf_2_511FrameBuffer8IteratorC2ERKSt17_Rb_tree_iteratorISt4pairIKNS_4NameENS_5SliceEEE
_ZN7Imf_2_511FrameBuffer8IteratorC2Ev
_ZN7Imf_2_511FrameBuffer8IteratorppEi
_ZN7Imf_2_511FrameBuffer8IteratorppEv
_ZN7Imf_2_511FrameBuffer9findSliceEPKc
_ZN7Imf_2_511FrameBuffer9findSliceERKNSt7__cxx1112basic_stringIcSt11char_traitsIcESaIcEEE
_ZN7Imf_2_511FrameBufferixEPKc
_ZN7Imf_2_511FrameBufferixERKNSt7__cxx1112basic_stringIcSt11char_traitsIcESaIcEEE
_ZN7Imf_2_511StdIFStream4readEPci
_ZN7Imf_2_511StdIFStream5clearEv
_ZN7Imf_2_511StdIFStream5seekgEy
_ZN7Imf_2_511StdIFStream5tellgEv
_ZN7Imf_2_511StdIFStreamC1EPKc
_ZN7Imf_2_511StdIFStreamC1ERSt14basic_ifstreamIcSt11char_traitsIcEEPKc
_ZN7Imf_2_511StdIFStreamC2EPKc
_ZN7Imf_2_511StdIFStreamC2ERSt14basic_ifstreamIcSt11char_traitsIcEEPKc
_ZN7Imf_2_511StdIFStreamD0Ev
_ZN7Imf_2_511StdIFStreamD1Ev
_ZN7Imf_2_511StdIFStreamD2Ev
_ZN7Imf_2_511StdISStream3strERKNSt7__cxx1112basic_stringIcSt11char_traitsIcESaIcEEE
_ZN7Imf_2_511StdISStream4readEPci
_ZN7Imf_2_511StdISStream5clearEv
_ZN7Imf_2_511StdISStream5seekgEy
_ZN7Imf_2_511StdISStream5tellgEv
_ZN7Imf_2_511StdISStreamC1Ev
_ZN7Imf_2_511StdISStreamC2Ev
_ZN7Imf_2_511StdOFStream5seekpEy
_ZN7Imf_2_511StdOFStream5tellpEv
_ZN7Imf_2_511StdOFStream5writeEPKci
_ZN7Imf_2_511StdOFStreamC1EPKc
_ZN7Imf_2_511StdOFStreamC1ERSt14basic_ofstreamIcSt11char_traitsIcEEPKc
_ZN7Imf_2_511StdOFStreamC2EPKc
_ZN7Imf_2_511StdOFStreamC2ERSt14basic_ofstreamIcSt11char_traitsIcEEPKc
_ZN7Imf_2_511StdOFStreamD0Ev
_ZN7Imf_2_511StdOFStreamD1Ev
_ZN7Imf_2_511StdOFStreamD2Ev
_ZN7Imf_2_511StdOSStream5seekpEy
_ZN7Imf_2_511StdOSStream5tellpEv
_ZN7Imf_2_511StdOSStream5writeEPKci
_ZN7Imf_2_511StdOSStreamC1Ev
_ZN7Imf_2_511StdOSStreamC2Ev
_ZN7Imf_2_511TileOffsets8readFromERNS_7IStreamERbbb
_ZN7Imf_2_511TileOffsets8readFromESt6vectorIySaIyEERb
_ZN7Imf_2_511TileOffsetsC1ENS_9LevelModeEiiPKiS3_
_ZN7Imf_2_511TileOffsetsC2ENS_9LevelModeEiiPKiS3_
_ZN7Imf_2_511TileOffsetsclEiii
_ZN7Imf_2_511TileOffsetsclEiiii
_ZN7Imf_2_511addAltitudeERNS_6HeaderERKf
_ZN7Imf_2_511addApertureERNS_6HeaderERKf
_ZN7Imf_2_511addCommentsERNS_6HeaderERKNSt7__cxx1112basic_stringIcSt11char_traitsIcESaIcEEE
_ZN7Imf_2_511addIsoSpeedERNS_6HeaderERKf
_ZN7Imf_2_511addLatitudeERNS_6HeaderERKf
_ZN7Imf_2_511addTimeCodeERNS_6HeaderERKNS_8TimeCodeE
_ZN7Imf_2_511addXDensityERNS_6HeaderERKf
_ZN7Imf_2_511floatToHalfEf
_ZN7Imf_2_511floatToUintEf
_ZN7Imf_2_511hasAltitudeERKNS_6HeaderE
_ZN7Imf_2_511hasApertureERKNS_6HeaderE
_ZN7Imf_2_511hasCommentsERKNS_6HeaderE
_ZN7Imf_2_511hasIsoSpeedERKNS_6HeaderE
_ZN7Imf_2_511hasLatitudeERKNS_6HeaderE
_ZN7Imf_2_511hasTimeCodeERKNS_6HeaderE
_ZN7Imf_2_511hasXDensityERKNS_6HeaderE
_ZN7Imf_2_511hufCompressEPKtiPc
_ZN7Imf_2_511rleCompressEiPKcPa
_ZN7Imf_2_511skipChannelERPKcNS_9PixelTypeEy
_ZN7Imf_2_512PreviewImageC1ERKS0_
_ZN7Imf_2_512PreviewImageC1EjjPKNS_11PreviewRgbaE
_ZN7Imf_2_512PreviewImageC2ERKS0_
_ZN7Imf_2_512PreviewImageC2EjjPKNS_11PreviewRgbaE
_ZN7Imf_2_512PreviewImageD1Ev
_ZN7Imf_2_512PreviewImageD2Ev
_ZN7Imf_2_512PreviewImageaSERKS0_
_ZN7Imf_2_512addLongitudeERNS_6HeaderERKf
_ZN7Imf_2_512addMultiViewERNS_6HeaderERKSt6vectorINSt7__cxx1112basic_stringIcSt11char_traitsIcESaIcEEESaIS8_EE
_ZN7Imf_2_512addUtcOffsetERNS_6HeaderERKf
_ZN7Imf_2_512addWrapmodesERNS_6HeaderERKNSt7__cxx1112basic_stringIcSt11char_traitsIcESaIcEEE
_ZN7Imf_2_512hasLongitudeERKNS_6HeaderE
_ZN7Imf_2_512hasMultiViewERKNS_6HeaderE
_ZN7Imf_2_512hasUtcOffsetERKNS_6HeaderE
_ZN7Imf_2_512hasWrapmodesERKNS_6HeaderE
_ZN7Imf_2_513AcesInputFile10readPixelsEi
_ZN7Imf_2_513AcesInputFile10readPixelsEii
_ZN7Imf_2_513AcesInputFile14setFrameBufferEPNS_4RgbaEyy
_ZN7Imf_2_513AcesInputFileC1ERKNSt7__cxx1112basic_stringIcSt11char_traitsIcESaIcEEEi
_ZN7Imf_2_513AcesInputFileC1ERNS_7IStreamEi
_ZN7Imf_2_513AcesInputFileC2ERKNSt7__cxx1112basic_stringIcSt11char_traitsIcESaIcEEEi
_ZN7Imf_2_513AcesInputFileC2ERNS_7IStreamEi
_ZN7Imf_2_513AcesInputFileD0Ev
_ZN7Imf_2_513AcesInputFileD1Ev
_ZN7Imf_2_513AcesInputFileD2Ev
_ZN7Imf_2_513B44Compressor10uncompressEPKciiRS2_
_ZN7Imf_2_513B44Compressor12compressTileEPKciN9Imath_2_53BoxINS3_4Vec2IiEEEERS2_
_ZN7Imf_2_513B44Compressor14uncompressTileEPKciN9Imath_2_53BoxINS3_4Vec2IiEEEERS2_
_ZN7Imf_2_513B44Compressor8compressEPKciiRS2_
_ZN7Imf_2_513B44CompressorC1ERKNS_6HeaderEyyb
_ZN7Imf_2_513B44CompressorC2ERKNS_6HeaderEyyb
_ZN7Imf_2_513B44CompressorD0Ev
_ZN7Imf_2_513B44CompressorD1Ev
_ZN7Imf_2_513B44CompressorD2Ev
_ZN7Imf_2_513DwaCompressor10uncompressEPKciiRS2_
_ZN7Imf_2_513DwaCompressor12compressTileEPKciN9Imath_2_53BoxINS3_4Vec2IiEEEERS2_
_ZN7Imf_2_513DwaCompressor14uncompressTileEPKciN9Imath_2_53BoxINS3_4Vec2IiEEEERS2_
_ZN7Imf_2_513DwaCompressor15initializeFuncsEv
_ZN7Imf_2_513DwaCompressor8compressEPKciiRS2_
_ZN7Imf_2_513DwaCompressorC1ERKNS_6HeaderEiiNS0_13AcCompressionE
_ZN7Imf_2_513DwaCompressorC2ERKNS_6HeaderEiiNS0_13AcCompressionE
_ZN7Imf_2_513DwaCompressorD0Ev
_ZN7Imf_2_513DwaCompressorD1Ev
_ZN7Imf_2_513DwaCompressorD2Ev
_ZN7Imf_2_513InputPartDataC1EPNS_16InputStreamMutexERKNS_6HeaderEiii
_ZN7Imf_2_513InputPartDataC2EPNS_16InputStreamMutexERKNS_6HeaderEiii
_ZN7Imf_2_513PizCompressor10uncompressEPKciiRS2_
_ZN7Imf_2_513PizCompressor12compressTileEPKciN9Imath_2_53BoxINS3_4Vec2IiEEEERS2_
_ZN7Imf_2_513PizCompressor14uncompressTileEPKciN9Imath_2_53BoxINS3_4Vec2IiEEEERS2_
_ZN7Imf_2_513PizCompressor8compressEPKciiRS2_
_ZN7Imf_2_513PizCompressorC1ERKNS_6HeaderEyy
_ZN7Imf_2_513PizCompressorC2ERKNS_6HeaderEyy
_ZN7Imf_2_513PizCompressorD0Ev
_ZN7Imf_2_513PizCompressorD1Ev
_ZN7Imf_2_513PizCompressorD2Ev
_ZN7Imf_2_513RgbaInputFile10readPixelsEi
_ZN7Imf_2_513RgbaInputFile10readPixelsEii
_ZN7Imf_2_513RgbaInputFile12setLayerNameERKNSt7__cxx1112basic_stringIcSt11char_traitsIcESaIcEEE
_ZN7Imf_2_513RgbaInputFile14setFrameBufferEPNS_4RgbaEyy
_ZN7Imf_2_513RgbaInputFileC1EPKcRKNSt7__cxx1112basic_stringIcSt11char_traitsIcESaIcEEEi
_ZN7Imf_2_513RgbaInputFileC1EPKci
_ZN7Imf_2_513RgbaInputFileC1ERNS_7IStreamERKNSt7__cxx1112basic_stringIcSt11char_traitsIcESaIcEEEi
_ZN7Imf_2_513RgbaInputFileC1ERNS_7IStreamEi
_ZN7Imf_2_513RgbaInputFileC2EPKcRKNSt7__cxx1112basic_stringIcSt11char_traitsIcESaIcEEEi
_ZN7Imf_2_513RgbaInputFileC2EPKci
_ZN7Imf_2_513RgbaInputFileC2ERNS_7IStreamERKNSt7__cxx1112basic_stringIcSt11char_traitsIcESaIcEEEi
_ZN7Imf_2_513RgbaInputFileC2ERNS_7IStreamEi
_ZN7Imf_2_513RgbaInputFileD0Ev
_ZN7Imf_2_513RgbaInputFileD1Ev
_ZN7Imf_2_513RgbaInputFileD2Ev
_ZN7Imf_2_513RleCompressor10uncompressEPKciiRS2_
_ZN7Imf_2_513RleCompressor8compressEPKciiRS2_
_ZN7Imf_2_513RleCompressorC1ERKNS_6HeaderEy
_ZN7Imf_2_513RleCompressorC2ERKNS_6HeaderEy
_ZN7Imf_2_513RleCompressorD0Ev
_ZN7Imf_2_513RleCompressorD1Ev
_ZN7Imf_2_513RleCompressorD2Ev
_ZN7Imf_2_513ZipCompressor10uncompressEPKciiRS2_
_ZN7Imf_2_513ZipCompressor8compressEPKciiRS2_
_ZN7Imf_2_513ZipCompressorC1ERKNS_6HeaderEyy
_ZN7Imf_2_513ZipCompressorC2ERKNS_6HeaderEyy
_ZN7Imf_2_513ZipCompressorD0Ev
_ZN7Imf_2_513ZipCompressorD1Ev
_ZN7Imf_2_513ZipCompressorD2Ev
_ZN7Imf_2_513addWorldToNDCERNS_6HeaderERKN9Imath_2_58Matrix44IfEE
_ZN7Imf_2_513defaultFormatEPNS_10CompressorE
_ZN7Imf_2_513guessExactFpsERKNS_8RationalE
_ZN7Imf_2_513guessExactFpsEd
_ZN7Imf_2_513hasWorldToNDCERKNS_6HeaderE
_ZN7Imf_2_513hufUncompressEPKciPti
_ZN7Imf_2_513isOpenExrFileEPKc
_ZN7Imf_2_513isOpenExrFileEPKcRb
_ZN7Imf_2_513isOpenExrFileEPKcRbS2_
_ZN7Imf_2_513isOpenExrFileEPKcRbS2_S2_
_ZN7Imf_2_513isOpenExrFileERNS_7IStreamE
_ZN7Imf_2_513isOpenExrFileERNS_7IStreamERb
_ZN7Imf_2_513isOpenExrFileERNS_7IStreamERbS2_
_ZN7Imf_2_513isOpenExrFileERNS_7IStreamERbS2_S2_
_ZN7Imf_2_513newCompressorENS_11CompressionEyRKNS_6HeaderE
_ZN7Imf_2_513pixelTypeSizeENS_9PixelTypeE
_ZN7Imf_2_513rleUncompressEiiPKaPc
_ZN7Imf_2_513usesLongNamesERKNS_6HeaderE
_ZN7Imf_2_513worldToCameraERKNS_6HeaderE
_ZN7Imf_2_513worldToCameraERNS_6HeaderE
_ZN7Imf_2_514AcesOutputFile11writePixelsEi
_ZN7Imf_2_514AcesOutputFile14setFrameBufferEPKNS_4RgbaEyy
_ZN7Imf_2_514AcesOutputFile18updatePreviewImageEPKNS_11PreviewRgbaE
_ZN7Imf_2_514AcesOutputFileC1ERKNSt7__cxx1112basic_stringIcSt11char_traitsIcESaIcEEERKN9Imath_2_53BoxINS9_4Vec2IiEEEESF_NS_12RgbaChannelsEfNSB_IfEEfNS_9LineOrderENS_11CompressionEi
_ZN7Imf_2_514AcesOutputFileC1ERKNSt7__cxx1112basic_stringIcSt11char_traitsIcESaIcEEERKNS_6HeaderENS_12RgbaChannelsEi
_ZN7Imf_2_514AcesOutputFileC1ERKNSt7__cxx1112basic_stringIcSt11char_traitsIcESaIcEEEiiNS_12RgbaChannelsEfN9Imath_2_54Vec2IfEEfNS_9LineOrderENS_11CompressionEi
_ZN7Imf_2_514AcesOutputFileC1ERNS_7OStreamERKNS_6HeaderENS_12RgbaChannelsEi
_ZN7Imf_2_514AcesOutputFileC2ERKNSt7__cxx1112basic_stringIcSt11char_traitsIcESaIcEEERKN9Imath_2_53BoxINS9_4Vec2IiEEEESF_NS_12RgbaChannelsEfNSB_IfEEfNS_9LineOrderENS_11CompressionEi
_ZN7Imf_2_514AcesOutputFileC2ERKNSt7__cxx1112basic_stringIcSt11char_traitsIcESaIcEEERKNS_6HeaderENS_12RgbaChannelsEi
_ZN7Imf_2_514AcesOutputFileC2ERKNSt7__cxx1112basic_stringIcSt11char_traitsIcESaIcEEEiiNS_12RgbaChannelsEfN9Imath_2_54Vec2IfEEfNS_9LineOrderENS_11CompressionEi
_ZN7Imf_2_514AcesOutputFileC2ERNS_7OStreamERKNS_6HeaderENS_12RgbaChannelsEi
_ZN7Imf_2_514AcesOutputFileD0Ev
_ZN7Imf_2_514AcesOutputFileD1Ev
_ZN7Imf_2_514AcesOutputFileD2Ev
_ZN7Imf_2_514ChromaticitiesC1ERKN9Imath_2_54Vec2IfEES5_S5_S5_
_ZN7Imf_2_514ChromaticitiesC2ERKN9Imath_2_54Vec2IfEES5_S5_S5_
_ZN7Imf_2_514FastHufDecoder6decodeEPKhiPti
_ZN7Imf_2_514FastHufDecoder7enabledEv
_ZN7Imf_2_514FastHufDecoderC1ERPKciiii
_ZN7Imf_2_514FastHufDecoderC2ERPKciiii
_ZN7Imf_2_514FastHufDecoderD1Ev
_ZN7Imf_2_514FastHufDecoderD2Ev
_ZN7Imf_2_514OutputPartDataC1EPNS_17OutputStreamMutexERKNS_6HeaderEiib
_ZN7Imf_2_514OutputPartDataC2EPNS_17OutputStreamMutexERKNS_6HeaderEiib
_ZN7Imf_2_514RgbaOutputFile11writePixelsEi
_ZN7Imf_2_514RgbaOutputFile13breakScanLineEiiic
_ZN7Imf_2_514RgbaOutputFile13setYCRoundingEjj
_ZN7Imf_2_514RgbaOutputFile14setFrameBufferEPKNS_4RgbaEyy
_ZN7Imf_2_514RgbaOutputFile18updatePreviewImageEPKNS_11PreviewRgbaE
_ZN7Imf_2_514RgbaOutputFileC1EPKcRKN9Imath_2_53BoxINS3_4Vec2IiEEEES9_NS_12RgbaChannelsEfNS5_IfEEfNS_9LineOrderENS_11CompressionEi
_ZN7Imf_2_514RgbaOutputFileC1EPKcRKNS_6HeaderENS_12RgbaChannelsEi
_ZN7Imf_2_514RgbaOutputFileC1EPKciiNS_12RgbaChannelsEfN9Imath_2_54Vec2IfEEfNS_9LineOrderENS_11CompressionEi
_ZN7Imf_2_514RgbaOutputFileC1ERNS_7OStreamERKNS_6HeaderENS_12RgbaChannelsEi
_ZN7Imf_2_514RgbaOutputFileC2EPKcRKN9Imath_2_53BoxINS3_4Vec2IiEEEES9_NS_12RgbaChannelsEfNS5_IfEEfNS_9LineOrderENS_11CompressionEi
_ZN7Imf_2_514RgbaOutputFileC2EPKcRKNS_6HeaderENS_12RgbaChannelsEi
_ZN7Imf_2_514RgbaOutputFileC2EPKciiNS_12RgbaChannelsEfN9Imath_2_54Vec2IfEEfNS_9LineOrderENS_11CompressionEi
_ZN7Imf_2_514RgbaOutputFileC2ERNS_7OStreamERKNS_6HeaderENS_12RgbaChannelsEi
_ZN7Imf_2_514RgbaOutputFileD0Ev
_ZN7Imf_2_514RgbaOutputFileD1Ev
_ZN7Imf_2_514RgbaOutputFileD2Ev
_ZN7Imf_2_514TiledInputFile11rawTileDataERiS1_S1_S1_RPKcS1_
_ZN7Imf_2_514TiledInputFile14setFrameBufferERKNS_11FrameBufferE
_ZN7Imf_2_514TiledInputFile8readTileEiii
_ZN7Imf_2_514TiledInputFile8readTileEiiii
_ZN7Imf_2_514TiledInputFile9readTilesEiiiii
_ZN7Imf_2_514TiledInputFile9readTilesEiiiiii
_ZN7Imf_2_514TiledInputFileC1EPKci
_ZN7Imf_2_514TiledInputFileC1ERNS_7IStreamEi
_ZN7Imf_2_514TiledInputFileC2EPKci
_ZN7Imf_2_514TiledInputFileC2ERNS_7IStreamEi
_ZN7Imf_2_514TiledInputFileD0Ev
_ZN7Imf_2_514TiledInputFileD1Ev
_ZN7Imf_2_514TiledInputFileD2Ev
_ZN7Imf_2_514TiledInputPart11rawTileDataERiS1_S1_S1_RPKcS1_
_ZN7Imf_2_514TiledInputPart14setFrameBufferERKNS_11FrameBufferE
_ZN7Imf_2_514TiledInputPart8readTileEiii
_ZN7Imf_2_514TiledInputPart8readTileEiiii
_ZN7Imf_2_514TiledInputPart9readTilesEiiiii
_ZN7Imf_2_514TiledInputPart9readTilesEiiiiii
_ZN7Imf_2_514TiledInputPartC1ERNS_18MultiPartInputFileEi
_ZN7Imf_2_514TiledInputPartC2ERNS_18MultiPartInputFileEi
_ZN7Imf_2_514TypedAttributeIN9Imath_2_53BoxINS1_4Vec2IfEEEEE13readValueFromERNS_7IStreamEii
_ZN7Imf_2_514TypedAttributeIN9Imath_2_53BoxINS1_4Vec2IfEEEEE14staticTypeNameEv
_ZN7Imf_2_514TypedAttributeIN9Imath_2_53BoxINS1_4Vec2IiEEEEE13readValueFromERNS_7IStreamEii
_ZN7Imf_2_514TypedAttributeIN9Imath_2_53BoxINS1_4Vec2IiEEEEE14staticTypeNameEv
_ZN7Imf_2_514TypedAttributeIN9Imath_2_54Vec2IdEEE13readValueFromERNS_7IStreamEii
_ZN7Imf_2_514TypedAttributeIN9Imath_2_54Vec2IdEEE14staticTypeNameEv
_ZN7Imf_2_514TypedAttributeIN9Imath_2_54Vec2IfEEE13readValueFromERNS_7IStreamEii
_ZN7Imf_2_514TypedAttributeIN9Imath_2_54Vec2IfEEE14staticTypeNameEv
_ZN7Imf_2_514TypedAttributeIN9Imath_2_54Vec2IiEEE13readValueFromERNS_7IStreamEii
_ZN7Imf_2_514TypedAttributeIN9Imath_2_54Vec2IiEEE14staticTypeNameEv
_ZN7Imf_2_514TypedAttributeIN9Imath_2_54Vec3IdEEE13readValueFromERNS_7IStreamEii
_ZN7Imf_2_514TypedAttributeIN9Imath_2_54Vec3IdEEE14staticTypeNameEv
_ZN7Imf_2_514TypedAttributeIN9Imath_2_54Vec3IfEEE13readValueFromERNS_7IStreamEii
_ZN7Imf_2_514TypedAttributeIN9Imath_2_54Vec3IfEEE14staticTypeNameEv
_ZN7Imf_2_514TypedAttributeIN9Imath_2_54Vec3IiEEE13readValueFromERNS_7IStreamEii
_ZN7Imf_2_514TypedAttributeIN9Imath_2_54Vec3IiEEE14staticTypeNameEv
_ZN7Imf_2_514TypedAttributeIN9Imath_2_58Matrix33IdEEE13readValueFromERNS_7IStreamEii
_ZN7Imf_2_514TypedAttributeIN9Imath_2_58Matrix33IdEEE14staticTypeNameEv
_ZN7Imf_2_514TypedAttributeIN9Imath_2_58Matrix33IfEEE13readValueFromERNS_7IStreamEii
_ZN7Imf_2_514TypedAttributeIN9Imath_2_58Matrix33IfEEE14staticTypeNameEv
_ZN7Imf_2_514TypedAttributeIN9Imath_2_58Matrix44IdEEE13readValueFromERNS_7IStreamEii
_ZN7Imf_2_514TypedAttributeIN9Imath_2_58Matrix44IdEEE14staticTypeNameEv
_ZN7Imf_2_514TypedAttributeIN9Imath_2_58Matrix44IfEEE13readValueFromERNS_7IStreamEii
_ZN7Imf_2_514TypedAttributeIN9Imath_2_58Matrix44IfEEE14staticTypeNameEv
_ZN7Imf_2_514TypedAttributeINS_11ChannelListEE13readValueFromERNS_7IStreamEii
_ZN7Imf_2_514TypedAttributeINS_11ChannelListEE14staticTypeNameEv
_ZN7Imf_2_514TypedAttributeINS_11CompressionEE13readValueFromERNS_7IStreamEii
_ZN7Imf_2_514TypedAttributeINS_11CompressionEE14staticTypeNameEv
_ZN7Imf_2_514TypedAttributeINS_12PreviewImageEE13readValueFromERNS_7IStreamEii
_ZN7Imf_2_514TypedAttributeINS_12PreviewImageEE14staticTypeNameEv
_ZN7Imf_2_514TypedAttributeINS_14ChromaticitiesEE13readValueFromERNS_7IStreamEii
_ZN7Imf_2_514TypedAttributeINS_14ChromaticitiesEE14staticTypeNameEv
_ZN7Imf_2_514TypedAttributeINS_14DeepImageStateEE13readValueFromERNS_7IStreamEii
_ZN7Imf_2_514TypedAttributeINS_14DeepImageStateEE14staticTypeNameEv
_ZN7Imf_2_514TypedAttributeINS_15TileDescriptionEE13readValueFromERNS_7IStreamEii
_ZN7Imf_2_514TypedAttributeINS_15TileDescriptionEE14staticTypeNameEv
_ZN7Imf_2_514TypedAttributeINS_6EnvmapEE13readValueFromERNS_7IStreamEii
_ZN7Imf_2_514TypedAttributeINS_6EnvmapEE14staticTypeNameEv
_ZN7Imf_2_514TypedAttributeINS_7KeyCodeEE13readValueFromERNS_7IStreamEii
_ZN7Imf_2_514TypedAttributeINS_7KeyCodeEE14staticTypeNameEv
_ZN7Imf_2_514TypedAttributeINS_8RationalEE13readValueFromERNS_7IStreamEii
_ZN7Imf_2_514TypedAttributeINS_8RationalEE14staticTypeNameEv
_ZN7Imf_2_514TypedAttributeINS_8TimeCodeEE13readValueFromERNS_7IStreamEii
_ZN7Imf_2_514TypedAttributeINS_8TimeCodeEE14staticTypeNameEv
_ZN7Imf_2_514TypedAttributeINS_9LineOrderEE13readValueFromERNS_7IStreamEii
_ZN7Imf_2_514TypedAttributeINS_9LineOrderEE14staticTypeNameEv
_ZN7Imf_2_514TypedAttributeINSt7__cxx1112basic_stringIcSt11char_traitsIcESaIcEEEE13readValueFromERNS_7IStreamEii
_ZN7Imf_2_514TypedAttributeINSt7__cxx1112basic_stringIcSt11char_traitsIcESaIcEEEE14staticTypeNameEv
_ZN7Imf_2_514TypedAttributeISt6vectorINSt7__cxx1112basic_stringIcSt11char_traitsIcESaIcEEESaIS7_EEE13readValueFromERNS_7IStreamEii
_ZN7Imf_2_514TypedAttributeISt6vectorINSt7__cxx1112basic_stringIcSt11char_traitsIcESaIcEEESaIS7_EEE14staticTypeNameEv
_ZN7Imf_2_514TypedAttributeISt6vectorIfSaIfEEE13readValueFromERNS_7IStreamEii
_ZN7Imf_2_514TypedAttributeISt6vectorIfSaIfEEE14staticTypeNameEv
_ZN7Imf_2_514TypedAttributeIdE14staticTypeNameEv
_ZN7Imf_2_514TypedAttributeIfE14staticTypeNameEv
_ZN7Imf_2_514TypedAttributeIiE14staticTypeNameEv
_ZN7Imf_2_514adoptedNeutralERKNS_6HeaderE
_ZN7Imf_2_514adoptedNeutralERNS_6HeaderE
_ZN7Imf_2_514channelsInViewERKNSt7__cxx1112basic_stringIcSt11char_traitsIcESaIcEEERKNS_11ChannelListERKSt6vectorIS5_SaIS5_EE
_ZN7Imf_2_514chromaticitiesERKNS_6HeaderE
_ZN7Imf_2_514chromaticitiesERNS_6HeaderE
_ZN7Imf_2_514convertInPlaceERPcRPKcNS_9PixelTypeEy
_ZN7Imf_2_514deepImageStateERKNS_6HeaderE
_ZN7Imf_2_514deepImageStateERNS_6HeaderE
_ZN7Imf_2_514focusAttributeERKNS_6HeaderE
_ZN7Imf_2_514focusAttributeERNS_6HeaderE
_ZN7Imf_2_514insertViewNameERKNSt7__cxx1112basic_stringIcSt11char_traitsIcESaIcEEERKSt6vectorIS5_SaIS5_EEi
_ZN7Imf_2_514lineBufferMaxYEiii
_ZN7Imf_2_514lineBufferMinYEiii
_ZN7Imf_2_514ownerAttributeB5cxx11ERKNS_6HeaderE
_ZN7Imf_2_514ownerAttributeB5cxx11ERNS_6HeaderE
_ZN7Imf_2_514removeViewNameERKNSt7__cxx1112basic_stringIcSt11char_traitsIcESaIcEEES7_
_ZN7Imf_2_514whiteLuminanceERKNS_6HeaderE
_ZN7Imf_2_514whiteLuminanceERNS_6HeaderE
_ZN7Imf_2_515DeepCompositing15composite_pixelEPfPPKfPPKciii
_ZN7Imf_2_515DeepCompositing4sortEPiPPKfPPKciii
_ZN7Imf_2_515DeepCompositingC1Ev
_ZN7Imf_2_515DeepCompositingC2Ev
_ZN7Imf_2_515DeepCompositingD0Ev
_ZN7Imf_2_515DeepCompositingD1Ev
_ZN7Imf_2_515DeepCompositingD2Ev
_ZN7Imf_2_515DeepFrameBuffer13ConstIteratorC1ERKNS0_8IteratorE
_ZN7Imf_2_515DeepFrameBuffer13ConstIteratorC1ERKSt23_Rb_tree_const_iteratorISt4pairIKNS_4NameENS_9DeepSliceEEE
_ZN7Imf_2_515DeepFrameBuffer13ConstIteratorC1Ev
_ZN7Imf_2_515DeepFrameBuffer13ConstIteratorC2ERKNS0_8IteratorE
_ZN7Imf_2_515DeepFrameBuffer13ConstIteratorC2ERKSt23_Rb_tree_const_iteratorISt4pairIKNS_4NameENS_9DeepSliceEEE
_ZN7Imf_2_515DeepFrameBuffer13ConstIteratorC2Ev
_ZN7Imf_2_515DeepFrameBuffer13ConstIteratorppEi
_ZN7Imf_2_515DeepFrameBuffer13ConstIteratorppEv
_ZN7Imf_2_515DeepFrameBuffer22insertSampleCountSliceERKNS_5SliceE
_ZN7Imf_2_515DeepFrameBuffer3endEv
_ZN7Imf_2_515DeepFrameBuffer4findEPKc
_ZN7Imf_2_515DeepFrameBuffer4findERKNSt7__cxx1112basic_stringIcSt11char_traitsIcESaIcEEE
_ZN7Imf_2_515DeepFrameBuffer5beginEv
_ZN7Imf_2_515DeepFrameBuffer6insertEPKcRKNS_9DeepSliceE
_ZN7Imf_2_515DeepFrameBuffer6insertERKNSt7__cxx1112basic_stringIcSt11char_traitsIcESaIcEEERKNS_9DeepSliceE
_ZN7Imf_2_515DeepFrameBuffer8IteratorC1ERKSt17_Rb_tree_iteratorISt4pairIKNS_4NameENS_9DeepSliceEEE
_ZN7Imf_2_515DeepFrameBuffer8IteratorC1Ev
_ZN7Imf_2_515DeepFrameBuffer8IteratorC2ERKSt17_Rb_tree_iteratorISt4pairIKNS_4NameENS_9DeepSliceEEE
_ZN7Imf_2_515DeepFrameBuffer8IteratorC2Ev
_ZN7Imf_2_515DeepFrameBuffer8IteratorppEi
_ZN7Imf_2_515DeepFrameBuffer8IteratorppEv
_ZN7Imf_2_515DeepFrameBuffer9findSliceEPKc
_ZN7Imf_2_515DeepFrameBuffer9findSliceERKNSt7__cxx1112basic_stringIcSt11char_traitsIcESaIcEEE
_ZN7Imf_2_515DeepFrameBufferixEPKc
_ZN7Imf_2_515DeepFrameBufferixERKNSt7__cxx1112basic_stringIcSt11char_traitsIcESaIcEEE
_ZN7Imf_2_515OpaqueAttribute13copyValueFromERKNS_9AttributeE
_ZN7Imf_2_515OpaqueAttribute13readValueFromERNS_7IStreamEii
_ZN7Imf_2_515OpaqueAttributeC1EPKc
_ZN7Imf_2_515OpaqueAttributeC1ERKS0_
_ZN7Imf_2_515OpaqueAttributeC2EPKc
_ZN7Imf_2_515OpaqueAttributeC2ERKS0_
_ZN7Imf_2_515OpaqueAttributeD0Ev
_ZN7Imf_2_515OpaqueAttributeD1Ev
_ZN7Imf_2_515OpaqueAttributeD2Ev
_ZN7Imf_2_515Pxr24Compressor10uncompressEPKciiRS2_
_ZN7Imf_2_515Pxr24Compressor12compressTileEPKciN9Imath_2_53BoxINS3_4Vec2IiEEEERS2_
_ZN7Imf_2_515Pxr24Compressor14uncompressTileEPKciN9Imath_2_53BoxINS3_4Vec2IiEEEERS2_
_ZN7Imf_2_515Pxr24Compressor8compressEPKciiRS2_
_ZN7Imf_2_515Pxr24CompressorC1ERKNS_6HeaderEyy
_ZN7Imf_2_515Pxr24CompressorC2ERKNS_6HeaderEyy
_ZN7Imf_2_515Pxr24CompressorD0Ev
_ZN7Imf_2_515Pxr24CompressorD1Ev
_ZN7Imf_2_515Pxr24CompressorD2Ev
_ZN7Imf_2_515TiledOutputFile10copyPixelsERNS_14TiledInputFileE
_ZN7Imf_2_515TiledOutputFile10copyPixelsERNS_14TiledInputPartE
_ZN7Imf_2_515TiledOutputFile10copyPixelsERNS_9InputFileE
_ZN7Imf_2_515TiledOutputFile10copyPixelsERNS_9InputPartE
_ZN7Imf_2_515TiledOutputFile10writeTilesEiiiii
_ZN7Imf_2_515TiledOutputFile10writeTilesEiiiiii
_ZN7Imf_2_515TiledOutputFile14setFrameBufferERKNS_11FrameBufferE
_ZN7Imf_2_515TiledOutputFile18updatePreviewImageEPKNS_11PreviewRgbaE
_ZN7Imf_2_515TiledOutputFile9breakTileEiiiiiic
_ZN7Imf_2_515TiledOutputFile9writeTileEiii
_ZN7Imf_2_515TiledOutputFile9writeTileEiiii
_ZN7Imf_2_515TiledOutputFileC1EPKcRKNS_6HeaderEi
_ZN7Imf_2_515TiledOutputFileC1ERNS_7OStreamERKNS_6HeaderEi
_ZN7Imf_2_515TiledOutputFileC2EPKcRKNS_6HeaderEi
_ZN7Imf_2_515TiledOutputFileC2ERNS_7OStreamERKNS_6HeaderEi
_ZN7Imf_2_515TiledOutputFileD0Ev
_ZN7Imf_2_515TiledOutputFileD1Ev
_ZN7Imf_2_515TiledOutputFileD2Ev
_ZN7Imf_2_515TiledOutputPart10copyPixelsERNS_14TiledInputFileE
_ZN7Imf_2_515TiledOutputPart10copyPixelsERNS_14TiledInputPartE
_ZN7Imf_2_515TiledOutputPart10copyPixelsERNS_9InputFileE
_ZN7Imf_2_515TiledOutputPart10copyPixelsERNS_9InputPartE
_ZN7Imf_2_515TiledOutputPart10writeTilesEiiiii
_ZN7Imf_2_515TiledOutputPart10writeTilesEiiiiii
_ZN7Imf_2_515TiledOutputPart14setFrameBufferERKNS_11FrameBufferE
_ZN7Imf_2_515TiledOutputPart18updatePreviewImageEPKNS_11PreviewRgbaE
_ZN7Imf_2_515TiledOutputPart9breakTileEiiiiiic
_ZN7Imf_2_515TiledOutputPart9writeTileEiii
_ZN7Imf_2_515TiledOutputPart9writeTileEiiii
_ZN7Imf_2_515TiledOutputPartC1ERNS_19MultiPartOutputFileEi
_ZN7Imf_2_515TiledOutputPartC2ERNS_19MultiPartOutputFileEi
_ZN7Imf_2_515areCounterpartsERKNSt7__cxx1112basic_stringIcSt11char_traitsIcESaIcEEES7_RKSt6vectorIS5_SaIS5_EE
_ZN7Imf_2_515defaultViewNameERKSt6vectorINSt7__cxx1112basic_stringIcSt11char_traitsIcESaIcEEESaIS6_EE
_ZN7Imf_2_515envmapAttributeERKNS_6HeaderE
_ZN7Imf_2_515envmapAttributeERNS_6HeaderE
_ZN7Imf_2_515framesPerSecondERKNS_6HeaderE
_ZN7Imf_2_515framesPerSecondERNS_6HeaderE
_ZN7Imf_2_515isSupportedTypeERKNSt7__cxx1112basic_stringIcSt11char_traitsIcESaIcEEE
_ZN7Imf_2_516GenericInputFile30readMagicNumberAndVersionFieldERNS_7IStreamERi
_ZN7Imf_2_516GenericInputFileC1Ev
_ZN7Imf_2_516GenericInputFileC2Ev
_ZN7Imf_2_516GenericInputFileD0Ev
_ZN7Imf_2_516GenericInputFileD1Ev
_ZN7Imf_2_516GenericInputFileD2Ev
_ZN7Imf_2_516addWorldToCameraERNS_6HeaderERKN9Imath_2_58Matrix44IfEE
_ZN7Imf_2_516capDateAttributeB5cxx11ERKNS_6HeaderE
_ZN7Imf_2_516capDateAttributeB5cxx11ERNS_6HeaderE
_ZN7Imf_2_516channelsInNoViewERKNS_11ChannelListERKSt6vectorINSt7__cxx1112basic_stringIcSt11char_traitsIcESaIcEEESaIS9_EE
_ZN7Imf_2_516expTimeAttributeERKNS_6HeaderE
_ZN7Imf_2_516expTimeAttributeERNS_6HeaderE
_ZN7Imf_2_516hasWorldToCameraERKNS_6HeaderE
_ZN7Imf_2_516keyCodeAttributeERKNS_6HeaderE
_ZN7Imf_2_516keyCodeAttributeERNS_6HeaderE
_ZN7Imf_2_516lookModTransformB5cxx11ERKNS_6HeaderE
_ZN7Imf_2_516lookModTransformB5cxx11ERNS_6HeaderE
_ZN7Imf_2_516numLinesInBufferEPNS_10CompressorE
_ZN7Imf_2_516staticInitializeEv
_ZN7Imf_2_517GenericOutputFile31writeMagicNumberAndVersionFieldERNS_7OStreamEPKNS_6HeaderEi
_ZN7Imf_2_517GenericOutputFile31writeMagicNumberAndVersionFieldERNS_7OStreamERKNS_6HeaderE
_ZN7Imf_2_517GenericOutputFileC1Ev
_ZN7Imf_2_517GenericOutputFileC2Ev
_ZN7Imf_2_517GenericOutputFileD0Ev
_ZN7Imf_2_517GenericOutputFileD1Ev
_ZN7Imf_2_517GenericOutputFileD2Ev
_ZN7Imf_2_517ScanLineInputFile10readPixelsEi
_ZN7Imf_2_517ScanLineInputFile10readPixelsEii
_ZN7Imf_2_517ScanLineInputFile12rawPixelDataEiRPKcRi
_ZN7Imf_2_517ScanLineInputFile14setFrameBufferERKNS_11FrameBufferE
_ZN7Imf_2_517ScanLineInputFileC1ERKNS_6HeaderEPNS_7IStreamEi
_ZN7Imf_2_517ScanLineInputFileC2ERKNS_6HeaderEPNS_7IStreamEi
_ZN7Imf_2_517ScanLineInputFileD0Ev
_ZN7Imf_2_517ScanLineInputFileD1Ev
_ZN7Imf_2_517ScanLineInputFileD2Ev
_ZN7Imf_2_517addAdoptedNeutralERNS_6HeaderERKN9Imath_2_54Vec2IfEE
_ZN7Imf_2_517addChromaticitiesERNS_6HeaderERKNS_14ChromaticitiesE
_ZN7Imf_2_517addDeepImageStateERNS_6HeaderERKNS_14DeepImageStateE
_ZN7Imf_2_517addWhiteLuminanceERNS_6HeaderERKf
_ZN7Imf_2_517altitudeAttributeERKNS_6HeaderE
_ZN7Imf_2_517altitudeAttributeERNS_6HeaderE
_ZN7Imf_2_517apertureAttributeERKNS_6HeaderE
_ZN7Imf_2_517apertureAttributeERNS_6HeaderE
_ZN7Imf_2_517bytesPerLineTableERKNS_6HeaderERSt6vectorIySaIyEE
_ZN7Imf_2_517channelInAllViewsERKNSt7__cxx1112basic_stringIcSt11char_traitsIcESaIcEEERKNS_11ChannelListERKSt6vectorIS5_SaIS5_EE
_ZN7Imf_2_517commentsAttributeB5cxx11ERKNS_6HeaderE
_ZN7Imf_2_517commentsAttributeB5cxx11ERNS_6HeaderE
_ZN7Imf_2_517dataWindowForTileERKNS_15TileDescriptionEiiiiiiii
_ZN7Imf_2_517globalThreadCountEv
_ZN7Imf_2_517hasAdoptedNeutralERKNS_6HeaderE
_ZN7Imf_2_517hasChromaticitiesERKNS_6HeaderE
_ZN7Imf_2_517hasDeepImageStateERKNS_6HeaderE
_ZN7Imf_2_517hasWhiteLuminanceERKNS_6HeaderE
_ZN7Imf_2_517isDeepOpenExrFileEPKc
_ZN7Imf_2_517isDeepOpenExrFileERNS_7IStreamE
_ZN7Imf_2_517isoSpeedAttributeERKNS_6HeaderE
_ZN7Imf_2_517isoSpeedAttributeERNS_6HeaderE
_ZN7Imf_2_517latitudeAttributeERKNS_6HeaderE
_ZN7Imf_2_517latitudeAttributeERNS_6HeaderE
_ZN7Imf_2_517newTileCompressorENS_11CompressionEyyRKNS_6HeaderE
_ZN7Imf_2_517timeCodeAttributeERKNS_6HeaderE
_ZN7Imf_2_517timeCodeAttributeERNS_6HeaderE
_ZN7Imf_2_517xDensityAttributeERKNS_6HeaderE
_ZN7Imf_2_517xDensityAttributeERNS_6HeaderE
_ZN7Imf_2_518DeepTiledInputFile14setFrameBufferERKNS_15DeepFrameBufferE
_ZN7Imf_2_518DeepTiledInputFile20readPixelSampleCountEiii
_ZN7Imf_2_518DeepTiledInputFile20readPixelSampleCountEiiii
_ZN7Imf_2_518DeepTiledInputFile21readPixelSampleCountsEiiiii
_ZN7Imf_2_518DeepTiledInputFile21readPixelSampleCountsEiiiiii
_ZN7Imf_2_518DeepTiledInputFile8readTileEiii
_ZN7Imf_2_518DeepTiledInputFile8readTileEiiii
_ZN7Imf_2_518DeepTiledInputFile9readTilesEiiiii
_ZN7Imf_2_518DeepTiledInputFile9readTilesEiiiiii
_ZN7Imf_2_518DeepTiledInputFileC1EPKci
_ZN7Imf_2_518DeepTiledInputFileC1ERNS_7IStreamEi
_ZN7Imf_2_518DeepTiledInputFileC2EPKci
_ZN7Imf_2_518DeepTiledInputFileC2ERNS_7IStreamEi
_ZN7Imf_2_518DeepTiledInputFileD0Ev
_ZN7Imf_2_518DeepTiledInputFileD1Ev
_ZN7Imf_2_518DeepTiledInputFileD2Ev
_ZN7Imf_2_518DeepTiledInputPart14setFrameBufferERKNS_15DeepFrameBufferE
_ZN7Imf_2_518DeepTiledInputPart20readPixelSampleCountEiii
_ZN7Imf_2_518DeepTiledInputPart20readPixelSampleCountEiiii
_ZN7Imf_2_518DeepTiledInputPart21readPixelSampleCountsEiiiii
_ZN7Imf_2_518DeepTiledInputPart21readPixelSampleCountsEiiiiii
_ZN7Imf_2_518DeepTiledInputPart8readTileEiii
_ZN7Imf_2_518DeepTiledInputPart8readTileEiiii
_ZN7Imf_2_518DeepTiledInputPart9readTilesEiiiii
_ZN7Imf_2_518DeepTiledInputPart9readTilesEiiiiii
_ZN7Imf_2_518DeepTiledInputPartC1ERNS_18MultiPartInputFileEi
_ZN7Imf_2_518DeepTiledInputPartC2ERNS_18MultiPartInputFileEi
_ZN7Imf_2_518MultiPartInputFileC1EPKcib
_ZN7Imf_2_518MultiPartInputFileC1ERNS_7IStreamEib
_ZN7Imf_2_518MultiPartInputFileC2EPKcib
_ZN7Imf_2_518MultiPartInputFileC2ERNS_7IStreamEib
_ZN7Imf_2_518MultiPartInputFileD0Ev
_ZN7Imf_2_518MultiPartInputFileD1Ev
_ZN7Imf_2_518MultiPartInputFileD2Ev
_ZN7Imf_2_518TiledRgbaInputFile12setLayerNameERKNSt7__cxx1112basic_stringIcSt11char_traitsIcESaIcEEE
_ZN7Imf_2_518TiledRgbaInputFile14setFrameBufferEPNS_4RgbaEyy
_ZN7Imf_2_518TiledRgbaInputFile8readTileEiii
_ZN7Imf_2_518TiledRgbaInputFile8readTileEiiii
_ZN7Imf_2_518TiledRgbaInputFile9readTilesEiiiii
_ZN7Imf_2_518TiledRgbaInputFile9readTilesEiiiiii
_ZN7Imf_2_518TiledRgbaInputFileC1EPKcRKNSt7__cxx1112basic_stringIcSt11char_traitsIcESaIcEEEi
_ZN7Imf_2_518TiledRgbaInputFileC1EPKci
_ZN7Imf_2_518TiledRgbaInputFileC1ERNS_7IStreamERKNSt7__cxx1112basic_stringIcSt11char_traitsIcESaIcEEEi
_ZN7Imf_2_518TiledRgbaInputFileC1ERNS_7IStreamEi
_ZN7Imf_2_518TiledRgbaInputFileC2EPKcRKNSt7__cxx1112basic_stringIcSt11char_traitsIcESaIcEEEi
_ZN7Imf_2_518TiledRgbaInputFileC2EPKci
_ZN7Imf_2_518TiledRgbaInputFileC2ERNS_7IStreamERKNSt7__cxx1112basic_stringIcSt11char_traitsIcESaIcEEEi
_ZN7Imf_2_518TiledRgbaInputFileC2ERNS_7IStreamEi
_ZN7Imf_2_518TiledRgbaInputFileD0Ev
_ZN7Imf_2_518TiledRgbaInputFileD1Ev
_ZN7Imf_2_518TiledRgbaInputFileD2Ev
_ZN7Imf_2_518addFramesPerSecondERNS_6HeaderERKNS_8RationalE
_ZN7Imf_2_518channelInOtherViewERKNSt7__cxx1112basic_stringIcSt11char_traitsIcESaIcEEERKNS_11ChannelListERKSt6vectorIS5_SaIS5_EES7_
_ZN7Imf_2_518dataWindowForLevelERKNS_15TileDescriptionEiiiiii
_ZN7Imf_2_518hasFramesPerSecondERKNS_6HeaderE
_ZN7Imf_2_518isTiledOpenExrFileEPKc
_ZN7Imf_2_518isTiledOpenExrFileERNS_7IStreamE
_ZN7Imf_2_518isValidCompressionENS_11CompressionE
_ZN7Imf_2_518longitudeAttributeERKNS_6HeaderE
_ZN7Imf_2_518longitudeAttributeERNS_6HeaderE
_ZN7Imf_2_518multiViewAttributeB5cxx11ERKNS_6HeaderE
_ZN7Imf_2_518multiViewAttributeB5cxx11ERNS_6HeaderE
_ZN7Imf_2_518originalDataWindowERKNS_6HeaderE
_ZN7Imf_2_518originalDataWindowERNS_6HeaderE
_ZN7Imf_2_518renderingTransformB5cxx11ERKNS_6HeaderE
_ZN7Imf_2_518renderingTransformB5cxx11ERNS_6HeaderE
_ZN7Imf_2_518utcOffsetAttributeERKNS_6HeaderE
_ZN7Imf_2_518utcOffsetAttributeERNS_6HeaderE
_ZN7Imf_2_518wrapmodesAttributeB5cxx11ERKNS_6HeaderE
_ZN7Imf_2_518wrapmodesAttributeB5cxx11ERNS_6HeaderE
_ZN7Imf_2_519DeepTiledOutputFile10copyPixelsERNS_18DeepTiledInputFileE
_ZN7Imf_2_519DeepTiledOutputFile10copyPixelsERNS_18DeepTiledInputPartE
_ZN7Imf_2_519DeepTiledOutputFile10writeTilesEiiiii
_ZN7Imf_2_519DeepTiledOutputFile10writeTilesEiiiiii
_ZN7Imf_2_519DeepTiledOutputFile14setFrameBufferERKNS_15DeepFrameBufferE
_ZN7Imf_2_519DeepTiledOutputFile18updatePreviewImageEPKNS_11PreviewRgbaE
_ZN7Imf_2_519DeepTiledOutputFile9breakTileEiiiiiic
_ZN7Imf_2_519DeepTiledOutputFile9writeTileEiii
_ZN7Imf_2_519DeepTiledOutputFile9writeTileEiiii
_ZN7Imf_2_519DeepTiledOutputFileC1EPKcRKNS_6HeaderEi
_ZN7Imf_2_519DeepTiledOutputFileC1ERNS_7OStreamERKNS_6HeaderEi
_ZN7Imf_2_519DeepTiledOutputFileC2EPKcRKNS_6HeaderEi
_ZN7Imf_2_519DeepTiledOutputFileC2ERNS_7OStreamERKNS_6HeaderEi
_ZN7Imf_2_519DeepTiledOutputFileD0Ev
_ZN7Imf_2_519DeepTiledOutputFileD1Ev
_ZN7Imf_2_519DeepTiledOutputFileD2Ev
_ZN7Imf_2_519DeepTiledOutputPart10copyPixelsERNS_18DeepTiledInputFileE
_ZN7Imf_2_519DeepTiledOutputPart10copyPixelsERNS_18DeepTiledInputPartE
_ZN7Imf_2_519DeepTiledOutputPart10writeTilesEiiiii
_ZN7Imf_2_519DeepTiledOutputPart10writeTilesEiiiiii
_ZN7Imf_2_519DeepTiledOutputPart14setFrameBufferERKNS_15DeepFrameBufferE
_ZN7Imf_2_519DeepTiledOutputPart18updatePreviewImageEPKNS_11PreviewRgbaE
_ZN7Imf_2_519DeepTiledOutputPart9breakTileEiiiiiic
_ZN7Imf_2_519DeepTiledOutputPart9writeTileEiii
_ZN7Imf_2_519DeepTiledOutputPart9writeTileEiiii
_ZN7Imf_2_519DeepTiledOutputPartC1ERNS_19MultiPartOutputFileEi
_ZN7Imf_2_519DeepTiledOutputPartC2ERNS_19MultiPartOutputFileEi
_ZN7Imf_2_519MultiPartOutputFileC1EPKcPKNS_6HeaderEibi
_ZN7Imf_2_519MultiPartOutputFileC1ERNS_7OStreamEPKNS_6HeaderEibi
_ZN7Imf_2_519MultiPartOutputFileC2EPKcPKNS_6HeaderEibi
_ZN7Imf_2_519MultiPartOutputFileC2ERNS_7OStreamEPKNS_6HeaderEibi
_ZN7Imf_2_519MultiPartOutputFileD0Ev
_ZN7Imf_2_519MultiPartOutputFileD1Ev
_ZN7Imf_2_519MultiPartOutputFileD2Ev
_ZN7Imf_2_519TiledRgbaOutputFile10writeTilesEiiiii
_ZN7Imf_2_519TiledRgbaOutputFile10writeTilesEiiiiii
_ZN7Imf_2_519TiledRgbaOutputFile14setFrameBufferEPKNS_4RgbaEyy
_ZN7Imf_2_519TiledRgbaOutputFile18updatePreviewImageEPKNS_11PreviewRgbaE
_ZN7Imf_2_519TiledRgbaOutputFile9breakTileEiiiiiic
_ZN7Imf_2_519TiledRgbaOutputFile9writeTileEiii
_ZN7Imf_2_519TiledRgbaOutputFile9writeTileEiiii
_ZN7Imf_2_519TiledRgbaOutputFileC1EPKcRKNS_6HeaderENS_12RgbaChannelsEiiNS_9LevelModeENS_17LevelRoundingModeEi
_ZN7Imf_2_519TiledRgbaOutputFileC1EPKciiNS_9LevelModeENS_17LevelRoundingModeERKN9Imath_2_53BoxINS5_4Vec2IiEEEESB_NS_12RgbaChannelsEfNS7_IfEEfNS_9LineOrderENS_11CompressionEi
_ZN7Imf_2_519TiledRgbaOutputFileC1EPKciiiiNS_9LevelModeENS_17LevelRoundingModeENS_12RgbaChannelsEfN9Imath_2_54Vec2IfEEfNS_9LineOrderENS_11CompressionEi
_ZN7Imf_2_519TiledRgbaOutputFileC1ERNS_7OStreamERKNS_6HeaderENS_12RgbaChannelsEiiNS_9LevelModeENS_17LevelRoundingModeEi
_ZN7Imf_2_519TiledRgbaOutputFileC2EPKcRKNS_6HeaderENS_12RgbaChannelsEiiNS_9LevelModeENS_17LevelRoundingModeEi
_ZN7Imf_2_519TiledRgbaOutputFileC2EPKciiNS_9LevelModeENS_17LevelRoundingModeERKN9Imath_2_53BoxINS5_4Vec2IiEEEESB_NS_12RgbaChannelsEfNS7_IfEEfNS_9LineOrderENS_11CompressionEi
_ZN7Imf_2_519TiledRgbaOutputFileC2EPKciiiiNS_9LevelModeENS_17LevelRoundingModeENS_12RgbaChannelsEfN9Imath_2_54Vec2IfEEfNS_9LineOrderENS_11CompressionEi
_ZN7Imf_2_519TiledRgbaOutputFileC2ERNS_7OStreamERKNS_6HeaderENS_12RgbaChannelsEiiNS_9LevelModeENS_17LevelRoundingModeEi
_ZN7Imf_2_519TiledRgbaOutputFileD0Ev
_ZN7Imf_2_519TiledRgbaOutputFileD1Ev
_ZN7Imf_2_519TiledRgbaOutputFileD2Ev
_ZN7Imf_2_519addLookModTransformERNS_6HeaderERKNSt7__cxx1112basic_stringIcSt11char_traitsIcESaIcEEE
_ZN7Imf_2_519copyFromFrameBufferERPcRPKcS3_yNS_10Compressor6FormatENS_9PixelTypeE
_ZN7Imf_2_519copyIntoFrameBufferERPKcPcS3_ybdNS_10Compressor6FormatENS_9PixelTypeES6_
_ZN7Imf_2_519dwaCompressionLevelERKNS_6HeaderE
_ZN7Imf_2_519dwaCompressionLevelERNS_6HeaderE
_ZN7Imf_2_519hasLookModTransformERKNS_6HeaderE
_ZN7Imf_2_519viewFromChannelNameERKNSt7__cxx1112basic_stringIcSt11char_traitsIcESaIcEEERKSt6vectorIS5_SaIS5_EE
_ZN7Imf_2_519worldToNDCAttributeERKNS_6HeaderE
_ZN7Imf_2_519worldToNDCAttributeERNS_6HeaderE
_ZN7Imf_2_520precalculateTileInfoERKNS_15TileDescriptionEiiiiRPiS4_RiS5_
_ZN7Imf_2_520setGlobalThreadCountEi
_ZN7Imf_2_521CompositeDeepScanLine10readPixelsEii
_ZN7Imf_2_521CompositeDeepScanLine14setCompositingEPNS_15DeepCompositingE
_ZN7Imf_2_521CompositeDeepScanLine14setFrameBufferERKNS_11FrameBufferE
_ZN7Imf_2_521CompositeDeepScanLine9addSourceEPNS_21DeepScanLineInputFileE
_ZN7Imf_2_521CompositeDeepScanLine9addSourceEPNS_21DeepScanLineInputPartE
_ZN7Imf_2_521CompositeDeepScanLineC1Ev
_ZN7Imf_2_521CompositeDeepScanLineC2Ev
_ZN7Imf_2_521CompositeDeepScanLineD0Ev
_ZN7Imf_2_521CompositeDeepScanLineD1Ev
_ZN7Imf_2_521CompositeDeepScanLineD2Ev
_ZN7Imf_2_521DeepScanLineInputFile10readPixelsEi
_ZN7Imf_2_521DeepScanLineInputFile10readPixelsEii
_ZN7Imf_2_521DeepScanLineInputFile12rawPixelDataEiPcRy
_ZN7Imf_2_521DeepScanLineInputFile14setFrameBufferERKNS_15DeepFrameBufferE
_ZN7Imf_2_521DeepScanLineInputFile21readPixelSampleCountsEi
_ZN7Imf_2_521DeepScanLineInputFile21readPixelSampleCountsEii
_ZN7Imf_2_521DeepScanLineInputFileC1EPKci
_ZN7Imf_2_521DeepScanLineInputFileC1ERKNS_6HeaderEPNS_7IStreamEii
_ZN7Imf_2_521DeepScanLineInputFileC2EPKci
_ZN7Imf_2_521DeepScanLineInputFileC2ERKNS_6HeaderEPNS_7IStreamEii
_ZN7Imf_2_521DeepScanLineInputFileD0Ev
_ZN7Imf_2_521DeepScanLineInputFileD1Ev
_ZN7Imf_2_521DeepScanLineInputFileD2Ev
_ZN7Imf_2_521DeepScanLineInputPart10readPixelsEi
_ZN7Imf_2_521DeepScanLineInputPart10readPixelsEii
_ZN7Imf_2_521DeepScanLineInputPart12rawPixelDataEiPcRy
_ZN7Imf_2_521DeepScanLineInputPart14setFrameBufferERKNS_15DeepFrameBufferE
_ZN7Imf_2_521DeepScanLineInputPart21readPixelSampleCountsEi
_ZN7Imf_2_521DeepScanLineInputPart21readPixelSampleCountsEii
_ZN7Imf_2_521DeepScanLineInputPartC1ERNS_18MultiPartInputFileEi
_ZN7Imf_2_521DeepScanLineInputPartC2ERNS_18MultiPartInputFileEi
_ZN7Imf_2_521addOriginalDataWindowERNS_6HeaderERKN9Imath_2_53BoxINS2_4Vec2IiEEEE
_ZN7Imf_2_521addRenderingTransformERNS_6HeaderERKNSt7__cxx1112basic_stringIcSt11char_traitsIcESaIcEEE
_ZN7Imf_2_521bytesPerDeepLineTableERKNS_6HeaderEPciiRSt6vectorIySaIyEE
_ZN7Imf_2_521bytesPerDeepLineTableERKNS_6HeaderEiiPKciiRSt6vectorIySaIyEE
_ZN7Imf_2_521calculateBytesPerLineERKNS_6HeaderEPciiiiiiRSt6vectorIiSaIiEES7_RS4_IySaIyEE
_ZN7Imf_2_521fillChannelWithZeroesERPcNS_10Compressor6FormatENS_9PixelTypeEy
_ZN7Imf_2_521hasOriginalDataWindowERKNS_6HeaderE
_ZN7Imf_2_521hasRenderingTransformERKNS_6HeaderE
_ZN7Imf_2_522DeepScanLineOutputFile10copyPixelsERNS_21DeepScanLineInputFileE
_ZN7Imf_2_522DeepScanLineOutputFile10copyPixelsERNS_21DeepScanLineInputPartE
_ZN7Imf_2_522DeepScanLineOutputFile11writePixelsEi
_ZN7Imf_2_522DeepScanLineOutputFile14setFrameBufferERKNS_15DeepFrameBufferE
_ZN7Imf_2_522DeepScanLineOutputFile18updatePreviewImageEPKNS_11PreviewRgbaE
_ZN7Imf_2_522DeepScanLineOutputFileC1EPKcRKNS_6HeaderEi
_ZN7Imf_2_522DeepScanLineOutputFileC1ERNS_7OStreamERKNS_6HeaderEi
_ZN7Imf_2_522DeepScanLineOutputFileC2EPKcRKNS_6HeaderEi
_ZN7Imf_2_522DeepScanLineOutputFileC2ERNS_7OStreamERKNS_6HeaderEi
_ZN7Imf_2_522DeepScanLineOutputFileD0Ev
_ZN7Imf_2_522DeepScanLineOutputFileD1Ev
_ZN7Imf_2_522DeepScanLineOutputFileD2Ev
_ZN7Imf_2_522DeepScanLineOutputPart10copyPixelsERNS_21DeepScanLineInputFileE
_ZN7Imf_2_522DeepScanLineOutputPart10copyPixelsERNS_21DeepScanLineInputPartE
_ZN7Imf_2_522DeepScanLineOutputPart11writePixelsEi
_ZN7Imf_2_522DeepScanLineOutputPart14setFrameBufferERKNS_15DeepFrameBufferE
_ZN7Imf_2_522DeepScanLineOutputPart18updatePreviewImageEPKNS_11PreviewRgbaE
_ZN7Imf_2_522DeepScanLineOutputPartC1ERNS_19MultiPartOutputFileEi
_ZN7Imf_2_522DeepScanLineOutputPartC2ERNS_19MultiPartOutputFileEi
_ZN7Imf_2_522addDwaCompressionLevelERNS_6HeaderERKf
_ZN7Imf_2_522calculateBytesPerPixelERKNS_6HeaderE
_ZN7Imf_2_522hasDwaCompressionLevelERKNS_6HeaderE
_ZN7Imf_2_522isMultiPartOpenExrFileEPKc
_ZN7Imf_2_522isMultiPartOpenExrFileERNS_7IStreamE
_ZN7Imf_2_522isValidDeepCompressionENS_11CompressionE
_ZN7Imf_2_522worldToCameraAttributeERKNS_6HeaderE
_ZN7Imf_2_522worldToCameraAttributeERNS_6HeaderE
_ZN7Imf_2_523adoptedNeutralAttributeERKNS_6HeaderE
_ZN7Imf_2_523adoptedNeutralAttributeERNS_6HeaderE
_ZN7Imf_2_523chromaticitiesAttributeERKNS_6HeaderE
_ZN7Imf_2_523chromaticitiesAttributeERNS_6HeaderE
_ZN7Imf_2_523copyFromDeepFrameBufferERPcPKcS0_xxiiiiiiixxxNS_10Compressor6FormatENS_9PixelTypeE
_ZN7Imf_2_523copyIntoDeepFrameBufferERPKcPcS1_xxiiiiiiixxxbdNS_10Compressor6FormatENS_9PixelTypeES6_
_ZN7Imf_2_523deepImageStateAttributeERKNS_6HeaderE
_ZN7Imf_2_523deepImageStateAttributeERNS_6HeaderE
_ZN7Imf_2_523getChunkOffsetTableSizeERKNS_6HeaderEb
_ZN7Imf_2_523offsetInLineBufferTableERKSt6vectorIySaIyEEiRS2_
_ZN7Imf_2_523offsetInLineBufferTableERKSt6vectorIySaIyEEiiiRS2_
_ZN7Imf_2_523whiteLuminanceAttributeERKNS_6HeaderE
_ZN7Imf_2_523whiteLuminanceAttributeERNS_6HeaderE
_ZN7Imf_2_524framesPerSecondAttributeERKNS_6HeaderE
_ZN7Imf_2_524framesPerSecondAttributeERNS_6HeaderE
_ZN7Imf_2_525lookModTransformAttributeB5cxx11ERKNS_6HeaderE
_ZN7Imf_2_525lookModTransformAttributeB5cxx11ERNS_6HeaderE
_ZN7Imf_2_527originalDataWindowAttributeERKNS_6HeaderE
_ZN7Imf_2_527originalDataWindowAttributeERNS_6HeaderE
_ZN7Imf_2_527renderingTransformAttributeB5cxx11ERKNS_6HeaderE
_ZN7Imf_2_527renderingTransformAttributeB5cxx11ERNS_6HeaderE
_ZN7Imf_2_528dwaCompressionLevelAttributeERKNS_6HeaderE
_ZN7Imf_2_528dwaCompressionLevelAttributeERNS_6HeaderE
_ZN7Imf_2_528getTiledChunkOffsetTableSizeERKNS_6HeaderE
_ZN7Imf_2_53Zip10maxRawSizeEv
_ZN7Imf_2_53Zip10uncompressEPKciPc
_ZN7Imf_2_53Zip17maxCompressedSizeEv
_ZN7Imf_2_53Zip8compressEPKciPc
_ZN7Imf_2_53ZipC1Ey
_ZN7Imf_2_53ZipC1Eyy
_ZN7Imf_2_53ZipC2Ey
_ZN7Imf_2_53ZipC2Eyy
_ZN7Imf_2_53ZipD1Ev
_ZN7Imf_2_53ZipD2Ev
_ZN7Imf_2_54NameC1EPKc
_ZN7Imf_2_54NameC1Ev
_ZN7Imf_2_54NameC2EPKc
_ZN7Imf_2_54NameC2Ev
_ZN7Imf_2_54NameaSEPKc
_ZN7Imf_2_55CpuIdC1Ev
_ZN7Imf_2_55CpuIdC2Ev
_ZN7Imf_2_55Slice4MakeENS_9PixelTypeEPKvRKN9Imath_2_53BoxINS4_4Vec2IiEEEEyyiidbb
_ZN7Imf_2_55Slice4MakeENS_9PixelTypeEPKvRKN9Imath_2_54Vec2IiEExxyyiidbb
_ZN7Imf_2_55SliceC1ENS_9PixelTypeEPcyyiidbb
_ZN7Imf_2_55SliceC2ENS_9PixelTypeEPcyyiidbb
_ZN7Imf_2_55focusERKNS_6HeaderE
_ZN7Imf_2_55focusERNS_6HeaderE
_ZN7Imf_2_55ownerB5cxx11ERKNS_6HeaderE
_ZN7Imf_2_55ownerB5cxx11ERNS_6HeaderE
_ZN7Imf_2_56Header10chunkCountEv
_ZN7Imf_2_56Header10dataWindowEv
_ZN7Imf_2_56Header10setVersionEi
_ZN7Imf_2_56Header11compressionEv
_ZN7Imf_2_56Header12previewImageEv
_ZN7Imf_2_56Header12readsNothingEv
_ZN7Imf_2_56Header13ConstIteratorC1ERKNS0_8IteratorE
_ZN7Imf_2_56Header13ConstIteratorC1ERKSt23_Rb_tree_const_iteratorISt4pairIKNS_4NameEPNS_9AttributeEEE
_ZN7Imf_2_56Header13ConstIteratorC1Ev
_ZN7Imf_2_56Header13ConstIteratorC2ERKNS0_8IteratorE
_ZN7Imf_2_56Header13ConstIteratorC2ERKSt23_Rb_tree_const_iteratorISt4pairIKNS_4NameEPNS_9AttributeEEE
_ZN7Imf_2_56Header13ConstIteratorC2Ev
_ZN7Imf_2_56Header13ConstIteratorppEi
_ZN7Imf_2_56Header13ConstIteratorppEv
_ZN7Imf_2_56Header13displayWindowEv
_ZN7Imf_2_56Header13setChunkCountEi
_ZN7Imf_2_56Header14setMaxTileSizeEii
_ZN7Imf_2_56Header15setMaxImageSizeEii
_ZN7Imf_2_56Header15setPreviewImageERKNS_12PreviewImageE
_ZN7Imf_2_56Header15tileDescriptionEv
_ZN7Imf_2_56Header16pixelAspectRatioEv
_ZN7Imf_2_56Header17screenWindowWidthEv
_ZN7Imf_2_56Header18screenWindowCenterEv
_ZN7Imf_2_56Header18setTileDescriptionERKNS_15TileDescriptionE
_ZN7Imf_2_56Header3endEv
_ZN7Imf_2_56Header4findEPKc
_ZN7Imf_2_56Header4findERKNSt7__cxx1112basic_stringIcSt11char_traitsIcESaIcEEE
_ZN7Imf_2_56Header4nameB5cxx11Ev
_ZN7Imf_2_56Header4typeB5cxx11Ev
_ZN7Imf_2_56Header4viewB5cxx11Ev
_ZN7Imf_2_56Header5beginEv
_ZN7Imf_2_56Header5eraseEPKc
_ZN7Imf_2_56Header5eraseERKNSt7__cxx1112basic_stringIcSt11char_traitsIcESaIcEEE
_ZN7Imf_2_56Header6insertEPKcRKNS_9AttributeE
_ZN7Imf_2_56Header6insertERKNSt7__cxx1112basic_stringIcSt11char_traitsIcESaIcEEERKNS_9AttributeE
_ZN7Imf_2_56Header7setNameERKNSt7__cxx1112basic_stringIcSt11char_traitsIcESaIcEEE
_ZN7Imf_2_56Header7setTypeERKNSt7__cxx1112basic_stringIcSt11char_traitsIcESaIcEEE
_ZN7Imf_2_56Header7setViewERKNSt7__cxx1112basic_stringIcSt11char_traitsIcESaIcEEE
_ZN7Imf_2_56Header7versionEv
_ZN7Imf_2_56Header8IteratorC1ERKSt17_Rb_tree_iteratorISt4pairIKNS_4NameEPNS_9AttributeEEE
_ZN7Imf_2_56Header8IteratorC1Ev
_ZN7Imf_2_56Header8IteratorC2ERKSt17_Rb_tree_iteratorISt4pairIKNS_4NameEPNS_9AttributeEEE
_ZN7Imf_2_56Header8IteratorC2Ev
_ZN7Imf_2_56Header8IteratorppEi
_ZN7Imf_2_56Header8IteratorppEv
_ZN7Imf_2_56Header8channelsEv
_ZN7Imf_2_56Header8readFromERNS_7IStreamERi
_ZN7Imf_2_56Header9lineOrderEv
_ZN7Imf_2_56HeaderC1ERKN9Imath_2_53BoxINS1_4Vec2IiEEEES7_fRKNS3_IfEEfNS_9LineOrderENS_11CompressionE
_ZN7Imf_2_56HeaderC1ERKS0_
_ZN7Imf_2_56HeaderC1EiiRKN9Imath_2_53BoxINS1_4Vec2IiEEEEfRKNS3_IfEEfNS_9LineOrderENS_11CompressionE
_ZN7Imf_2_56HeaderC1EiifRKN9Imath_2_54Vec2IfEEfNS_9LineOrderENS_11CompressionE
_ZN7Imf_2_56HeaderC2ERKN9Imath_2_53BoxINS1_4Vec2IiEEEES7_fRKNS3_IfEEfNS_9LineOrderENS_11CompressionE
_ZN7Imf_2_56HeaderC2ERKS0_
_ZN7Imf_2_56HeaderC2EiiRKN9Imath_2_53BoxINS1_4Vec2IiEEEEfRKNS3_IfEEfNS_9LineOrderENS_11CompressionE
_ZN7Imf_2_56HeaderC2EiifRKN9Imath_2_54Vec2IfEEfNS_9LineOrderENS_11CompressionE
_ZN7Imf_2_56HeaderD1Ev
_ZN7Imf_2_56HeaderD2Ev
_ZN7Imf_2_56HeaderaSERKS0_
_ZN7Imf_2_56HeaderixEPKc
_ZN7Imf_2_56HeaderixERKNSt7__cxx1112basic_stringIcSt11char_traitsIcESaIcEEE
_ZN7Imf_2_56envmapERKNS_6HeaderE
_ZN7Imf_2_56envmapERNS_6HeaderE
_ZN7Imf_2_57ChannelC1ENS_9PixelTypeEiib
_ZN7Imf_2_57ChannelC2ENS_9PixelTypeEiib
_ZN7Imf_2_57CubeMap10sizeOfFaceERKN9Imath_2_53BoxINS1_4Vec2IiEEEE
_ZN7Imf_2_57CubeMap13pixelPositionENS_11CubeMapFaceERKN9Imath_2_53BoxINS2_4Vec2IiEEEENS4_IfEE
_ZN7Imf_2_57CubeMap17dataWindowForFaceENS_11CubeMapFaceERKN9Imath_2_53BoxINS2_4Vec2IiEEEE
_ZN7Imf_2_57CubeMap20faceAndPixelPositionERKN9Imath_2_54Vec3IfEERKNS1_3BoxINS1_4Vec2IiEEEERNS_11CubeMapFaceERNS7_IfEE
_ZN7Imf_2_57CubeMap9directionENS_11CubeMapFaceERKN9Imath_2_53BoxINS2_4Vec2IiEEEERKNS4_IfEE
_ZN7Imf_2_57IStream16readMemoryMappedEi
_ZN7Imf_2_57IStream5clearEv
_ZN7Imf_2_57IStreamC1EPKc
_ZN7Imf_2_57IStreamC2EPKc
_ZN7Imf_2_57IStreamD0Ev
_ZN7Imf_2_57IStreamD1Ev
_ZN7Imf_2_57IStreamD2Ev
_ZN7Imf_2_57KeyCode11setFilmTypeEi
_ZN7Imf_2_57KeyCode13setPerfOffsetEi
_ZN7Imf_2_57KeyCode14setFilmMfcCodeEi
_ZN7Imf_2_57KeyCode16setPerfsPerCountEi
_ZN7Imf_2_57KeyCode16setPerfsPerFrameEi
_ZN7Imf_2_57KeyCode8setCountEi
_ZN7Imf_2_57KeyCode9setPrefixEi
_ZN7Imf_2_57KeyCodeC1ERKS0_
_ZN7Imf_2_57KeyCodeC1Eiiiiiii
_ZN7Imf_2_57KeyCodeC2ERKS0_
_ZN7Imf_2_57KeyCodeC2Eiiiiiii
_ZN7Imf_2_57KeyCodeaSERKS0_
_ZN7Imf_2_57OStreamC1EPKc
_ZN7Imf_2_57OStreamC2EPKc
_ZN7Imf_2_57OStreamD0Ev
_ZN7Imf_2_57OStreamD1Ev
_ZN7Imf_2_57OStreamD2Ev
_ZN7Imf_2_57RgbaYca13fixSaturationERKN9Imath_2_54Vec3IfEEiPKPKNS_4RgbaEPS6_
_ZN7Imf_2_57RgbaYca18decimateChromaVertEiPKPKNS_4RgbaEPS1_
_ZN7Imf_2_57RgbaYca19decimateChromaHorizEiPKNS_4RgbaEPS1_
_ZN7Imf_2_57RgbaYca21reconstructChromaVertEiPKPKNS_4RgbaEPS1_
_ZN7Imf_2_57RgbaYca22reconstructChromaHorizEiPKNS_4RgbaEPS1_
_ZN7Imf_2_57RgbaYca8roundYCAEijjPKNS_4RgbaEPS1_
_ZN7Imf_2_57RgbaYca9RGBAtoYCAERKN9Imath_2_54Vec3IfEEibPKNS_4RgbaEPS6_
_ZN7Imf_2_57RgbaYca9YCAtoRGBAERKN9Imath_2_54Vec3IfEEiPKNS_4RgbaEPS6_
_ZN7Imf_2_57RgbaYca9computeYwERKNS_14ChromaticitiesE
_ZN7Imf_2_57capDateB5cxx11ERKNS_6HeaderE
_ZN7Imf_2_57capDateB5cxx11ERNS_6HeaderE
_ZN7Imf_2_57expTimeERKNS_6HeaderE
_ZN7Imf_2_57expTimeERNS_6HeaderE
_ZN7Imf_2_57isImageERKNSt7__cxx1112basic_stringIcSt11char_traitsIcESaIcEEE
_ZN7Imf_2_57isTiledERKNSt7__cxx1112basic_stringIcSt11char_traitsIcESaIcEEE
_ZN7Imf_2_57keyCodeERKNS_6HeaderE
_ZN7Imf_2_57keyCodeERNS_6HeaderE
_ZN7Imf_2_58RGBtoXYZERKNS_14ChromaticitiesEf
_ZN7Imf_2_58RationalC1Ed
_ZN7Imf_2_58RationalC2Ed
_ZN7Imf_2_58TimeCode10setMinutesEi
_ZN7Imf_2_58TimeCode10setSecondsEi
_ZN7Imf_2_58TimeCode11setUserDataEj
_ZN7Imf_2_58TimeCode12setDropFrameEb
_ZN7Imf_2_58TimeCode13setColorFrameEb
_ZN7Imf_2_58TimeCode13setFieldPhaseEb
_ZN7Imf_2_58TimeCode14setBinaryGroupEii
_ZN7Imf_2_58TimeCode15setTimeAndFlagsEjNS0_7PackingE
_ZN7Imf_2_58TimeCode7setBgf0Eb
_ZN7Imf_2_58TimeCode7setBgf1Eb
_ZN7Imf_2_58TimeCode7setBgf2Eb
_ZN7Imf_2_58TimeCode8setFrameEi
_ZN7Imf_2_58TimeCode8setHoursEi
_ZN7Imf_2_58TimeCodeC1ERKS0_
_ZN7Imf_2_58TimeCodeC1Eiiiibbbbbbiiiiiiii
_ZN7Imf_2_58TimeCodeC1EjjNS0_7PackingE
_ZN7Imf_2_58TimeCodeC1Ev
_ZN7Imf_2_58TimeCodeC2ERKS0_
_ZN7Imf_2_58TimeCodeC2Eiiiibbbbbbiiiiiiii
_ZN7Imf_2_58TimeCodeC2EjjNS0_7PackingE
_ZN7Imf_2_58TimeCodeC2Ev
_ZN7Imf_2_58TimeCodeaSERKS0_
_ZN7Imf_2_58XYZtoRGBERKNS_14ChromaticitiesEf
_ZN7Imf_2_58addFocusERNS_6HeaderERKf
_ZN7Imf_2_58addOwnerERNS_6HeaderERKNSt7__cxx1112basic_stringIcSt11char_traitsIcESaIcEEE
_ZN7Imf_2_58altitudeERKNS_6HeaderE
_ZN7Imf_2_58altitudeERNS_6HeaderE
_ZN7Imf_2_58apertureERKNS_6HeaderE
_ZN7Imf_2_58apertureERNS_6HeaderE
_ZN7Imf_2_58commentsB5cxx11ERKNS_6HeaderE
_ZN7Imf_2_58commentsB5cxx11ERNS_6HeaderE
_ZN7Imf_2_58hasFocusERKNS_6HeaderE
_ZN7Imf_2_58hasOwnerERKNS_6HeaderE
_ZN7Imf_2_58isoSpeedERKNS_6HeaderE
_ZN7Imf_2_58isoSpeedERNS_6HeaderE
_ZN7Imf_2_58latitudeERKNS_6HeaderE
_ZN7Imf_2_58latitudeERNS_6HeaderE
_ZN7Imf_2_58timeCodeERKNS_6HeaderE
_ZN7Imf_2_58timeCodeERNS_6HeaderE
_ZN7Imf_2_58xDensityERKNS_6HeaderE
_ZN7Imf_2_58xDensityERNS_6HeaderE
_ZN7Imf_2_59Attribute12newAttributeEPKc
_ZN7Imf_2_59Attribute21registerAttributeTypeEPKcPFPS0_vE
_ZN7Imf_2_59Attribute23unRegisterAttributeTypeEPKc
_ZN7Imf_2_59Attribute9knownTypeEPKc
_ZN7Imf_2_59AttributeC1Ev
_ZN7Imf_2_59AttributeC2Ev
_ZN7Imf_2_59AttributeD0Ev
_ZN7Imf_2_59AttributeD1Ev
_ZN7Imf_2_59AttributeD2Ev
_ZN7Imf_2_59DeepSliceC1ENS_9PixelTypeEPcyyyiidbb
_ZN7Imf_2_59DeepSliceC2ENS_9PixelTypeEPcyyyiidbb
_ZN7Imf_2_59InputFile10readPixelsEi
_ZN7Imf_2_59InputFile10readPixelsEii
_ZN7Imf_2_59InputFile11rawTileDataERiS1_S1_S1_RPKcS1_
_ZN7Imf_2_59InputFile12rawPixelDataEiRPKcRi
_ZN7Imf_2_59InputFile14setFrameBufferERKNS_11FrameBufferE
_ZN7Imf_2_59InputFileC1EPKci
_ZN7Imf_2_59InputFileC1ERNS_7IStreamEi
_ZN7Imf_2_59InputFileC2EPKci
_ZN7Imf_2_59InputFileC2ERNS_7IStreamEi
_ZN7Imf_2_59InputFileD0Ev
_ZN7Imf_2_59InputFileD1Ev
_ZN7Imf_2_59InputFileD2Ev
_ZN7Imf_2_59InputPart10readPixelsEi
_ZN7Imf_2_59InputPart10readPixelsEii
_ZN7Imf_2_59InputPart11rawTileDataERiS1_S1_S1_RPKcS1_
_ZN7Imf_2_59InputPart12rawPixelDataEiRPKcRi
_ZN7Imf_2_59InputPart14setFrameBufferERKNS_11FrameBufferE
_ZN7Imf_2_59InputPartC1ERNS_18MultiPartInputFileEi
_ZN7Imf_2_59InputPartC2ERNS_18MultiPartInputFileEi
_ZN7Imf_2_59addEnvmapERNS_6HeaderERKNS_6EnvmapE
_ZN7Imf_2_59hasEnvmapERKNS_6HeaderE
_ZN7Imf_2_59levelSizeEiiiNS_17LevelRoundingModeE
_ZN7Imf_2_59longitudeERKNS_6HeaderE
_ZN7Imf_2_59longitudeERNS_6HeaderE
_ZN7Imf_2_59multiViewB5cxx11ERKNS_6HeaderE
_ZN7Imf_2_59multiViewB5cxx11ERNS_6HeaderE
_ZN7Imf_2_59utcOffsetERKNS_6HeaderE
_ZN7Imf_2_59utcOffsetERNS_6HeaderE
_ZN7Imf_2_59wrapmodesB5cxx11ERKNS_6HeaderE
_ZN7Imf_2_59wrapmodesB5cxx11ERNS_6HeaderE
_ZN7Imf_2_5eqERKNS_4NameES2_
_ZN7Imf_2_5ltERKNS_4NameES2_
_ZN7Imf_2_5neERKNS_4NameES2_
_ZNK4half4bitsEv
_ZNK7Imf_2_510Compressor6formatEv
_ZNK7Imf_2_510OutputFile11frameBufferEv
_ZNK7Imf_2_510OutputFile15currentScanLineEv
_ZNK7Imf_2_510OutputFile6headerEv
_ZNK7Imf_2_510OutputFile8fileNameEv
_ZNK7Imf_2_510OutputPart11frameBufferEv
_ZNK7Imf_2_510OutputPart15currentScanLineEv
_ZNK7Imf_2_510OutputPart6headerEv
_ZNK7Imf_2_510OutputPart8fileNameEv
_ZNK7Imf_2_511ChannelList11findChannelEPKc
_ZNK7Imf_2_511ChannelList11findChannelERKNSt7__cxx1112basic_stringIcSt11char_traitsIcESaIcEEE
_ZNK7Imf_2_511ChannelList13ConstIterator4nameEv
_ZNK7Imf_2_511ChannelList13ConstIterator7channelEv
_ZNK7Imf_2_511ChannelList15channelsInLayerERKNSt7__cxx1112basic_stringIcSt11char_traitsIcESaIcEEERNS0_13ConstIteratorESA_
_ZNK7Imf_2_511ChannelList18channelsWithPrefixEPKcRNS0_13ConstIteratorES4_
_ZNK7Imf_2_511ChannelList18channelsWithPrefixERKNSt7__cxx1112basic_stringIcSt11char_traitsIcESaIcEEERNS0_13ConstIteratorESA_
_ZNK7Imf_2_511ChannelList3endEv
_ZNK7Imf_2_511ChannelList4findEPKc
_ZNK7Imf_2_511ChannelList4findERKNSt7__cxx1112basic_stringIcSt11char_traitsIcESaIcEEE
_ZNK7Imf_2_511ChannelList5beginEv
_ZNK7Imf_2_511ChannelList6layersERSt3setINSt7__cxx1112basic_stringIcSt11char_traitsIcESaIcEEESt4lessIS7_ESaIS7_EE
_ZNK7Imf_2_511ChannelList8Iterator4nameEv
_ZNK7Imf_2_511ChannelList8Iterator7channelEv
_ZNK7Imf_2_511ChannelListeqERKS0_
_ZNK7Imf_2_511ChannelListixEPKc
_ZNK7Imf_2_511ChannelListixERKNSt7__cxx1112basic_stringIcSt11char_traitsIcESaIcEEE
_ZNK7Imf_2_511FrameBuffer13ConstIterator4nameEv
_ZNK7Imf_2_511FrameBuffer13ConstIterator5sliceEv
_ZNK7Imf_2_511FrameBuffer3endEv
_ZNK7Imf_2_511FrameBuffer4findEPKc
_ZNK7Imf_2_511FrameBuffer4findERKNSt7__cxx1112basic_stringIcSt11char_traitsIcESaIcEEE
_ZNK7Imf_2_511FrameBuffer5beginEv
_ZNK7Imf_2_511FrameBuffer8Iterator4nameEv
_ZNK7Imf_2_511FrameBuffer8Iterator5sliceEv
_ZNK7Imf_2_511FrameBuffer9findSliceEPKc
_ZNK7Imf_2_511FrameBuffer9findSliceERKNSt7__cxx1112basic_stringIcSt11char_traitsIcESaIcEEE
_ZNK7Imf_2_511FrameBufferixEPKc
_ZNK7Imf_2_511FrameBufferixERKNSt7__cxx1112basic_stringIcSt11char_traitsIcESaIcEEE
_ZNK7Imf_2_511StdISStream3strB5cxx11Ev
_ZNK7Imf_2_511StdOSStream3strB5cxx11Ev
_ZNK7Imf_2_511TileOffsets10getOffsetsEv
_ZNK7Imf_2_511TileOffsets11isValidTileEiiii
_ZNK7Imf_2_511TileOffsets12getTileOrderEPiS1_S1_S1_
_ZNK7Imf_2_511TileOffsets7isEmptyEv
_ZNK7Imf_2_511TileOffsets7writeToERNS_7OStreamE
_ZNK7Imf_2_511TileOffsetsclEiii
_ZNK7Imf_2_511TileOffsetsclEiiii
_ZNK7Imf_2_513AcesInputFile10dataWindowEv
_ZNK7Imf_2_513AcesInputFile10isCompleteEv
_ZNK7Imf_2_513AcesInputFile11compressionEv
_ZNK7Imf_2_513AcesInputFile13displayWindowEv
_ZNK7Imf_2_513AcesInputFile16pixelAspectRatioEv
_ZNK7Imf_2_513AcesInputFile17screenWindowWidthEv
_ZNK7Imf_2_513AcesInputFile18screenWindowCenterEv
_ZNK7Imf_2_513AcesInputFile6headerEv
_ZNK7Imf_2_513AcesInputFile7versionEv
_ZNK7Imf_2_513AcesInputFile8channelsEv
_ZNK7Imf_2_513AcesInputFile8fileNameEv
_ZNK7Imf_2_513AcesInputFile9lineOrderEv
_ZNK7Imf_2_513B44Compressor12numScanLinesEv
_ZNK7Imf_2_513B44Compressor6formatEv
_ZNK7Imf_2_513DwaCompressor12numScanLinesEv
_ZNK7Imf_2_513DwaCompressor6formatEv
_ZNK7Imf_2_513PizCompressor12numScanLinesEv
_ZNK7Imf_2_513PizCompressor6formatEv
_ZNK7Imf_2_513RgbaInputFile10dataWindowEv
_ZNK7Imf_2_513RgbaInputFile10isCompleteEv
_ZNK7Imf_2_513RgbaInputFile11compressionEv
_ZNK7Imf_2_513RgbaInputFile11frameBufferEv
_ZNK7Imf_2_513RgbaInputFile13displayWindowEv
_ZNK7Imf_2_513RgbaInputFile16pixelAspectRatioEv
_ZNK7Imf_2_513RgbaInputFile17screenWindowWidthEv
_ZNK7Imf_2_513RgbaInputFile18screenWindowCenterEv
_ZNK7Imf_2_513RgbaInputFile6headerEv
_ZNK7Imf_2_513RgbaInputFile7versionEv
_ZNK7Imf_2_513RgbaInputFile8channelsEv
_ZNK7Imf_2_513RgbaInputFile8fileNameEv
_ZNK7Imf_2_513RgbaInputFile9lineOrderEv
_ZNK7Imf_2_513RleCompressor12numScanLinesEv
_ZNK7Imf_2_513ZipCompressor12numScanLinesEv
_ZNK7Imf_2_514AcesOutputFile10dataWindowEv
_ZNK7Imf_2_514AcesOutputFile11compressionEv
_ZNK7Imf_2_514AcesOutputFile13displayWindowEv
_ZNK7Imf_2_514AcesOutputFile15currentScanLineEv
_ZNK7Imf_2_514AcesOutputFile16pixelAspectRatioEv
_ZNK7Imf_2_514AcesOutputFile17screenWindowWidthEv
_ZNK7Imf_2_514AcesOutputFile18screenWindowCenterEv
_ZNK7Imf_2_514AcesOutputFile6headerEv
_ZNK7Imf_2_514AcesOutputFile8channelsEv
_ZNK7Imf_2_514AcesOutputFile9lineOrderEv
_ZNK7Imf_2_514ChromaticitieseqERKS0_
_ZNK7Imf_2_514ChromaticitiesneERKS0_
_ZNK7Imf_2_514RgbaOutputFile10dataWindowEv
_ZNK7Imf_2_514RgbaOutputFile11compressionEv
_ZNK7Imf_2_514RgbaOutputFile11frameBufferEv
_ZNK7Imf_2_514RgbaOutputFile13displayWindowEv
_ZNK7Imf_2_514RgbaOutputFile15currentScanLineEv
_ZNK7Imf_2_514RgbaOutputFile16pixelAspectRatioEv
_ZNK7Imf_2_514RgbaOutputFile17screenWindowWidthEv
_ZNK7Imf_2_514RgbaOutputFile18screenWindowCenterEv
_ZNK7Imf_2_514RgbaOutputFile6headerEv
_ZNK7Imf_2_514RgbaOutputFile8channelsEv
_ZNK7Imf_2_514RgbaOutputFile9lineOrderEv
_ZNK7Imf_2_514TiledInputFile10isCompleteEv
_ZNK7Imf_2_514TiledInputFile10levelWidthEi
_ZNK7Imf_2_514TiledInputFile10numXLevelsEv
_ZNK7Imf_2_514TiledInputFile10numYLevelsEv
_ZNK7Imf_2_514TiledInputFile11frameBufferEv
_ZNK7Imf_2_514TiledInputFile11levelHeightEi
_ZNK7Imf_2_514TiledInputFile12isValidLevelEii
_ZNK7Imf_2_514TiledInputFile17dataWindowForTileEiii
_ZNK7Imf_2_514TiledInputFile17dataWindowForTileEiiii
_ZNK7Imf_2_514TiledInputFile17levelRoundingModeEv
_ZNK7Imf_2_514TiledInputFile18dataWindowForLevelEi
_ZNK7Imf_2_514TiledInputFile18dataWindowForLevelEii
_ZNK7Imf_2_514TiledInputFile6headerEv
_ZNK7Imf_2_514TiledInputFile7versionEv
_ZNK7Imf_2_514TiledInputFile8fileNameEv
_ZNK7Imf_2_514TiledInputFile9levelModeEv
_ZNK7Imf_2_514TiledInputFile9numLevelsEv
_ZNK7Imf_2_514TiledInputFile9numXTilesEi
_ZNK7Imf_2_514TiledInputFile9numYTilesEi
_ZNK7Imf_2_514TiledInputFile9tileXSizeEv
_ZNK7Imf_2_514TiledInputFile9tileYSizeEv
_ZNK7Imf_2_514TiledInputPart10isCompleteEv
_ZNK7Imf_2_514TiledInputPart10levelWidthEi
_ZNK7Imf_2_514TiledInputPart10numXLevelsEv
_ZNK7Imf_2_514TiledInputPart10numYLevelsEv
_ZNK7Imf_2_514TiledInputPart11frameBufferEv
_ZNK7Imf_2_514TiledInputPart11levelHeightEi
_ZNK7Imf_2_514TiledInputPart12isValidLevelEii
_ZNK7Imf_2_514TiledInputPart17dataWindowForTileEiii
_ZNK7Imf_2_514TiledInputPart17dataWindowForTileEiiii
_ZNK7Imf_2_514TiledInputPart17levelRoundingModeEv
_ZNK7Imf_2_514TiledInputPart18dataWindowForLevelEi
_ZNK7Imf_2_514TiledInputPart18dataWindowForLevelEii
_ZNK7Imf_2_514TiledInputPart6headerEv
_ZNK7Imf_2_514TiledInputPart7versionEv
_ZNK7Imf_2_514TiledInputPart8fileNameEv
_ZNK7Imf_2_514TiledInputPart9levelModeEv
_ZNK7Imf_2_514TiledInputPart9numLevelsEv
_ZNK7Imf_2_514TiledInputPart9numXTilesEi
_ZNK7Imf_2_514TiledInputPart9numYTilesEi
_ZNK7Imf_2_514TiledInputPart9tileXSizeEv
_ZNK7Imf_2_514TiledInputPart9tileYSizeEv
_ZNK7Imf_2_514TypedAttributeIN9Imath_2_53BoxINS1_4Vec2IfEEEEE12writeValueToERNS_7OStreamEi
_ZNK7Imf_2_514TypedAttributeIN9Imath_2_53BoxINS1_4Vec2IiEEEEE12writeValueToERNS_7OStreamEi
_ZNK7Imf_2_514TypedAttributeIN9Imath_2_54Vec2IdEEE12writeValueToERNS_7OStreamEi
_ZNK7Imf_2_514TypedAttributeIN9Imath_2_54Vec2IfEEE12writeValueToERNS_7OStreamEi
_ZNK7Imf_2_514TypedAttributeIN9Imath_2_54Vec2IiEEE12writeValueToERNS_7OStreamEi
_ZNK7Imf_2_514TypedAttributeIN9Imath_2_54Vec3IdEEE12writeValueToERNS_7OStreamEi
_ZNK7Imf_2_514TypedAttributeIN9Imath_2_54Vec3IfEEE12writeValueToERNS_7OStreamEi
_ZNK7Imf_2_514TypedAttributeIN9Imath_2_54Vec3IiEEE12writeValueToERNS_7OStreamEi
_ZNK7Imf_2_514TypedAttributeIN9Imath_2_58Matrix33IdEEE12writeValueToERNS_7OStreamEi
_ZNK7Imf_2_514TypedAttributeIN9Imath_2_58Matrix33IfEEE12writeValueToERNS_7OStreamEi
_ZNK7Imf_2_514TypedAttributeIN9Imath_2_58Matrix44IdEEE12writeValueToERNS_7OStreamEi
_ZNK7Imf_2_514TypedAttributeIN9Imath_2_58Matrix44IfEEE12writeValueToERNS_7OStreamEi
_ZNK7Imf_2_514TypedAttributeINS_11ChannelListEE12writeValueToERNS_7OStreamEi
_ZNK7Imf_2_514TypedAttributeINS_11CompressionEE12writeValueToERNS_7OStreamEi
_ZNK7Imf_2_514TypedAttributeINS_12PreviewImageEE12writeValueToERNS_7OStreamEi
_ZNK7Imf_2_514TypedAttributeINS_14ChromaticitiesEE12writeValueToERNS_7OStreamEi
_ZNK7Imf_2_514TypedAttributeINS_14DeepImageStateEE12writeValueToERNS_7OStreamEi
_ZNK7Imf_2_514TypedAttributeINS_15TileDescriptionEE12writeValueToERNS_7OStreamEi
_ZNK7Imf_2_514TypedAttributeINS_6EnvmapEE12writeValueToERNS_7OStreamEi
_ZNK7Imf_2_514TypedAttributeINS_7KeyCodeEE12writeValueToERNS_7OStreamEi
_ZNK7Imf_2_514TypedAttributeINS_8RationalEE12writeValueToERNS_7OStreamEi
_ZNK7Imf_2_514TypedAttributeINS_8TimeCodeEE12writeValueToERNS_7OStreamEi
_ZNK7Imf_2_514TypedAttributeINS_9LineOrderEE12writeValueToERNS_7OStreamEi
_ZNK7Imf_2_514TypedAttributeINSt7__cxx1112basic_stringIcSt11char_traitsIcESaIcEEEE12writeValueToERNS_7OStreamEi
_ZNK7Imf_2_514TypedAttributeISt6vectorINSt7__cxx1112basic_stringIcSt11char_traitsIcESaIcEEESaIS7_EEE12writeValueToERNS_7OStreamEi
_ZNK7Imf_2_514TypedAttributeISt6vectorIfSaIfEEE12writeValueToERNS_7OStreamEi
_ZNK7Imf_2_515DeepFrameBuffer13ConstIterator4nameEv
_ZNK7Imf_2_515DeepFrameBuffer13ConstIterator5sliceEv
_ZNK7Imf_2_515DeepFrameBuffer19getSampleCountSliceEv
_ZNK7Imf_2_515DeepFrameBuffer3endEv
_ZNK7Imf_2_515DeepFrameBuffer4findEPKc
_ZNK7Imf_2_515DeepFrameBuffer4findERKNSt7__cxx1112basic_stringIcSt11char_traitsIcESaIcEEE
_ZNK7Imf_2_515DeepFrameBuffer5beginEv
_ZNK7Imf_2_515DeepFrameBuffer8Iterator4nameEv
_ZNK7Imf_2_515DeepFrameBuffer8Iterator5sliceEv
_ZNK7Imf_2_515DeepFrameBuffer9findSliceEPKc
_ZNK7Imf_2_515DeepFrameBuffer9findSliceERKNSt7__cxx1112basic_stringIcSt11char_traitsIcESaIcEEE
_ZNK7Imf_2_515DeepFrameBufferixEPKc
_ZNK7Imf_2_515DeepFrameBufferixERKNSt7__cxx1112basic_stringIcSt11char_traitsIcESaIcEEE
_ZNK7Imf_2_515OpaqueAttribute12writeValueToERNS_7OStreamEi
_ZNK7Imf_2_515OpaqueAttribute4copyEv
_ZNK7Imf_2_515OpaqueAttribute8typeNameEv
_ZNK7Imf_2_515Pxr24Compressor12numScanLinesEv
_ZNK7Imf_2_515Pxr24Compressor6formatEv
_ZNK7Imf_2_515TiledOutputFile10levelWidthEi
_ZNK7Imf_2_515TiledOutputFile10numXLevelsEv
_ZNK7Imf_2_515TiledOutputFile10numYLevelsEv
_ZNK7Imf_2_515TiledOutputFile11frameBufferEv
_ZNK7Imf_2_515TiledOutputFile11levelHeightEi
_ZNK7Imf_2_515TiledOutputFile12isValidLevelEii
_ZNK7Imf_2_515TiledOutputFile17dataWindowForTileEiii
_ZNK7Imf_2_515TiledOutputFile17dataWindowForTileEiiii
_ZNK7Imf_2_515TiledOutputFile17levelRoundingModeEv
_ZNK7Imf_2_515TiledOutputFile18dataWindowForLevelEi
_ZNK7Imf_2_515TiledOutputFile18dataWindowForLevelEii
_ZNK7Imf_2_515TiledOutputFile6headerEv
_ZNK7Imf_2_515TiledOutputFile8fileNameEv
_ZNK7Imf_2_515TiledOutputFile9levelModeEv
_ZNK7Imf_2_515TiledOutputFile9numLevelsEv
_ZNK7Imf_2_515TiledOutputFile9numXTilesEi
_ZNK7Imf_2_515TiledOutputFile9numYTilesEi
_ZNK7Imf_2_515TiledOutputFile9tileXSizeEv
_ZNK7Imf_2_515TiledOutputFile9tileYSizeEv
_ZNK7Imf_2_515TiledOutputPart10levelWidthEi
_ZNK7Imf_2_515TiledOutputPart10numXLevelsEv
_ZNK7Imf_2_515TiledOutputPart10numYLevelsEv
_ZNK7Imf_2_515TiledOutputPart11frameBufferEv
_ZNK7Imf_2_515TiledOutputPart11levelHeightEi
_ZNK7Imf_2_515TiledOutputPart12isValidLevelEii
_ZNK7Imf_2_515TiledOutputPart17dataWindowForTileEiii
_ZNK7Imf_2_515TiledOutputPart17dataWindowForTileEiiii
_ZNK7Imf_2_515TiledOutputPart17levelRoundingModeEv
_ZNK7Imf_2_515TiledOutputPart18dataWindowForLevelEi
_ZNK7Imf_2_515TiledOutputPart18dataWindowForLevelEii
_ZNK7Imf_2_515TiledOutputPart6headerEv
_ZNK7Imf_2_515TiledOutputPart8fileNameEv
_ZNK7Imf_2_515TiledOutputPart9levelModeEv
_ZNK7Imf_2_515TiledOutputPart9numLevelsEv
_ZNK7Imf_2_515TiledOutputPart9numXTilesEi
_ZNK7Imf_2_515TiledOutputPart9numYTilesEi
_ZNK7Imf_2_515TiledOutputPart9tileXSizeEv
_ZNK7Imf_2_515TiledOutputPart9tileYSizeEv
_ZNK7Imf_2_517ScanLineInputFile10isCompleteEv
_ZNK7Imf_2_517ScanLineInputFile11frameBufferEv
_ZNK7Imf_2_517ScanLineInputFile20rawPixelDataToBufferEiPcRi
_ZNK7Imf_2_517ScanLineInputFile21isOptimizationEnabledEv
_ZNK7Imf_2_517ScanLineInputFile6headerEv
_ZNK7Imf_2_517ScanLineInputFile7versionEv
_ZNK7Imf_2_517ScanLineInputFile8fileNameEv
_ZNK7Imf_2_518DeepTiledInputFile10isCompleteEv
_ZNK7Imf_2_518DeepTiledInputFile10levelWidthEi
_ZNK7Imf_2_518DeepTiledInputFile10numXLevelsEv
_ZNK7Imf_2_518DeepTiledInputFile10numYLevelsEv
_ZNK7Imf_2_518DeepTiledInputFile10totalTilesEv
_ZNK7Imf_2_518DeepTiledInputFile11frameBufferEv
_ZNK7Imf_2_518DeepTiledInputFile11levelHeightEi
_ZNK7Imf_2_518DeepTiledInputFile11rawTileDataERiS1_S1_S1_PcRy
_ZNK7Imf_2_518DeepTiledInputFile12isValidLevelEii
_ZNK7Imf_2_518DeepTiledInputFile17dataWindowForTileEiii
_ZNK7Imf_2_518DeepTiledInputFile17dataWindowForTileEiiii
_ZNK7Imf_2_518DeepTiledInputFile17levelRoundingModeEv
_ZNK7Imf_2_518DeepTiledInputFile18dataWindowForLevelEi
_ZNK7Imf_2_518DeepTiledInputFile18dataWindowForLevelEii
_ZNK7Imf_2_518DeepTiledInputFile6headerEv
_ZNK7Imf_2_518DeepTiledInputFile7versionEv
_ZNK7Imf_2_518DeepTiledInputFile8fileNameEv
_ZNK7Imf_2_518DeepTiledInputFile9levelModeEv
_ZNK7Imf_2_518DeepTiledInputFile9numLevelsEv
_ZNK7Imf_2_518DeepTiledInputFile9numXTilesEi
_ZNK7Imf_2_518DeepTiledInputFile9numYTilesEi
_ZNK7Imf_2_518DeepTiledInputFile9tileXSizeEv
_ZNK7Imf_2_518DeepTiledInputFile9tileYSizeEv
_ZNK7Imf_2_518DeepTiledInputPart10isCompleteEv
_ZNK7Imf_2_518DeepTiledInputPart10levelWidthEi
_ZNK7Imf_2_518DeepTiledInputPart10numXLevelsEv
_ZNK7Imf_2_518DeepTiledInputPart10numYLevelsEv
_ZNK7Imf_2_518DeepTiledInputPart11frameBufferEv
_ZNK7Imf_2_518DeepTiledInputPart11levelHeightEi
_ZNK7Imf_2_518DeepTiledInputPart11rawTileDataERiS1_S1_S1_PcRy
_ZNK7Imf_2_518DeepTiledInputPart12isValidLevelEii
_ZNK7Imf_2_518DeepTiledInputPart17dataWindowForTileEiii
_ZNK7Imf_2_518DeepTiledInputPart17dataWindowForTileEiiii
_ZNK7Imf_2_518DeepTiledInputPart17levelRoundingModeEv
_ZNK7Imf_2_518DeepTiledInputPart18dataWindowForLevelEi
_ZNK7Imf_2_518DeepTiledInputPart18dataWindowForLevelEii
_ZNK7Imf_2_518DeepTiledInputPart6headerEv
_ZNK7Imf_2_518DeepTiledInputPart7versionEv
_ZNK7Imf_2_518DeepTiledInputPart8fileNameEv
_ZNK7Imf_2_518DeepTiledInputPart9levelModeEv
_ZNK7Imf_2_518DeepTiledInputPart9numLevelsEv
_ZNK7Imf_2_518DeepTiledInputPart9numXTilesEi
_ZNK7Imf_2_518DeepTiledInputPart9numYTilesEi
_ZNK7Imf_2_518DeepTiledInputPart9tileXSizeEv
_ZNK7Imf_2_518DeepTiledInputPart9tileYSizeEv
_ZNK7Imf_2_518MultiPartInputFile12partCompleteEi
_ZNK7Imf_2_518MultiPartInputFile5partsEv
_ZNK7Imf_2_518MultiPartInputFile6headerEi
_ZNK7Imf_2_518MultiPartInputFile7versionEv
_ZNK7Imf_2_518TiledRgbaInputFile10dataWindowEv
_ZNK7Imf_2_518TiledRgbaInputFile10isCompleteEv
_ZNK7Imf_2_518TiledRgbaInputFile10levelWidthEi
_ZNK7Imf_2_518TiledRgbaInputFile10numXLevelsEv
_ZNK7Imf_2_518TiledRgbaInputFile10numYLevelsEv
_ZNK7Imf_2_518TiledRgbaInputFile11compressionEv
_ZNK7Imf_2_518TiledRgbaInputFile11frameBufferEv
_ZNK7Imf_2_518TiledRgbaInputFile11levelHeightEi
_ZNK7Imf_2_518TiledRgbaInputFile12isValidLevelEii
_ZNK7Imf_2_518TiledRgbaInputFile13displayWindowEv
_ZNK7Imf_2_518TiledRgbaInputFile16pixelAspectRatioEv
_ZNK7Imf_2_518TiledRgbaInputFile17dataWindowForTileEiii
_ZNK7Imf_2_518TiledRgbaInputFile17dataWindowForTileEiiii
_ZNK7Imf_2_518TiledRgbaInputFile17levelRoundingModeEv
_ZNK7Imf_2_518TiledRgbaInputFile17screenWindowWidthEv
_ZNK7Imf_2_518TiledRgbaInputFile18dataWindowForLevelEi
_ZNK7Imf_2_518TiledRgbaInputFile18dataWindowForLevelEii
_ZNK7Imf_2_518TiledRgbaInputFile18screenWindowCenterEv
_ZNK7Imf_2_518TiledRgbaInputFile6headerEv
_ZNK7Imf_2_518TiledRgbaInputFile7versionEv
_ZNK7Imf_2_518TiledRgbaInputFile8channelsEv
_ZNK7Imf_2_518TiledRgbaInputFile8fileNameEv
_ZNK7Imf_2_518TiledRgbaInputFile9levelModeEv
_ZNK7Imf_2_518TiledRgbaInputFile9lineOrderEv
_ZNK7Imf_2_518TiledRgbaInputFile9numLevelsEv
_ZNK7Imf_2_518TiledRgbaInputFile9numXTilesEi
_ZNK7Imf_2_518TiledRgbaInputFile9numYTilesEi
_ZNK7Imf_2_518TiledRgbaInputFile9tileXSizeEv
_ZNK7Imf_2_518TiledRgbaInputFile9tileYSizeEv
_ZNK7Imf_2_519DeepTiledOutputFile10levelWidthEi
_ZNK7Imf_2_519DeepTiledOutputFile10numXLevelsEv
_ZNK7Imf_2_519DeepTiledOutputFile10numYLevelsEv
_ZNK7Imf_2_519DeepTiledOutputFile11frameBufferEv
_ZNK7Imf_2_519DeepTiledOutputFile11levelHeightEi
_ZNK7Imf_2_519DeepTiledOutputFile12isValidLevelEii
_ZNK7Imf_2_519DeepTiledOutputFile17dataWindowForTileEiii
_ZNK7Imf_2_519DeepTiledOutputFile17dataWindowForTileEiiii
_ZNK7Imf_2_519DeepTiledOutputFile17levelRoundingModeEv
_ZNK7Imf_2_519DeepTiledOutputFile18dataWindowForLevelEi
_ZNK7Imf_2_519DeepTiledOutputFile18dataWindowForLevelEii
_ZNK7Imf_2_519DeepTiledOutputFile6headerEv
_ZNK7Imf_2_519DeepTiledOutputFile8fileNameEv
_ZNK7Imf_2_519DeepTiledOutputFile9levelModeEv
_ZNK7Imf_2_519DeepTiledOutputFile9numLevelsEv
_ZNK7Imf_2_519DeepTiledOutputFile9numXTilesEi
_ZNK7Imf_2_519DeepTiledOutputFile9numYTilesEi
_ZNK7Imf_2_519DeepTiledOutputFile9tileXSizeEv
_ZNK7Imf_2_519DeepTiledOutputFile9tileYSizeEv
_ZNK7Imf_2_519DeepTiledOutputPart10levelWidthEi
_ZNK7Imf_2_519DeepTiledOutputPart10numXLevelsEv
_ZNK7Imf_2_519DeepTiledOutputPart10numYLevelsEv
_ZNK7Imf_2_519DeepTiledOutputPart11frameBufferEv
_ZNK7Imf_2_519DeepTiledOutputPart11levelHeightEi
_ZNK7Imf_2_519DeepTiledOutputPart12isValidLevelEii
_ZNK7Imf_2_519DeepTiledOutputPart17dataWindowForTileEiii
_ZNK7Imf_2_519DeepTiledOutputPart17dataWindowForTileEiiii
_ZNK7Imf_2_519DeepTiledOutputPart17levelRoundingModeEv
_ZNK7Imf_2_519DeepTiledOutputPart18dataWindowForLevelEi
_ZNK7Imf_2_519DeepTiledOutputPart18dataWindowForLevelEii
_ZNK7Imf_2_519DeepTiledOutputPart6headerEv
_ZNK7Imf_2_519DeepTiledOutputPart8fileNameEv
_ZNK7Imf_2_519DeepTiledOutputPart9levelModeEv
_ZNK7Imf_2_519DeepTiledOutputPart9numLevelsEv
_ZNK7Imf_2_519DeepTiledOutputPart9numXTilesEi
_ZNK7Imf_2_519DeepTiledOutputPart9numYTilesEi
_ZNK7Imf_2_519DeepTiledOutputPart9tileXSizeEv
_ZNK7Imf_2_519DeepTiledOutputPart9tileYSizeEv
_ZNK7Imf_2_519MultiPartOutputFile5partsEv
_ZNK7Imf_2_519MultiPartOutputFile6headerEi
_ZNK7Imf_2_519TiledRgbaOutputFile10dataWindowEv
_ZNK7Imf_2_519TiledRgbaOutputFile10levelWidthEi
_ZNK7Imf_2_519TiledRgbaOutputFile10numXLevelsEv
_ZNK7Imf_2_519TiledRgbaOutputFile10numYLevelsEv
_ZNK7Imf_2_519TiledRgbaOutputFile11compressionEv
_ZNK7Imf_2_519TiledRgbaOutputFile11frameBufferEv
_ZNK7Imf_2_519TiledRgbaOutputFile11levelHeightEi
_ZNK7Imf_2_519TiledRgbaOutputFile12isValidLevelEii
_ZNK7Imf_2_519TiledRgbaOutputFile13displayWindowEv
_ZNK7Imf_2_519TiledRgbaOutputFile16pixelAspectRatioEv
_ZNK7Imf_2_519TiledRgbaOutputFile17dataWindowForTileEiii
_ZNK7Imf_2_519TiledRgbaOutputFile17dataWindowForTileEiiii
_ZNK7Imf_2_519TiledRgbaOutputFile17levelRoundingModeEv
_ZNK7Imf_2_519TiledRgbaOutputFile17screenWindowWidthEv
_ZNK7Imf_2_519TiledRgbaOutputFile18dataWindowForLevelEi
_ZNK7Imf_2_519TiledRgbaOutputFile18dataWindowForLevelEii
_ZNK7Imf_2_519TiledRgbaOutputFile18screenWindowCenterEv
_ZNK7Imf_2_519TiledRgbaOutputFile6headerEv
_ZNK7Imf_2_519TiledRgbaOutputFile8channelsEv
_ZNK7Imf_2_519TiledRgbaOutputFile9levelModeEv
_ZNK7Imf_2_519TiledRgbaOutputFile9lineOrderEv
_ZNK7Imf_2_519TiledRgbaOutputFile9numLevelsEv
_ZNK7Imf_2_519TiledRgbaOutputFile9numXTilesEi
_ZNK7Imf_2_519TiledRgbaOutputFile9numYTilesEi
_ZNK7Imf_2_519TiledRgbaOutputFile9tileXSizeEv
_ZNK7Imf_2_519TiledRgbaOutputFile9tileYSizeEv
_ZNK7Imf_2_521CompositeDeepScanLine10dataWindowEv
_ZNK7Imf_2_521CompositeDeepScanLine11frameBufferEv
_ZNK7Imf_2_521CompositeDeepScanLine7sourcesEv
_ZNK7Imf_2_521DeepScanLineInputFile10isCompleteEv
_ZNK7Imf_2_521DeepScanLineInputFile10readPixelsEPKcRKNS_15DeepFrameBufferEii
_ZNK7Imf_2_521DeepScanLineInputFile11frameBufferEv
_ZNK7Imf_2_521DeepScanLineInputFile19lastScanLineInChunkEi
_ZNK7Imf_2_521DeepScanLineInputFile20firstScanLineInChunkEi
_ZNK7Imf_2_521DeepScanLineInputFile21readPixelSampleCountsEPKcRKNS_15DeepFrameBufferEii
_ZNK7Imf_2_521DeepScanLineInputFile6headerEv
_ZNK7Imf_2_521DeepScanLineInputFile7versionEv
_ZNK7Imf_2_521DeepScanLineInputFile8fileNameEv
_ZNK7Imf_2_521DeepScanLineInputPart10isCompleteEv
_ZNK7Imf_2_521DeepScanLineInputPart10readPixelsEPKcRKNS_15DeepFrameBufferEii
_ZNK7Imf_2_521DeepScanLineInputPart11frameBufferEv
_ZNK7Imf_2_521DeepScanLineInputPart19lastScanLineInChunkEi
_ZNK7Imf_2_521DeepScanLineInputPart20firstScanLineInChunkEi
_ZNK7Imf_2_521DeepScanLineInputPart21readPixelSampleCountsEPKcRKNS_15DeepFrameBufferEii
_ZNK7Imf_2_521DeepScanLineInputPart6headerEv
_ZNK7Imf_2_521DeepScanLineInputPart7versionEv
_ZNK7Imf_2_521DeepScanLineInputPart8fileNameEv
_ZNK7Imf_2_522DeepScanLineOutputFile11frameBufferEv
_ZNK7Imf_2_522DeepScanLineOutputFile15currentScanLineEv
_ZNK7Imf_2_522DeepScanLineOutputFile6headerEv
_ZNK7Imf_2_522DeepScanLineOutputFile8fileNameEv
_ZNK7Imf_2_522DeepScanLineOutputPart11frameBufferEv
_ZNK7Imf_2_522DeepScanLineOutputPart15currentScanLineEv
_ZNK7Imf_2_522DeepScanLineOutputPart6headerEv
_ZNK7Imf_2_522DeepScanLineOutputPart8fileNameEv
_ZNK7Imf_2_56Header10chunkCountEv
_ZNK7Imf_2_56Header10dataWindowEv
_ZNK7Imf_2_56Header10hasVersionEv
_ZNK7Imf_2_56Header11compressionEv
_ZNK7Imf_2_56Header11sanityCheckEbb
_ZNK7Imf_2_56Header12previewImageEv
_ZNK7Imf_2_56Header13ConstIterator4nameEv
_ZNK7Imf_2_56Header13ConstIterator9attributeEv
_ZNK7Imf_2_56Header13displayWindowEv
_ZNK7Imf_2_56Header13hasChunkCountEv
_ZNK7Imf_2_56Header15hasPreviewImageEv
_ZNK7Imf_2_56Header15tileDescriptionEv
_ZNK7Imf_2_56Header16pixelAspectRatioEv
_ZNK7Imf_2_56Header17screenWindowWidthEv
_ZNK7Imf_2_56Header18hasTileDescriptionEv
_ZNK7Imf_2_56Header18screenWindowCenterEv
_ZNK7Imf_2_56Header3endEv
_ZNK7Imf_2_56Header4findEPKc
_ZNK7Imf_2_56Header4findERKNSt7__cxx1112basic_stringIcSt11char_traitsIcESaIcEEE
_ZNK7Imf_2_56Header4nameB5cxx11Ev
_ZNK7Imf_2_56Header4typeB5cxx11Ev
_ZNK7Imf_2_56Header4viewB5cxx11Ev
_ZNK7Imf_2_56Header5beginEv
_ZNK7Imf_2_56Header7hasNameEv
_ZNK7Imf_2_56Header7hasTypeEv
_ZNK7Imf_2_56Header7hasViewEv
_ZNK7Imf_2_56Header7versionEv
_ZNK7Imf_2_56Header7writeToERNS_7OStreamEb
_ZNK7Imf_2_56Header8Iterator4nameEv
_ZNK7Imf_2_56Header8Iterator9attributeEv
_ZNK7Imf_2_56Header8channelsEv
_ZNK7Imf_2_56Header9lineOrderEv
_ZNK7Imf_2_56HeaderixEPKc
_ZNK7Imf_2_56HeaderixERKNSt7__cxx1112basic_stringIcSt11char_traitsIcESaIcEEE
_ZNK7Imf_2_57ChanneleqERKS0_
_ZNK7Imf_2_57HalfLut5applyEP4halfii
_ZNK7Imf_2_57HalfLut5applyERKNS_5SliceERKN9Imath_2_53BoxINS4_4Vec2IiEEEE
_ZNK7Imf_2_57IStream14isMemoryMappedEv
_ZNK7Imf_2_57IStream8fileNameEv
_ZNK7Imf_2_57KeyCode10perfOffsetEv
_ZNK7Imf_2_57KeyCode11filmMfcCodeEv
_ZNK7Imf_2_57KeyCode13perfsPerCountEv
_ZNK7Imf_2_57KeyCode13perfsPerFrameEv
_ZNK7Imf_2_57KeyCode5countEv
_ZNK7Imf_2_57KeyCode6prefixEv
_ZNK7Imf_2_57KeyCode8filmTypeEv
_ZNK7Imf_2_57OStream8fileNameEv
_ZNK7Imf_2_57RgbaLut5applyEPNS_4RgbaEii
_ZNK7Imf_2_57RgbaLut5applyEPNS_4RgbaEiiRKN9Imath_2_53BoxINS3_4Vec2IiEEEE
_ZNK7Imf_2_58TimeCode10colorFrameEv
_ZNK7Imf_2_58TimeCode10fieldPhaseEv
_ZNK7Imf_2_58TimeCode11binaryGroupEi
_ZNK7Imf_2_58TimeCode12timeAndFlagsENS0_7PackingE
_ZNK7Imf_2_58TimeCode4bgf0Ev
_ZNK7Imf_2_58TimeCode4bgf1Ev
_ZNK7Imf_2_58TimeCode4bgf2Ev
_ZNK7Imf_2_58TimeCode5frameEv
_ZNK7Imf_2_58TimeCode5hoursEv
_ZNK7Imf_2_58TimeCode7minutesEv
_ZNK7Imf_2_58TimeCode7secondsEv
_ZNK7Imf_2_58TimeCode8userDataEv
_ZNK7Imf_2_58TimeCode9dropFrameEv
_ZNK7Imf_2_58TimeCodeeqERKS0_
_ZNK7Imf_2_58TimeCodeneERKS0_
_ZNK7Imf_2_59InputFile10isCompleteEv
_ZNK7Imf_2_59InputFile11frameBufferEv
_ZNK7Imf_2_59InputFile20rawPixelDataToBufferEiPcRi
_ZNK7Imf_2_59InputFile21isOptimizationEnabledEv
_ZNK7Imf_2_59InputFile6headerEv
_ZNK7Imf_2_59InputFile7versionEv
_ZNK7Imf_2_59InputFile8fileNameEv
_ZNK7Imf_2_59InputPart10isCompleteEv
_ZNK7Imf_2_59InputPart11frameBufferEv
_ZNK7Imf_2_59InputPart20rawPixelDataToBufferEiPcRi
_ZNK7Imf_2_59InputPart21isOptimizationEnabledEv
_ZNK7Imf_2_59InputPart6headerEv
_ZNK7Imf_2_59InputPart7versionEv
_ZNK7Imf_2_59InputPart8fileNameEv
_ZTIN13IlmThread_2_510ThreadPoolE DATA
_ZTIN13IlmThread_2_518ThreadPoolProviderE DATA
_ZTIN13IlmThread_2_54TaskE DATA
_ZTIN13IlmThread_2_59SemaphoreE DATA
